; Listing generated by Microsoft (R) Optimizing Compiler Version 19.29.30133.0 

	TITLE	\\VBOXSVR\_stoneage\repos\ssm-sacli\Release\PetRanking.obj
	.686P
	.XMM
	include listing.inc
	.model	flat

INCLUDELIB LIBCMT
INCLUDELIB OLDNAMES

CONST	SEGMENT
?_Fake_alloc@std@@3U_Fake_allocator@1@B	ORG $+1		; std::_Fake_alloc
CONST	ENDS
PUBLIC	___local_stdio_printf_options
PUBLIC	_sprintf
PUBLIC	??0exception@std@@QAE@ABV01@@Z			; std::exception::exception
PUBLIC	??1exception@std@@UAE@XZ			; std::exception::~exception
PUBLIC	?what@exception@std@@UBEPBDXZ			; std::exception::what
PUBLIC	??_Gexception@std@@UAEPAXI@Z			; std::exception::`scalar deleting destructor'
PUBLIC	??1bad_alloc@std@@UAE@XZ			; std::bad_alloc::~bad_alloc
PUBLIC	??0bad_alloc@std@@QAE@ABV01@@Z			; std::bad_alloc::bad_alloc
PUBLIC	??_Gbad_alloc@std@@UAEPAXI@Z			; std::bad_alloc::`scalar deleting destructor'
PUBLIC	??0bad_array_new_length@std@@QAE@XZ		; std::bad_array_new_length::bad_array_new_length
PUBLIC	??1bad_array_new_length@std@@UAE@XZ		; std::bad_array_new_length::~bad_array_new_length
PUBLIC	??0bad_array_new_length@std@@QAE@ABV01@@Z	; std::bad_array_new_length::bad_array_new_length
PUBLIC	??_Gbad_array_new_length@std@@UAEPAXI@Z		; std::bad_array_new_length::`scalar deleting destructor'
PUBLIC	?_Throw_bad_array_new_length@std@@YAXXZ		; std::_Throw_bad_array_new_length
PUBLIC	?_Xlen_string@std@@YAXXZ			; std::_Xlen_string
PUBLIC	??0?$basic_string@DU?$char_traits@D@std@@V?$allocator@D@2@@std@@QAE@ABV01@@Z ; std::basic_string<char,std::char_traits<char>,std::allocator<char> >::basic_string<char,std::char_traits<char>,std::allocator<char> >
PUBLIC	??0?$basic_string@DU?$char_traits@D@std@@V?$allocator@D@2@@std@@QAE@QBD@Z ; std::basic_string<char,std::char_traits<char>,std::allocator<char> >::basic_string<char,std::char_traits<char>,std::allocator<char> >
PUBLIC	??1?$basic_string@DU?$char_traits@D@std@@V?$allocator@D@2@@std@@QAE@XZ ; std::basic_string<char,std::char_traits<char>,std::allocator<char> >::~basic_string<char,std::char_traits<char>,std::allocator<char> >
PUBLIC	?assign@?$basic_string@DU?$char_traits@D@std@@V?$allocator@D@2@@std@@QAEAAV12@ABV12@@Z ; std::basic_string<char,std::char_traits<char>,std::allocator<char> >::assign
PUBLIC	?assign@?$basic_string@DU?$char_traits@D@std@@V?$allocator@D@2@@std@@QAEAAV12@QBDI@Z ; std::basic_string<char,std::char_traits<char>,std::allocator<char> >::assign
PUBLIC	?_Tidy_deallocate@?$basic_string@DU?$char_traits@D@std@@V?$allocator@D@2@@std@@AAEXXZ ; std::basic_string<char,std::char_traits<char>,std::allocator<char> >::_Tidy_deallocate
PUBLIC	?stoi@std@@YAHABV?$basic_string@DU?$char_traits@D@std@@V?$allocator@D@2@@1@PAIH@Z ; std::stoi
PUBLIC	??0_RANK@@QAE@ABV_PET@@ABH@Z			; _RANK::_RANK
PUBLIC	?GetRank@_PET@@QAE?AV_RANK@@ABH@Z		; _PET::GetRank
PUBLIC	??0_PET@@QAE@XZ					; _PET::_PET
PUBLIC	??1_PET@@QAE@XZ					; _PET::~_PET
PUBLIC	??0_PET@@QAE@ABV0@@Z				; _PET::_PET
PUBLIC	?deallocate@?$allocator@V_PET@@@std@@QAEXQAV_PET@@I@Z ; std::allocator<_PET>::deallocate
PUBLIC	??1?$vector@V_PET@@V?$allocator@V_PET@@@std@@@std@@QAE@XZ ; std::vector<_PET,std::allocator<_PET> >::~vector<_PET,std::allocator<_PET> >
PUBLIC	?push_back@?$vector@V_PET@@V?$allocator@V_PET@@@std@@@std@@QAEXABV_PET@@@Z ; std::vector<_PET,std::allocator<_PET> >::push_back
PUBLIC	?_Destroy@?$vector@V_PET@@V?$allocator@V_PET@@@std@@@std@@AAEXPAV_PET@@0@Z ; std::vector<_PET,std::allocator<_PET> >::_Destroy
PUBLIC	?_Xlength@?$vector@V_PET@@V?$allocator@V_PET@@@std@@@std@@CAXXZ ; std::vector<_PET,std::allocator<_PET> >::_Xlength
PUBLIC	??0PetData@@QAE@XZ				; PetData::PetData
PUBLIC	?Instance@PetData@@SAAAV1@XZ			; PetData::Instance
PUBLIC	?Get@PetData@@QAEPAV_PET@@H@Z			; PetData::Get
PUBLIC	?Get@PetData@@QAE?AV_PET@@PAD@Z			; PetData::Get
PUBLIC	?GetId@PetData@@QAEHPAD@Z			; PetData::GetId
PUBLIC	?Split@PetData@@QAE?AV?$vector@V?$basic_string@DU?$char_traits@D@std@@V?$allocator@D@2@@std@@V?$allocator@V?$basic_string@DU?$char_traits@D@std@@V?$allocator@D@2@@std@@@2@@std@@V?$basic_string@DU?$char_traits@D@std@@V?$allocator@D@2@@3@0@Z ; PetData::Split
PUBLIC	?deallocate@?$allocator@U_TopPet@PetRanking@@@std@@QAEXQAU_TopPet@PetRanking@@I@Z ; std::allocator<PetRanking::_TopPet>::deallocate
PUBLIC	??1?$vector@U_TopPet@PetRanking@@V?$allocator@U_TopPet@PetRanking@@@std@@@std@@QAE@XZ ; std::vector<PetRanking::_TopPet,std::allocator<PetRanking::_TopPet> >::~vector<PetRanking::_TopPet,std::allocator<PetRanking::_TopPet> >
PUBLIC	?_Umove@?$vector@U_TopPet@PetRanking@@V?$allocator@U_TopPet@PetRanking@@@std@@@std@@AAEPAU_TopPet@PetRanking@@PAU34@00@Z ; std::vector<PetRanking::_TopPet,std::allocator<PetRanking::_TopPet> >::_Umove
PUBLIC	?_Xlength@?$vector@U_TopPet@PetRanking@@V?$allocator@U_TopPet@PetRanking@@@std@@@std@@CAXXZ ; std::vector<PetRanking::_TopPet,std::allocator<PetRanking::_TopPet> >::_Xlength
PUBLIC	?_Xrange@?$vector@U_TopPet@PetRanking@@V?$allocator@U_TopPet@PetRanking@@@std@@@std@@CAXXZ ; std::vector<PetRanking::_TopPet,std::allocator<PetRanking::_TopPet> >::_Xrange
PUBLIC	??0PetRanking@@QAE@XZ				; PetRanking::PetRanking
PUBLIC	?Instance@PetRanking@@SAAAV1@XZ			; PetRanking::Instance
PUBLIC	?Init@PetRanking@@QAEXXZ			; PetRanking::Init
PUBLIC	?Proc@PetRanking@@QAEXXZ			; PetRanking::Proc
PUBLIC	?Check@PetRanking@@QAEHXZ			; PetRanking::Check
PUBLIC	?MouseClick@PetRanking@@QAEXXZ			; PetRanking::MouseClick
PUBLIC	?SetCheck@PetRanking@@QAEXABH@Z			; PetRanking::SetCheck
PUBLIC	?Recv@PetRanking@@QAEXPAD@Z			; PetRanking::Recv
PUBLIC	?ToString@PetRanking@@QAEPADABH@Z		; PetRanking::ToString
PUBLIC	?ToString@PetRanking@@QAEPADABM@Z		; PetRanking::ToString
PUBLIC	?ToString@PetRanking@@QAEPADABN@Z		; PetRanking::ToString
PUBLIC	??0?$vector@HV?$allocator@H@std@@@std@@QAE@V?$initializer_list@H@1@ABV?$allocator@H@1@@Z ; std::vector<int,std::allocator<int> >::vector<int,std::allocator<int> >
PUBLIC	??1?$vector@HV?$allocator@H@std@@@std@@QAE@XZ	; std::vector<int,std::allocator<int> >::~vector<int,std::allocator<int> >
PUBLIC	?at@?$vector@HV?$allocator@H@std@@@std@@QAEAAHI@Z ; std::vector<int,std::allocator<int> >::at
PUBLIC	?_Tidy@?$vector@HV?$allocator@H@std@@@std@@AAEXXZ ; std::vector<int,std::allocator<int> >::_Tidy
PUBLIC	?_Xlength@?$vector@HV?$allocator@H@std@@@std@@CAXXZ ; std::vector<int,std::allocator<int> >::_Xlength
PUBLIC	?_Xrange@?$vector@HV?$allocator@H@std@@@std@@CAXXZ ; std::vector<int,std::allocator<int> >::_Xrange
PUBLIC	?deallocate@?$allocator@V?$basic_string@DU?$char_traits@D@std@@V?$allocator@D@2@@std@@@std@@QAEXQAV?$basic_string@DU?$char_traits@D@std@@V?$allocator@D@2@@2@I@Z ; std::allocator<std::basic_string<char,std::char_traits<char>,std::allocator<char> > >::deallocate
PUBLIC	??0?$vector@V?$basic_string@DU?$char_traits@D@std@@V?$allocator@D@2@@std@@V?$allocator@V?$basic_string@DU?$char_traits@D@std@@V?$allocator@D@2@@std@@@2@@std@@QAE@V?$initializer_list@V?$basic_string@DU?$char_traits@D@std@@V?$allocator@D@2@@std@@@1@ABV?$allocator@V?$basic_string@DU?$char_traits@D@std@@V?$allocator@D@2@@std@@@1@@Z ; std::vector<std::basic_string<char,std::char_traits<char>,std::allocator<char> >,std::allocator<std::basic_string<char,std::char_traits<char>,std::allocator<char> > > >::vector<std::basic_string<char,std::char_traits<char>,std::allocator<char> >,std::allocator<std::basic_string<char,std::char_traits<char>,std::allocator<char> > > >
PUBLIC	??4?$vector@V?$basic_string@DU?$char_traits@D@std@@V?$allocator@D@2@@std@@V?$allocator@V?$basic_string@DU?$char_traits@D@std@@V?$allocator@D@2@@std@@@2@@std@@QAEAAV01@$$QAV01@@Z ; std::vector<std::basic_string<char,std::char_traits<char>,std::allocator<char> >,std::allocator<std::basic_string<char,std::char_traits<char>,std::allocator<char> > > >::operator=
PUBLIC	??1?$vector@V?$basic_string@DU?$char_traits@D@std@@V?$allocator@D@2@@std@@V?$allocator@V?$basic_string@DU?$char_traits@D@std@@V?$allocator@D@2@@std@@@2@@std@@QAE@XZ ; std::vector<std::basic_string<char,std::char_traits<char>,std::allocator<char> >,std::allocator<std::basic_string<char,std::char_traits<char>,std::allocator<char> > > >::~vector<std::basic_string<char,std::char_traits<char>,std::allocator<char> >,std::allocator<std::basic_string<char,std::char_traits<char>,std::allocator<char> > > >
PUBLIC	?at@?$vector@V?$basic_string@DU?$char_traits@D@std@@V?$allocator@D@2@@std@@V?$allocator@V?$basic_string@DU?$char_traits@D@std@@V?$allocator@D@2@@std@@@2@@std@@QAEAAV?$basic_string@DU?$char_traits@D@std@@V?$allocator@D@2@@2@I@Z ; std::vector<std::basic_string<char,std::char_traits<char>,std::allocator<char> >,std::allocator<std::basic_string<char,std::char_traits<char>,std::allocator<char> > > >::at
PUBLIC	?_Destroy@?$vector@V?$basic_string@DU?$char_traits@D@std@@V?$allocator@D@2@@std@@V?$allocator@V?$basic_string@DU?$char_traits@D@std@@V?$allocator@D@2@@std@@@2@@std@@AAEXPAV?$basic_string@DU?$char_traits@D@std@@V?$allocator@D@2@@2@0@Z ; std::vector<std::basic_string<char,std::char_traits<char>,std::allocator<char> >,std::allocator<std::basic_string<char,std::char_traits<char>,std::allocator<char> > > >::_Destroy
PUBLIC	?_Tidy@?$vector@V?$basic_string@DU?$char_traits@D@std@@V?$allocator@D@2@@std@@V?$allocator@V?$basic_string@DU?$char_traits@D@std@@V?$allocator@D@2@@std@@@2@@std@@AAEXXZ ; std::vector<std::basic_string<char,std::char_traits<char>,std::allocator<char> >,std::allocator<std::basic_string<char,std::char_traits<char>,std::allocator<char> > > >::_Tidy
PUBLIC	?_Xlength@?$vector@V?$basic_string@DU?$char_traits@D@std@@V?$allocator@D@2@@std@@V?$allocator@V?$basic_string@DU?$char_traits@D@std@@V?$allocator@D@2@@std@@@2@@std@@CAXXZ ; std::vector<std::basic_string<char,std::char_traits<char>,std::allocator<char> >,std::allocator<std::basic_string<char,std::char_traits<char>,std::allocator<char> > > >::_Xlength
PUBLIC	?_Xrange@?$vector@V?$basic_string@DU?$char_traits@D@std@@V?$allocator@D@2@@std@@V?$allocator@V?$basic_string@DU?$char_traits@D@std@@V?$allocator@D@2@@std@@@2@@std@@CAXXZ ; std::vector<std::basic_string<char,std::char_traits<char>,std::allocator<char> >,std::allocator<std::basic_string<char,std::char_traits<char>,std::allocator<char> > > >::_Xrange
PUBLIC	??$fill@PAHH@std@@YAXQAH0ABH@Z			; std::fill<int *,int>
PUBLIC	??$_Emplace_reallocate@ABV?$basic_string@DU?$char_traits@D@std@@V?$allocator@D@2@@std@@@?$vector@V?$basic_string@DU?$char_traits@D@std@@V?$allocator@D@2@@std@@V?$allocator@V?$basic_string@DU?$char_traits@D@std@@V?$allocator@D@2@@std@@@2@@std@@QAEPAV?$basic_string@DU?$char_traits@D@std@@V?$allocator@D@2@@1@QAV21@ABV21@@Z ; std::vector<std::basic_string<char,std::char_traits<char>,std::allocator<char> >,std::allocator<std::basic_string<char,std::char_traits<char>,std::allocator<char> > > >::_Emplace_reallocate<std::basic_string<char,std::char_traits<char>,std::allocator<char> > const &>
PUBLIC	??$_Emplace_reallocate@ABU_TopPet@PetRanking@@@?$vector@U_TopPet@PetRanking@@V?$allocator@U_TopPet@PetRanking@@@std@@@std@@QAEPAU_TopPet@PetRanking@@QAU23@ABU23@@Z ; std::vector<PetRanking::_TopPet,std::allocator<PetRanking::_TopPet> >::_Emplace_reallocate<PetRanking::_TopPet const &>
PUBLIC	??$_Emplace_reallocate@ABV_PET@@@?$vector@V_PET@@V?$allocator@V_PET@@@std@@@std@@QAEPAV_PET@@QAV2@ABV2@@Z ; std::vector<_PET,std::allocator<_PET> >::_Emplace_reallocate<_PET const &>
PUBLIC	??$_Destroy_range@V?$allocator@V_PET@@@std@@@std@@YAXPAV_PET@@QAV1@AAV?$allocator@V_PET@@@0@@Z ; std::_Destroy_range<std::allocator<_PET> >
PUBLIC	??$_Is_all_bits_zero@H@std@@YA_NABH@Z		; std::_Is_all_bits_zero<int>
PUBLIC	??$_Fill_zero_memset@PAH@std@@YAXPAHI@Z		; std::_Fill_zero_memset<int *>
PUBLIC	??1?$_Tidy_guard@V?$vector@V?$basic_string@DU?$char_traits@D@std@@V?$allocator@D@2@@std@@V?$allocator@V?$basic_string@DU?$char_traits@D@std@@V?$allocator@D@2@@std@@@2@@std@@@std@@QAE@XZ ; std::_Tidy_guard<std::vector<std::basic_string<char,std::char_traits<char>,std::allocator<char> >,std::allocator<std::basic_string<char,std::char_traits<char>,std::allocator<char> > > > >::~_Tidy_guard<std::vector<std::basic_string<char,std::char_traits<char>,std::allocator<char> >,std::allocator<std::basic_string<char,std::char_traits<char>,std::allocator<char> > > > >
PUBLIC	??1?$_Tidy_guard@V?$vector@HV?$allocator@H@std@@@std@@@std@@QAE@XZ ; std::_Tidy_guard<std::vector<int,std::allocator<int> > >::~_Tidy_guard<std::vector<int,std::allocator<int> > >
PUBLIC	??$_Allocate_manually_vector_aligned@U_Default_allocate_traits@std@@@std@@YAPAXI@Z ; std::_Allocate_manually_vector_aligned<std::_Default_allocate_traits>
PUBLIC	??$_Uninitialized_move@PAV?$basic_string@DU?$char_traits@D@std@@V?$allocator@D@2@@std@@V?$allocator@V?$basic_string@DU?$char_traits@D@std@@V?$allocator@D@2@@std@@@2@@std@@YAPAV?$basic_string@DU?$char_traits@D@std@@V?$allocator@D@2@@0@QAV10@0PAV10@AAV?$allocator@V?$basic_string@DU?$char_traits@D@std@@V?$allocator@D@2@@std@@@0@@Z ; std::_Uninitialized_move<std::basic_string<char,std::char_traits<char>,std::allocator<char> > *,std::allocator<std::basic_string<char,std::char_traits<char>,std::allocator<char> > > >
PUBLIC	??$_Uninitialized_move@PAV_PET@@V?$allocator@V_PET@@@std@@@std@@YAPAV_PET@@QAV1@0PAV1@AAV?$allocator@V_PET@@@0@@Z ; std::_Uninitialized_move<_PET *,std::allocator<_PET> >
PUBLIC	??1?$_Uninitialized_backout_al@V?$allocator@V?$basic_string@DU?$char_traits@D@std@@V?$allocator@D@2@@std@@@std@@@std@@QAE@XZ ; std::_Uninitialized_backout_al<std::allocator<std::basic_string<char,std::char_traits<char>,std::allocator<char> > > >::~_Uninitialized_backout_al<std::allocator<std::basic_string<char,std::char_traits<char>,std::allocator<char> > > >
PUBLIC	??$_Copy_memmove@PAU_TopPet@PetRanking@@PAU12@@std@@YAPAU_TopPet@PetRanking@@PAU12@00@Z ; std::_Copy_memmove<PetRanking::_TopPet *,PetRanking::_TopPet *>
PUBLIC	??1?$_Uninitialized_backout_al@V?$allocator@V_PET@@@std@@@std@@QAE@XZ ; std::_Uninitialized_backout_al<std::allocator<_PET> >::~_Uninitialized_backout_al<std::allocator<_PET> >
PUBLIC	??$_Copy_memmove@PBHPAH@std@@YAPAHPBH0PAH@Z	; std::_Copy_memmove<int const *,int *>
PUBLIC	?_OptionsStorage@?1??__local_stdio_printf_options@@9@4_KA ; `__local_stdio_printf_options'::`2'::_OptionsStorage
PUBLIC	??_7exception@std@@6B@				; std::exception::`vftable'
PUBLIC	??_C@_0BC@EOODALEL@Unknown?5exception@		; `string'
PUBLIC	??_7bad_alloc@std@@6B@				; std::bad_alloc::`vftable'
PUBLIC	??_7bad_array_new_length@std@@6B@		; std::bad_array_new_length::`vftable'
PUBLIC	??_C@_0BF@KINCDENJ@bad?5array?5new?5length@	; `string'
PUBLIC	__TI3?AVbad_array_new_length@std@@
PUBLIC	__CTA3?AVbad_array_new_length@std@@
PUBLIC	??_R0?AVbad_array_new_length@std@@@8		; std::bad_array_new_length `RTTI Type Descriptor'
PUBLIC	__CT??_R0?AVbad_array_new_length@std@@@8??0bad_array_new_length@std@@QAE@ABV01@@Z12
PUBLIC	??_R0?AVbad_alloc@std@@@8			; std::bad_alloc `RTTI Type Descriptor'
PUBLIC	__CT??_R0?AVbad_alloc@std@@@8??0bad_alloc@std@@QAE@ABV01@@Z12
PUBLIC	??_R0?AVexception@std@@@8			; std::exception `RTTI Type Descriptor'
PUBLIC	__CT??_R0?AVexception@std@@@8??0exception@std@@QAE@ABV01@@Z12
PUBLIC	??_C@_0BA@JFNIOLAK@string?5too?5long@		; `string'
PUBLIC	??_C@_0BG@HGEDEDEC@invalid?5stoi?5argument@	; `string'
PUBLIC	??_C@_0BL@MFFNMGGC@stoi?5argument?5out?5of?5range@ ; `string'
PUBLIC	??_C@_0BG@LNNHAOEF@invalid?5stod?5argument@	; `string'
PUBLIC	??_C@_0BL@PPHDABKE@stod?5argument?5out?5of?5range@ ; `string'
PUBLIC	??_C@_0BEB@PHGDIIDD@?$LP?l?$LI?$KO?0PLACE?5MAP?4?$LF?$LJ?0?$LD?$KK?$LJ?$KL?0?$LA?$KB?A?W?0?$LL?$MA?0@ ; `string'
PUBLIC	??_C@_0KF@EKDKAKLA@?$LO?s?$LH?h?$LK?N?$MA?L?$LK?q?0?C?J?$LB?b?F?d?F?$KO?A?$LI?0?Q?$MA?0?R?$LG?0?$LJ?G?0@ ; `string'
PUBLIC	??_C@_0JP@KPEEMDJ@?$LK?N?$LK?q?0?C?J?$LB?b?F?d?F?$KO?A?$LI?0?Q?$MA?0?R?$LG?0?$LJ?G?0?p?$KE?M?A?01@ ; `string'
PUBLIC	??_C@_0JP@FFNHPH@?$LP?l?$LI?$KO?0?C?J?$LB?b?F?d?F?$KO?A?$LI?0?Q?$MA?0?R?$LG?0?$LJ?G?0?p?$KE?M?A?01@ ; `string'
PUBLIC	??_C@_0KB@EEJPPCLO@?$LK?N?$MA?L?$LK?q?0?C?J?$LB?b?F?d?F?$KO?A?$LI?0?Q?$MA?0?R?$LG?0?$LJ?G?0?p?$KE?M?A@ ; `string'
PUBLIC	??_C@_0KB@GAOJOHIC@?$LE?Y?$LA?m?$LN?$LK?0?C?J?$LB?b?F?d?F?$KO?A?$LI?0?Q?$MA?0?R?$LG?0?$LJ?G?0?p?$KE?M?A@ ; `string'
PUBLIC	??_C@_0KB@FMFIKPML@?$LB?b?$LG?s?$LF?$LH?0?C?J?$LB?b?F?d?F?$KO?A?$LI?0?Q?$MA?0?R?$LG?0?$LJ?G?0?p?$KE?M?A@ ; `string'
PUBLIC	??_C@_0KD@DHCFEDIB@?$LA?m?$LJ?$NN?D?I?$LN?$LK?0?C?J?$LB?b?F?d?F?$KO?A?$LI?0?Q?$MA?0?R?$LG?0?$LJ?G?0?p?$KE@ ; `string'
PUBLIC	??_C@_0KB@IFHAHIIH@?$MA?p?$LB?W?$LG?s?0?C?J?$LB?b?F?d?F?$KO?A?$LI?0?Q?$MA?0?R?$LG?0?$LJ?G?0?p?$KE?M?A@ ; `string'
PUBLIC	??_C@_0JP@OEIFNNBA@?$MA?p?$LB?W?0?C?J?$LB?b?F?d?F?$KO?A?$LI?0?Q?$MA?0?R?$LG?0?$LJ?G?0?p?$KE?M?A?01@ ; `string'
PUBLIC	??_C@_0JP@IKJBDMJC@?F?G?A?v?0?C?J?$LB?b?F?d?F?$KO?A?$LI?0?Q?$MA?0?R?$LG?0?$LJ?G?0?p?$KE?M?A?01@ ; `string'
PUBLIC	??_C@_0KD@FHJBKCLK@?$LE?Y?$MA?L?$LD?k?$LN?$LK?0?C?J?$LB?b?F?d?F?$KO?A?$LI?0?Q?$MA?0?R?$LG?0?$LJ?G?0?p?$KE@ ; `string'
PUBLIC	??_C@_0JP@KMIMKEBJ@?$LI?$LI?$LI?p?0?C?J?$LB?b?F?d?F?$KO?A?$LI?0?Q?$MA?0?R?$LG?0?$LJ?G?0?p?$KE?M?A?01@ ; `string'
PUBLIC	??_C@_0KB@MEDBMIKD@?$LI?$LI?$LI?p?$LI?$KD?0?C?J?$LB?b?F?d?F?$KO?A?$LI?0?Q?$MA?0?R?$LG?0?$LJ?G?0?p?$KE?M?A@ ; `string'
PUBLIC	??_C@_0KB@JNGEJCAB@?$LH?$KF?$LA?$KB?$LN?$LK?0?C?J?$LB?b?F?d?F?$KO?A?$LI?0?Q?$MA?0?R?$LG?0?$LJ?G?0?p?$KE?M?A@ ; `string'
PUBLIC	??_C@_0KB@ELOAMLCG@?D?m?$LH?N?$LH?N?0?C?J?$LB?b?F?d?F?$KO?A?$LI?0?Q?$MA?0?R?$LG?0?$LJ?G?0?p?$KE?M?A@ ; `string'
PUBLIC	??_C@_0KB@HMFIPFCH@?D?$KL?$LK?q?F?$KO?0?C?J?$LB?b?F?d?F?$KO?A?$LI?0?Q?$MA?0?R?$LG?0?$LJ?G?0?p?$KE?M?A@ ; `string'
PUBLIC	??_C@_0KB@DEPHKGHO@?$LK?R?$LB?W?$LI?$KO?0?C?J?$LB?b?F?d?F?$KO?A?$LI?0?Q?$MA?0?R?$LG?0?$LJ?G?0?p?$KE?M?A@ ; `string'
PUBLIC	??_C@_0JP@BMMHLLAJ@?E?$KF?$MA?L?0?C?J?$LB?b?F?d?F?$KO?A?$LI?0?Q?$MA?0?R?$LG?0?$LJ?G?0?p?$KE?M?A?01@ ; `string'
PUBLIC	??_C@_0KB@OKKENCJJ@?E?u?$LI?$KD?$LF?$LH?0?C?J?$LB?b?F?d?F?$KO?A?$LI?0?Q?$MA?0?R?$LG?0?$LJ?G?0?p?$KE?M?A@ ; `string'
PUBLIC	??_C@_0KB@PLHNLCNO@?$LA?m?$LI?$KD?$LA?m?0?C?J?$LB?b?F?d?F?$KO?A?$LI?0?Q?$MA?0?R?$LG?0?$LJ?G?0?p?$KE?M?A@ ; `string'
PUBLIC	??_C@_0KD@FAFIGFEC@?$LB?b?$LA?$KB?$LH?N?$LN?$LK?0?C?J?$LB?b?F?d?F?$KO?A?$LI?0?Q?$MA?0?R?$LG?0?$LJ?G?0?p?$KE@ ; `string'
PUBLIC	??_C@_0KD@CJEAIEHK@?$LA?$KB?$LA?$KB?$LH?N?$LN?$LK?0?C?J?$LB?b?F?d?F?$KO?A?$LI?0?Q?$MA?0?R?$LG?0?$LJ?G?0?p?$KE@ ; `string'
PUBLIC	??_C@_0KB@LOODAOMN@?$LH?N?$LB?b?$LO?H?0?C?J?$LB?b?F?d?F?$KO?A?$LI?0?Q?$MA?0?R?$LG?0?$LJ?G?0?p?$KE?M?A@ ; `string'
PUBLIC	??_C@_0KD@KOMLHFEN@?$LA?q?$LF?e?$LK?N?$LK?q?0?C?J?$LB?b?F?d?F?$KO?A?$LI?0?Q?$MA?0?R?$LG?0?$LJ?G?0?p?$KE@ ; `string'
PUBLIC	??_C@_0KF@ILLCIPAD@?$LA?q?$LF?e?D?$KL?$LK?q?F?$KO?0?C?J?$LB?b?F?d?F?$KO?A?$LI?0?Q?$MA?0?R?$LG?0?$LJ?G?0@ ; `string'
PUBLIC	??_C@_0KD@GOFEIDKH@?F?w?$MA?L?$LK?q?$LN?$LK?0?C?J?$LB?b?F?d?F?$KO?A?$LI?0?Q?$MA?0?R?$LG?0?$LJ?G?0?p?$KE@ ; `string'
PUBLIC	??_C@_0KD@FJBJIPNF@?$LN?G?$LJ?v?$LP?l?$LI?$KO?0?C?J?$LB?b?F?d?F?$KO?A?$LI?0?Q?$MA?0?R?$LG?0?$LJ?G?0?p?$KE@ ; `string'
PUBLIC	??_C@_0KF@JMDDFDPD@?D?$KL?E?$LI?$LI?$KD?D?$KL?$LN?$LK?0?C?J?$LB?b?F?d?F?$KO?A?$LI?0?Q?$MA?0?R?$LG?0?$LJ?G?0@ ; `string'
PUBLIC	??_C@_0KB@IPEHHGCL@?$LE?Y?$MA?L?$LD?k?0?C?J?$LB?b?F?d?F?$KO?A?$LI?0?Q?$MA?0?R?$LG?0?$LJ?G?0?p?$KE?M?A@ ; `string'
PUBLIC	??_C@_0KF@OHEDJKMP@?G?A?$LG?s?E?$LA?E?d?$LN?$LK?0?C?J?$LB?b?F?d?F?$KO?A?$LI?0?Q?$MA?0?R?$LG?0?$LJ?G?0@ ; `string'
PUBLIC	??_C@_0KD@GHBGGCA@?$LN?$LK?E?Y?E?d?$LN?$LK?0?C?J?$LB?b?F?d?F?$KO?A?$LI?0?Q?$MA?0?R?$LG?0?$LJ?G?0?p?$KE@ ; `string'
PUBLIC	??_C@_0KB@JMNIPJGL@?H?D?$LJ?Y?F?$LM?0?C?J?$LB?b?F?d?F?$KO?A?$LI?0?Q?$MA?0?R?$LG?0?$LJ?G?0?p?$KE?M?A@ ; `string'
PUBLIC	??_C@_0KD@BPBKBCLA@?$LA?m?$LI?$KD?$LA?m?$LI?$KD?0?C?J?$LB?b?F?d?F?$KO?A?$LI?0?Q?$MA?0?R?$LG?0?$LJ?G?0?p?$KE@ ; `string'
PUBLIC	??_C@_0KB@NMHIICCJ@?$LK?$KD?$LH?g?$LH?g?0?C?J?$LB?b?F?d?F?$KO?A?$LI?0?Q?$MA?0?R?$LG?0?$LJ?G?0?p?$KE?M?A@ ; `string'
PUBLIC	??_C@_0KD@BHKKJCAH@?$LD?k?$LI?$KD?$LD?k?$LI?$KD?0?C?J?$LB?b?F?d?F?$KO?A?$LI?0?Q?$MA?0?R?$LG?0?$LJ?G?0?p?$KE@ ; `string'
PUBLIC	??_C@_0KB@JNHKHAKL@?$LK?$KD?$LI?$KD?$LA?$KB?0?C?J?$LB?b?F?d?F?$KO?A?$LI?0?Q?$MA?0?R?$LG?0?$LJ?G?0?p?$KE?M?A@ ; `string'
PUBLIC	??_C@_0KB@PBKBGPGO@?$LB?W?$LI?$LA?$LA?m?$LI?$KD?0?$MA?O?$LJ?$NN?F?w?H?$LJ?0?Q?$MA?0?R?$LG?0?$LJ?G?0?p?$KE?M?A@ ; `string'
PUBLIC	??_C@_0KB@IDMKENPI@?A?$KG?$LI?$KD?A?$KG?$LI?$KD?0?$MA?O?$LJ?$NN?F?w?H?$LJ?0?Q?$MA?0?R?$LG?0?$LJ?G?0?p?$KE?M?A@ ; `string'
PUBLIC	??_C@_0KB@NLPBHLKK@?$LK?m?$LI?$KD?$LK?m?$LI?$KD?0?$MA?O?$LJ?$NN?F?w?H?$LJ?0?Q?$MA?0?R?$LG?0?$LJ?G?0?p?$KE?M?A@ ; `string'
PUBLIC	??_C@_0JP@FBADPKHO@?$LJ?$KO?$LP?o?G?A?0?$MA?O?$LJ?$NN?F?w?H?$LJ?0?Q?$MA?0?R?$LG?0?$LJ?G?0?p?$KE?M?A?01@ ; `string'
PUBLIC	??_C@_0JP@HMFNHNGB@?$LC?$LP?$LC?$LP?$LK?q?0?$MA?O?$LJ?$NN?F?w?H?$LJ?0?Q?$MA?0?R?$LG?0?$LJ?G?0?p?$KE?M?A?01@ ; `string'
PUBLIC	??_C@_0JN@FBKLMKMK@?$LP?l?G?$KK?0?$MA?O?$LJ?$NN?F?w?H?$LJ?0?Q?$MA?0?R?$LG?0?$LJ?G?0?p?$KE?M?A?0104@ ; `string'
PUBLIC	??_C@_0JP@EDFLHNFA@?F?d?$LH?g?$LH?g?0?$MA?O?$LJ?$NN?F?w?H?$LJ?0?Q?$MA?0?R?$LG?0?$LJ?G?0?p?$KE?M?A?01@ ; `string'
PUBLIC	??_C@_0KB@FJKDECAK@?G?N?$LI?$KD?G?N?$LI?$KD?0?$MA?O?$LJ?$NN?F?w?H?$LJ?0?Q?$MA?0?R?$LG?0?$LJ?G?0?p?$KE?M?A@ ; `string'
PUBLIC	??_C@_0JN@ELPKBEKC@?$LC?$LP?$LJ?L?0?$MA?O?$LJ?$NN?F?w?H?$LJ?0?Q?$MA?0?R?$LG?0?$LJ?G?0?p?$KE?M?A?0105@ ; `string'
PUBLIC	??_C@_0KB@MAKNNKPD@?$LK?$LI?$LI?$KD?$LK?q?$LN?$LK?0?$MA?O?$LJ?$NN?F?w?H?$LJ?0?Q?$MA?0?R?$LG?0?$LJ?G?0?p?$KE?M?A@ ; `string'
PUBLIC	??_C@_0KB@LAHKFEHK@?$LN?$LK?$LD?k?$LJ?V?E?$KJ?0?$MA?O?$LJ?$NN?F?w?H?$LJ?0?Q?$MA?0?R?$LG?0?$LJ?G?0?p?$KE?M?A@ ; `string'
PUBLIC	??_C@_0JP@MEPNBJEL@?$LP?$KM?$LB?b?$LD?k?0?$MA?O?$LJ?$NN?F?w?H?$LJ?0?Q?$MA?0?R?$LG?0?$LJ?G?0?p?$KE?M?A?01@ ; `string'
PUBLIC	??_C@_0JN@OCNNPOMG@?$LI?$LF?D?Z?0?$MA?O?$LJ?$NN?F?w?H?$LJ?0?Q?$MA?0?R?$LG?0?$LJ?G?0?p?$KE?M?A?0105@ ; `string'
PUBLIC	??_C@_0KB@DEBHBIFJ@?G?$KK?E?$LI?G?$KK?E?$LI?0?$MA?O?$LJ?$NN?F?w?H?$LJ?0?Q?$MA?0?R?$LG?0?$LJ?G?0?p?$KE?M?A@ ; `string'
PUBLIC	??_C@_0KD@MEPOGPLA@?D?$KL?$LI?$KD?D?$KL?$LH?N?$LF?$LH?0?$MA?O?$LJ?$NN?F?w?H?$LJ?0?Q?$MA?0?R?$LG?0?$LJ?G?0?p?$KE@ ; `string'
PUBLIC	??_C@_0KB@ODHNCOMF@?$LP?$KM?$LI?$KD?$LP?$KM?$LI?$KD?0?$MA?O?$LJ?$NN?F?w?H?$LJ?0?Q?$MA?0?R?$LG?0?$LJ?G?0?p?$KE?M?A@ ; `string'
PUBLIC	??_C@_0JP@FINNHCBG@?B?w?E?$KJ?$LH?P?0?$MA?O?$LJ?$NN?F?w?H?$LJ?0?Q?$MA?0?R?$LG?0?$LJ?G?0?p?$KE?M?A?01@ ; `string'
PUBLIC	??_C@_0JN@BFALICAF@?$LC?$LP?$LK?q?0?$MA?O?$LJ?$NN?F?w?H?$LJ?0?Q?$MA?0?R?$LG?0?$LJ?G?0?p?$KE?M?A?0104@ ; `string'
PUBLIC	??_C@_0JP@HFHHDBKD@?E?$LI?$LH?N?$LA?o?0?$MA?O?$LJ?$NN?F?w?H?$LJ?0?Q?$MA?0?R?$LG?0?$LJ?G?0?p?$KE?M?A?01@ ; `string'
PUBLIC	??_C@_0KB@FJPHFBEF@?$LO?F?$LI?$KD?$LI?$LG?$LF?t?0?$MA?O?$LJ?$NN?F?w?H?$LJ?0?Q?$MA?0?R?$LG?0?$LJ?G?0?p?$KE?M?A@ ; `string'
PUBLIC	??_C@_0JP@CHPBHDGM@?$LC?$LP?$LK?q?$LP?$MA?0?$MA?O?$LJ?$NN?F?w?H?$LJ?0?Q?$MA?0?R?$LG?0?$LJ?G?0?p?$KE?M?A?01@ ; `string'
PUBLIC	??_C@_0JN@PGABDFJK@?G?$KK?G?$KK?0?$MA?O?$LJ?$NN?F?w?H?$LJ?0?Q?$MA?0?R?$LG?0?$LJ?G?0?p?$KE?M?A?0106@ ; `string'
PUBLIC	??_C@_0JN@IGKKHPEI@?E?u?E?u?0?$MA?O?$LJ?$NN?F?w?H?$LJ?0?Q?$MA?0?R?$LG?0?$LJ?G?0?p?$KE?M?A?0106@ ; `string'
PUBLIC	??_C@_0JP@KNLCHIGM@?G?A?$MA?L?E?d?0?$MA?O?$LJ?$NN?F?w?H?$LJ?0?Q?$MA?0?R?$LG?0?$LJ?G?0?p?$KE?M?A?01@ ; `string'
PUBLIC	??_C@_0KB@NAEFHNJK@?$LI?p?$LD?$KK?$LN?C?G?A?0?$MA?O?$LJ?$NN?F?w?H?$LJ?0?Q?$MA?0?R?$LG?0?$LJ?G?0?p?$KE?M?A@ ; `string'
PUBLIC	??_C@_0JP@GOKDFFIE@?$LG?s?$LD?$KK?G?A?0?$MA?O?$LJ?$NN?F?w?H?$LJ?0?Q?$MA?0?R?$LG?0?$LJ?G?0?p?$KE?M?A?01@ ; `string'
PUBLIC	??_C@_0JP@PFPNNNKB@?$LG?s?$MA?L?H?$KF?0?$MA?O?$LJ?$NN?F?w?H?$LJ?0?Q?$MA?0?R?$LG?0?$LJ?G?0?p?$KE?M?A?01@ ; `string'
PUBLIC	??_C@_0JP@GFKEOOKB@?E?$LI?$MA?L?H?$KF?0?$MA?O?$LJ?$NN?F?w?H?$LJ?0?Q?$MA?0?R?$LG?0?$LJ?G?0?p?$KE?M?A?01@ ; `string'
PUBLIC	??_C@_0JN@IFAMADHG@?$LJ?Y?D?q?0?$MA?O?$LJ?$NN?F?w?H?$LJ?0?Q?$MA?0?R?$LG?0?$LJ?G?0?p?$KE?M?A?0106@ ; `string'
PUBLIC	??_C@_0JP@BGMJNCKF@?$LA?$KB?$LA?m?$MA?O?0?$MA?O?$LJ?$NN?F?w?H?$LJ?0?Q?$MA?0?R?$LG?0?$LJ?G?0?p?$KE?M?A?01@ ; `string'
PUBLIC	??_C@_0JP@CICIDJAN@?$LN?$LK?G?G?$LP?B?0?$MA?O?$LJ?$NN?F?w?H?$LJ?0?Q?$MA?0?R?$LG?0?$LJ?G?0?p?$KE?M?A?01@ ; `string'
PUBLIC	??_C@_0KB@CGHMPGEK@?E?d?$LG?s?F?$LM?$LN?$LK?0?$MA?O?$LJ?$NN?F?w?H?$LJ?0?Q?$MA?0?R?$LG?0?$LJ?G?0?p?$KE?M?A@ ; `string'
PUBLIC	??_C@_0JP@BFKIJMHM@?$LA?m?$LI?$KD?$LF?$LH?0?$MA?O?$LJ?$NN?F?w?H?$LJ?0?Q?$MA?0?R?$LG?0?$LJ?G?0?p?$KE?M?A?01@ ; `string'
PUBLIC	??_C@_0JP@FAONMNPE@?$LI?$KO?$LK?q?$LD?k?0?$MA?O?$LJ?$NN?F?w?H?$LJ?0?Q?$MA?0?R?$LG?0?$LJ?G?0?p?$KE?M?A?01@ ; `string'
PUBLIC	??_C@_0JP@OJNLOGMJ@?$LJ?$NN?$LB?b?$LD?k?0?$MA?O?$LJ?$NN?F?w?H?$LJ?0?Q?$MA?0?R?$LG?0?$LJ?G?0?p?$KE?M?A?01@ ; `string'
PUBLIC	??_C@_0KB@IHLJFJAD@?$LF?$KF?$LK?m?$LH?N?$LN?$LK?0?$MA?O?$LJ?$NN?F?w?H?$LJ?0?Q?$MA?0?R?$LG?0?$LJ?G?0?p?$KE?M?A@ ; `string'
PUBLIC	??_C@_0JP@JGPKBAOE@?$LG?s?$LA?m?$LA?m?0?$MA?O?$LJ?$NN?F?w?H?$LJ?0?Q?$MA?0?R?$LG?0?$LJ?G?0?p?$KE?M?A?01@ ; `string'
PUBLIC	??_C@_0JP@DGNAHMOC@?$LO?a?$LB?b?$LH?N?0?$MA?O?$LJ?$NN?F?w?H?$LJ?0?Q?$MA?0?R?$LG?0?$LJ?G?0?p?$KE?M?A?01@ ; `string'
PUBLIC	??_C@_0JP@MEMBJGCI@?$LJ?$NN?$LK?$LI?$LH?N?0?$MA?O?$LJ?$NN?F?w?H?$LJ?0?Q?$MA?0?R?$LG?0?$LJ?G?0?p?$KE?M?A?01@ ; `string'
PUBLIC	??_C@_0KB@PDCLFBIF@?$LF?$LF?$LG?s?$LK?q?$LN?$LK?0?$MA?O?$LJ?$NN?F?w?H?$LJ?0?Q?$MA?0?R?$LG?0?$LJ?G?0?p?$KE?M?A@ ; `string'
PUBLIC	??_C@_0JN@GDAKMJGN@?$LK?$LM?D?I?0?$MA?O?$LJ?$NN?F?w?H?$LJ?0?Q?$MA?0?R?$LG?0?$LJ?G?0?p?$KE?M?A?0108@ ; `string'
PUBLIC	??_C@_0JP@FHOOLLHN@?$LK?N?$LI?$KD?$LF?$LH?0?$MA?O?$LJ?$NN?F?w?H?$LJ?0?Q?$MA?0?R?$LG?0?$LJ?G?0?p?$KE?M?A?01@ ; `string'
PUBLIC	??_C@_0JN@MNDNNCOA@?$LJ?$KL?$MA?L?0?$MA?O?$LJ?$NN?F?w?H?$LJ?0?Q?$MA?0?R?$LG?0?$LJ?G?0?p?$KE?M?A?0108@ ; `string'
PUBLIC	??_C@_0JP@NOMJECMI@?$LI?p?$LD?$KK?E?d?0?$MA?O?$LJ?$NN?F?w?H?$LJ?0?Q?$MA?0?R?$LG?0?$LJ?G?0?p?$KE?M?A?01@ ; `string'
PUBLIC	??_C@_0KD@OIIPDMOH@?$LF?$KF?$LK?t?$LJ?Y?$LH?N?$LN?$LK?0?$MA?O?$LJ?$NN?F?w?H?$LJ?0?Q?$MA?0?R?$LG?0?$LJ?G?0?p?$KE@ ; `string'
PUBLIC	??_C@_0JN@DIJDPDOO@?A?v?$LJ?$NP?$LI?$KO?0?D?y?$LN?$LK?F?$KO?0?Q?$MA?0?R?$LG?0?$LJ?G?0?p?$KE?M?A?0109@ ; `string'
PUBLIC	??_C@_0JN@BNKAMCGL@?F?D?$LI?$KD?C?$LM?0?D?y?$LN?$LK?F?$KO?0?Q?$MA?0?R?$LG?0?$LJ?G?0?p?$KE?M?A?0109@ ; `string'
PUBLIC	??_C@_0JN@JFPNPOI@?$LA?q?$LH?N?$LN?$LK?0?D?y?$LN?$LK?F?$KO?0?Q?$MA?0?R?$LG?0?$LJ?G?0?p?$KE?M?A?0109@ ; `string'
PUBLIC	??_C@_0JN@NBKLKIAF@?$LL?$PO?$LI?$KD?C?$LM?0?D?y?$LN?$LK?F?$KO?0?Q?$MA?0?R?$LG?0?$LJ?G?0?p?$KE?M?A?0109@ ; `string'
PUBLIC	??_C@_0JN@BGAIEFHO@?$LN?$LE?$LJ?$NP?$LI?$KO?0?D?y?$LN?$LK?F?$KO?0?Q?$MA?0?R?$LG?0?$LJ?G?0?p?$KE?M?A?0109@ ; `string'
PUBLIC	??_C@_0KB@OEABKKAM@?$LO?n?$LN?$LK?$LF?e?$LH?$KB?$LA?o?0?D?y?$LN?$LK?F?$KO?0?Q?$MA?0?R?$LG?0?$LJ?G?0?p?$KE?M?A@ ; `string'
PUBLIC	??_C@_0JN@ILGHAEKC@?F?D?$LO?F?$LG?u?0?$LH?$LJ?$MA?L?$LF?e?0?Q?$MA?0?R?$LG?0?$LJ?G?0?p?$KE?M?A?0110@ ; `string'
PUBLIC	??_C@_0JN@CCIPNIBP@?$LJ?i?$LP?$KJ?$LP?l?0?$LH?$LJ?$MA?L?$LF?e?0?Q?$MA?0?R?$LG?0?$LJ?G?0?p?$KE?M?A?0110@ ; `string'
PUBLIC	??_C@_0JN@BPELNIKH@?E?$LH?$LP?l?$LI?$KO?0?$LH?$LJ?$MA?L?$LF?e?0?Q?$MA?0?R?$LG?0?$LJ?G?0?p?$KE?M?A?0110@ ; `string'
PUBLIC	??_C@_0JP@MBNLFJCI@?$LO?F?D?Z?$LH?N?$LK?q?0?$LH?$LJ?$MA?L?$LF?e?0?Q?$MA?0?R?$LG?0?$LJ?G?0?p?$KE?M?A?01@ ; `string'
PUBLIC	??_C@_0JN@FLCDOGAF@?G?$KK?$LH?N?$LK?q?0?$LH?$LJ?$MA?L?$LF?e?0?Q?$MA?0?R?$LG?0?$LJ?G?0?p?$KE?M?A?0111@ ; `string'
PUBLIC	??_C@_0JL@MOGECICJ@?H?$KN?$LH?f?0?$LH?$LJ?$MA?L?$LF?e?0?Q?$MA?0?R?$LG?0?$LJ?G?0?p?$KE?M?A?01105?0@ ; `string'
PUBLIC	??_C@_0KA@LFBHCBA@?F?D?$MA?L?$LD?k?$LF?$LH?0?$LH?$LJ?$MA?L?$LF?e?0?Q?$MA?0?R?$LG?0?$LJ?G?0?p?$KE?M?A?01@ ; `string'
PUBLIC	??_C@_0JN@MONEIGJK@?G?$KK?$LP?l?$LI?$KO?0?$LH?$LJ?$MA?L?$LF?e?0?Q?$MA?0?R?$LG?0?$LJ?G?0?p?$KE?M?A?0110@ ; `string'
PUBLIC	??_C@_0JP@CCBFELAL@?$LN?N?$MA?L?E?$KM?$LH?P?0?$LH?$LJ?$MA?L?$LF?e?0?Q?$MA?0?R?$LG?0?$LJ?G?0?p?$KE?M?A?01@ ; `string'
PUBLIC	??_C@_0JN@ICNEKKDJ@?$LP?U?E?d?$LD?$KC?0?$LH?$LJ?$MA?L?$LF?e?0?Q?$MA?0?R?$LG?0?$LJ?G?0?p?$KE?M?A?0110@ ; `string'
PUBLIC	??_C@_0JL@EHOJKPEL@?H?f?$LH?f?0?$LH?$LJ?$MA?L?$LF?e?0?Q?$MA?0?R?$LG?0?$LJ?G?0?p?$KE?M?A?01106?0@ ; `string'
PUBLIC	??_C@_0JN@EBPADHFI@?E?$LH?$LG?s?D?m?0?$LH?$LJ?$MA?L?$LF?e?0?Q?$MA?0?R?$LG?0?$LJ?G?0?p?$KE?M?A?0110@ ; `string'
PUBLIC	??_C@_0JP@NBFAAMLM@?$LP?$MA?$LA?$KB?$LH?N?$LN?$LK?0?$LH?$LJ?$MA?L?$LF?e?0?Q?$MA?0?R?$LG?0?$LJ?G?0?p?$KE?M?A?01@ ; `string'
PUBLIC	??_C@_0JN@MMOKAHCP@?$LP?$MA?$LI?$KD?$LA?o?0?$LH?$LJ?$MA?L?$LF?e?0?Q?$MA?0?R?$LG?0?$LJ?G?0?p?$KE?M?A?0111@ ; `string'
PUBLIC	??_C@_0JN@CEINFIMD@?H?f?$LB?b?$LI?$LA?0?$LH?$LJ?$MA?L?$LF?e?0?Q?$MA?0?R?$LG?0?$LJ?G?0?p?$KE?M?A?0111@ ; `string'
PUBLIC	??_C@_0JP@GCPPLAIH@?$LO?F?$LI?$KD?$LI?$LG?$LH?g?0?$LH?$LJ?$MA?L?$LF?e?0?Q?$MA?0?R?$LG?0?$LJ?G?0?p?$KE?M?A?01@ ; `string'
PUBLIC	??_C@_0JN@PIHNBICJ@?$LD?k?$LI?$KD?$LA?o?0?$LH?$LJ?$MA?L?$LF?e?0?Q?$MA?0?R?$LG?0?$LJ?G?0?p?$KE?M?A?0111@ ; `string'
PUBLIC	??_C@_0JP@GJPGBBNP@?$LK?$KD?$LI?$KD?G?$KK?$LN?$LK?0?$LH?$LJ?$MA?L?$LF?e?0?Q?$MA?0?R?$LG?0?$LJ?G?0?p?$KE?M?A?01@ ; `string'
PUBLIC	??_C@_0JN@JEELHOGN@?$LH?N?$LF?$KF?$LP?$MA?0?$LH?$LJ?$MA?L?$LF?e?0?Q?$MA?0?R?$LG?0?$LJ?G?0?p?$KE?M?A?0111@ ; `string'
PUBLIC	??_C@_0JP@DGJMPNAI@?G?N?$LA?$KB?$LH?N?$LN?$LK?0?$LH?$LJ?$MA?L?$LF?e?0?Q?$MA?0?R?$LG?0?$LJ?G?0?p?$KE?M?A?01@ ; `string'
PUBLIC	??_C@_0JL@NMBKGKOJ@?$LJ?i?H?$KD?0?$LH?$LJ?$MA?L?$LF?e?0?Q?$MA?0?R?$LG?0?$LJ?G?0?p?$KE?M?A?01118?0@ ; `string'
PUBLIC	??_C@_0KB@KJICJDFM@?$LD?k?$LK?O?$MA?L?0?A?$KC?$LM?S?F?w?$MA?N?F?$KO?0?Q?$MA?0?R?$LG?0?$LJ?G?0?p?$KE?M?A@ ; `string'
PUBLIC	??_C@_0JP@NPHJPJHC@?$LK?O?$MA?L?0?A?$KC?$LM?S?F?w?$MA?N?F?$KO?0?Q?$MA?0?R?$LG?0?$LJ?G?0?p?$KE?M?A?01@ ; `string'
PUBLIC	??_C@_0KB@FDELLLNA@?$LB?x?$LK?O?$MA?L?0?A?$KC?$LM?S?F?w?$MA?N?F?$KO?0?Q?$MA?0?R?$LG?0?$LJ?G?0?p?$KE?M?A@ ; `string'
PUBLIC	??_C@_0KB@CJKALKNL@?$LF?$LJ?$LK?O?$MA?L?0?A?$KC?$LM?S?F?w?$MA?N?F?$KO?0?Q?$MA?0?R?$LG?0?$LJ?G?0?p?$KE?M?A@ ; `string'
PUBLIC	??_C@_0KB@GNLNEJBJ@?$LK?m?$LH?$KC?F?$NO?0?A?$KC?$LM?S?F?w?$MA?N?F?$KO?0?Q?$MA?0?R?$LG?0?$LJ?G?0?p?$KE?M?A@ ; `string'
PUBLIC	??_C@_0KD@JKCDJKBL@?$LD?k?$LI?$KD?$LA?$KB?$LI?$KD?0?A?$KC?$LM?S?F?w?$MA?N?F?$KO?0?Q?$MA?0?R?$LG?0?$LJ?G?0?p?$KE@ ; `string'
PUBLIC	??_C@_0KD@JCGDCMIM@?$LK?$KD?$LI?$KD?$LA?$KB?$LI?$KD?0?A?$KC?$LM?S?F?w?$MA?N?F?$KO?0?Q?$MA?0?R?$LG?0?$LJ?G?0?p?$KE@ ; `string'
PUBLIC	??_C@_0KD@DABNBCI@?$LK?$KD?$LH?g?$LA?$KB?$LI?$KD?0?A?$KC?$LM?S?F?w?$MA?N?F?$KO?0?Q?$MA?0?R?$LG?0?$LJ?G?0?p?$KE@ ; `string'
PUBLIC	??_C@_0KD@IGKMHOKA@?$LA?m?$LI?$KD?$LA?$KB?$LI?$KD?0?A?$KC?$LM?S?F?w?$MA?N?F?$KO?0?Q?$MA?0?R?$LG?0?$LJ?G?0?p?$KE@ ; `string'
PUBLIC	??_C@_0KF@OOJOHLOC@?$LB?W?$LI?$LA?$LJ?Y?$LH?N?$LN?$LK?0?A?$KC?$LM?S?F?w?$MA?N?F?$KO?0?Q?$MA?0?R?$LG?0?$LJ?G?0@ ; `string'
PUBLIC	??_C@_0KD@EDHGEGHL@?$LI?p?$LA?$KB?$LH?N?$LN?$LK?0?A?$KC?$LM?S?F?w?$MA?N?F?$KO?0?Q?$MA?0?R?$LG?0?$LJ?G?0?p?$KE@ ; `string'
PUBLIC	??_C@_0KD@KECLOPNP@?$MA?L?$LB?$LI?$LH?N?$LN?$LK?0?A?$KC?$LM?S?F?w?$MA?N?F?$KO?0?Q?$MA?0?R?$LG?0?$LJ?G?0?p?$KE@ ; `string'
PUBLIC	??_C@_0JN@LEKEFLMO@?F?D?$LI?$KD?$LA?o?0DP?F?d?F?$KO?0?Q?$MA?0?R?$LG?0?$LJ?G?0?p?$KE?M?A?0120@ ; `string'
PUBLIC	??_C@_0JN@HIHDBNLA@?D?$KO?$LH?N?$LN?$LK?0DP?F?d?F?$KO?0?Q?$MA?0?R?$LG?0?$LJ?G?0?p?$KE?M?A?0120@ ; `string'
PUBLIC	??_C@_0JL@JDIFMCPB@?$LO?F?$LI?$KO?0DP?F?d?F?$KO?0?Q?$MA?0?R?$LG?0?$LJ?G?0?p?$KE?M?A?01203?0@ ; `string'
PUBLIC	??_C@_0JN@ENIFJLFC@?$LK?$KD?$LG?s?$LG?s?0DP?F?d?F?$KO?0?Q?$MA?0?R?$LG?0?$LJ?G?0?p?$KE?M?A?0120@ ; `string'
PUBLIC	??_C@_0JN@GBJAEFHP@?$LF?$KI?G?$KK?$LN?$LK?0DP?F?d?F?$KO?0?Q?$MA?0?R?$LG?0?$LJ?G?0?p?$KE?M?A?0120@ ; `string'
PUBLIC	??_C@_0JN@PEPAPEEG@?$LJ?Y?$LH?N?$LN?$LK?0DP?F?d?F?$KO?0?Q?$MA?0?R?$LG?0?$LJ?G?0?p?$KE?M?A?0120@ ; `string'
PUBLIC	??_C@_0JP@EBIOBIJE@?$LE?Y?$MA?L?G?G?$LD?k?0DP?F?d?F?$KO?0?Q?$MA?0?R?$LG?0?$LJ?G?0?p?$KE?M?A?01@ ; `string'
PUBLIC	??_C@_0JP@HPANJJGK@?$LK?$LL?$LF?e?$LH?$KB?$LA?o?0DP?F?d?F?$KO?0?Q?$MA?0?R?$LG?0?$LJ?G?0?p?$KE?M?A?01@ ; `string'
PUBLIC	??_C@_0JN@OEDFFPDP@?A?$KG?$LI?$KD?$LA?$KB?0DP?F?d?F?$KO?0?Q?$MA?0?R?$LG?0?$LJ?G?0?p?$KE?M?A?0120@ ; `string'
PUBLIC	??_C@_0JL@GILNPGEG@?$LM?$LD?G?$KF?0DP?F?d?F?$KO?0?Q?$MA?0?R?$LG?0?$LJ?G?0?p?$KE?M?A?01208?0@ ; `string'
PUBLIC	??_C@_0JN@IAGFAGON@?$LK?$LM?G?A?0?$LK?$LJ?$LB?G?F?d?F?$KO?0?Q?$MA?0?R?$LG?0?$LJ?G?0?p?$KE?M?A?0114@ ; `string'
PUBLIC	??_C@_0JN@IFFCNEPO@?E?$LI?E?$LA?0?$LK?$LJ?$LB?G?F?d?F?$KO?0?Q?$MA?0?R?$LG?0?$LJ?G?0?p?$KE?M?A?0113@ ; `string'
PUBLIC	??_C@_0JN@BOLMMEAL@?D?m?D?m?0?$LK?$LJ?$LB?G?F?d?F?$KO?0?Q?$MA?0?R?$LG?0?$LJ?G?0?p?$KE?M?A?0113@ ; `string'
PUBLIC	??_C@_0JP@OPNIJNNM@?$LB?b?$LH?N?$LN?$LK?0?$LK?$LJ?$LB?G?F?d?F?$KO?0?Q?$MA?0?R?$LG?0?$LJ?G?0?p?$KE?M?A?01@ ; `string'
PUBLIC	??_C@_0JN@GMPAGABB@?$LK?q?$LD?k?0?$LK?$LJ?$LB?G?F?d?F?$KO?0?Q?$MA?0?R?$LG?0?$LJ?G?0?p?$KE?M?A?0113@ ; `string'
PUBLIC	??_C@_0JN@GEAKGKEI@?$LB?b?$LH?N?0?$LK?$LJ?$LB?G?F?d?F?$KO?0?Q?$MA?0?R?$LG?0?$LJ?G?0?p?$KE?M?A?0113@ ; `string'
PUBLIC	??_C@_0JN@HBKKKGMD@?$LB?b?$LD?k?0?$LK?$LJ?$LB?G?F?d?F?$KO?0?Q?$MA?0?R?$LG?0?$LJ?G?0?p?$KE?M?A?0113@ ; `string'
PUBLIC	??_C@_0JN@BKCKBDLE@?$LI?$KD?$LF?$LH?0?$LK?$LJ?$LB?G?F?d?F?$KO?0?Q?$MA?0?R?$LG?0?$LJ?G?0?p?$KE?M?A?0113@ ; `string'
PUBLIC	??_C@_0JN@NOIGKNDK@?$LK?$LI?$LH?N?0?$LK?$LJ?$LB?G?F?d?F?$KO?0?Q?$MA?0?R?$LG?0?$LJ?G?0?p?$KE?M?A?0113@ ; `string'
PUBLIC	??_C@_0KB@JDOOBOGB@?$LL?g?$MA?L?$LH?O?$LN?$LK?0?$LK?$LJ?$LB?G?F?d?F?$KO?0?Q?$MA?0?R?$LG?0?$LJ?G?0?p?$KE?M?A@ ; `string'
PUBLIC	??_C@_0JP@NIJNMKBJ@?$LO?F?$LI?$LG?$LG?u?0?$LK?$LJ?$LB?G?F?d?F?$KO?0?Q?$MA?0?R?$LG?0?$LJ?G?0?p?$KE?M?A?01@ ; `string'
PUBLIC	??_C@_0JP@BAGDPKOL@?$LA?m?$LP?$MA?$LE?Y?0?$LK?$LJ?$LB?G?F?d?F?$KO?0?Q?$MA?0?R?$LG?0?$LJ?G?0?p?$KE?M?A?01@ ; `string'
PUBLIC	??_C@_0JN@KHHHMFJE@?D?$KL?E?$LA?0?$LK?$LJ?$LB?G?F?d?F?$KO?0?Q?$MA?0?R?$LG?0?$LJ?G?0?p?$KE?M?A?0114@ ; `string'
PUBLIC	??_C@_0KB@FKIJLHDO@?$LF?$LF?$LI?$KD?$LF?$LF?$LI?$KD?0?$LK?$LJ?$LB?G?F?d?F?$KO?0?Q?$MA?0?R?$LG?0?$LJ?G?0?p?$KE?M?A@ ; `string'
PUBLIC	??_C@_0KB@HNPJAEFN@?$LO?F?$LI?$LG?$LG?u?$LN?$LK?0?$LK?$LJ?$LB?G?F?d?F?$KO?0?Q?$MA?0?R?$LG?0?$LJ?G?0?p?$KE?M?A@ ; `string'
PUBLIC	??_C@_0JP@NEPJIOFK@?E?W?$LI?$KD?$LA?$KB?0?$LK?$LJ?$LB?G?F?d?F?$KO?0?Q?$MA?0?R?$LG?0?$LJ?G?0?p?$KE?M?A?01@ ; `string'
PUBLIC	??_C@_0JP@HEGNBEON@?G?N?$LG?s?$LG?s?0?$LK?$LJ?$LB?G?F?d?F?$KO?0?Q?$MA?0?R?$LG?0?$LJ?G?0?p?$KE?M?A?01@ ; `string'
PUBLIC	??_C@_0KB@ELHLPOIA@?$LB?b?$LA?h?D?$KL?E?$LA?0?$LK?$LJ?$LB?G?F?d?F?$KO?0?Q?$MA?0?R?$LG?0?$LJ?G?0?p?$KE?M?A@ ; `string'
PUBLIC	??_C@_0JP@HHJPKMF@?H?$KD?$LI?$KD?D?m?0?$LK?$LJ?$LB?G?F?d?F?$KO?0?Q?$MA?0?R?$LG?0?$LJ?G?0?p?$KE?M?A?01@ ; `string'
PUBLIC	??_C@_0JP@LNMAFKK@?H?f?D?$KL?E?$LA?0?$LK?$LJ?$LB?G?F?d?F?$KO?0?Q?$MA?0?R?$LG?0?$LJ?G?0?p?$KE?M?A?01@ ; `string'
PUBLIC	??_C@_0KB@BMGPNGFO@?$LB?W?$LI?$KO?G?A?$LN?$LK?0?$LK?$LJ?$LB?G?F?d?F?$KO?0?Q?$MA?0?R?$LG?0?$LJ?G?0?p?$KE?M?A@ ; `string'
PUBLIC	??_C@_0JP@KHJHJFMB@?$LK?m?$LH?g?$LH?g?0?$LK?$LJ?$LB?G?F?d?F?$KO?0?Q?$MA?0?R?$LG?0?$LJ?G?0?p?$KE?M?A?01@ ; `string'
PUBLIC	??_C@_0KB@HLAKAOIE@?C?J?$LI?$KD?C?J?$LI?$KD?0?$LK?$LJ?$LB?G?F?d?F?$KO?0?Q?$MA?0?R?$LG?0?$LJ?G?0?p?$KE?M?A@ ; `string'
PUBLIC	??_C@_0KE@LKPMCNHL@?$LO?F?$MA?L?$LN?$LK?$LF?e?$LH?$KB?$LA?o?0VIP?F?d?F?$KO?0?Q?$MA?0?R?$LG?0?$LJ?G?0?p@ ; `string'
PUBLIC	??_C@_0JM@IOBOIFDM@?G?v?$LJ?$KL?0VIP?F?d?F?$KO?0?Q?$MA?0?R?$LG?0?$LJ?G?0?p?$KE?M?A?01212@ ; `string'
PUBLIC	??_C@_0JM@IEPJLMMD@?G?X?E?B?0VIP?F?d?F?$KO?0?Q?$MA?0?R?$LG?0?$LJ?G?0?p?$KE?M?A?01220@ ; `string'
PUBLIC	??_C@_0JM@DFGACOLO@?C?$LL?$LH?f?0VIP?F?d?F?$KO?0?Q?$MA?0?R?$LG?0?$LJ?G?0?p?$KE?M?A?01224@ ; `string'
PUBLIC	??_C@_0JO@PFOFGFBN@?$LN?$LK?G?G?$LD?k?0VIP?F?d?F?$KO?0?Q?$MA?0?R?$LG?0?$LJ?G?0?p?$KE?M?A?012@ ; `string'
PUBLIC	??_C@_0KC@CDHLMIF@?$LD?$KK?$LK?q?$LF?e?$LH?$KB?$LA?o?0VIP?F?d?F?$KO?0?Q?$MA?0?R?$LG?0?$LJ?G?0?p?$KE?M@ ; `string'
PUBLIC	??_C@_0KI@GIDBOEEB@?F?D?$MA?L?$LO?n?E?$LH?$LN?$LK?$LF?e?$LH?$KB?$LA?o?0VIP?F?d?F?$KO?0?Q?$MA?0?R?$LG?0@ ; `string'
PUBLIC	??_C@_0JM@DKGFNMLE@?A?V?$MA?$NL?0VIP?F?d?F?$KO?0?Q?$MA?0?R?$LG?0?$LJ?G?0?p?$KE?M?A?01217@ ; `string'
PUBLIC	??_C@_0JM@HLCDGEFN@?$LA?m?$LH?N?0VIP?F?d?F?$KO?0?Q?$MA?0?R?$LG?0?$LJ?G?0?p?$KE?M?A?01218@ ; `string'
PUBLIC	??_C@_0KA@GPNNKMEK@?D?$KL?$LA?$KB?$LH?N?$LN?$LK?0VIP?F?d?F?$KO?0?Q?$MA?0?R?$LG?0?$LJ?G?0?p?$KE?M?A?0@ ; `string'
PUBLIC	??_C@_0JM@JKJHBIOG@?G?X?D?$KB?0VIP?F?d?F?$KO?0?Q?$MA?0?R?$LG?0?$LJ?G?0?p?$KE?M?A?01221@ ; `string'
PUBLIC	??_C@_0KA@DOIHOKCF@?$LH?$LJ?$LF?e?$LI?$KO?$LP?B?0VIP?F?d?F?$KO?0?Q?$MA?0?R?$LG?0?$LJ?G?0?p?$KE?M?A?0@ ; `string'
PUBLIC	??_C@_0KA@LPIBLNCP@?$LB?$LI?$LH?g?$LI?$LG?$LH?g?0VIP?F?d?F?$KO?0?Q?$MA?0?R?$LG?0?$LJ?G?0?p?$KE?M?A?0@ ; `string'
PUBLIC	??_C@_0JM@CENMAEDN@?F?f?$LI?$KO?0VIP?F?d?F?$KO?0?Q?$MA?0?R?$LG?0?$LJ?G?0?p?$KE?M?A?01214@ ; `string'
PUBLIC	??_C@_0KG@CAHAOIGK@?$LI?$NO?E?$LL?$LL?g?$LH?N?$LH?$LJ?$MA?$PM?$LF?e?0VIP?F?d?F?$KO?0?Q?$MA?0?R?$LG?0?$LJ?G@ ; `string'
PUBLIC	??_C@_0JM@HLBHNPGN@?G?$LD?$LJ?i?0VIP?F?d?F?$KO?0?Q?$MA?0?R?$LG?0?$LJ?G?0?p?$KE?M?A?01225@ ; `string'
PUBLIC	??_C@_0JO@MDAEOHAO@?$LE?Y?E?$KJ?$LH?P?0VIP?F?d?F?$KO?0?Q?$MA?0?R?$LG?0?$LJ?G?0?p?$KE?M?A?012@ ; `string'
PUBLIC	??_C@_0JO@JNIIHGMI@?$LH?$LJ?G?G?$LP?B?0VIP?F?d?F?$KO?0?Q?$MA?0?R?$LG?0?$LJ?G?0?p?$KE?M?A?012@ ; `string'
PUBLIC	??_C@_0JO@MEICCIJD@?F?$LM?$LH?$LK?$LN?$LK?0VIP?F?d?F?$KO?0?Q?$MA?0?R?$LG?0?$LJ?G?0?p?$KE?M?A?012@ ; `string'
PUBLIC	??_C@_0KC@CFFOFIDL@?$LK?m?$LH?$KC?$LF?e?$LH?$KB?$LA?o?0VIP?F?d?F?$KO?0?Q?$MA?0?R?$LG?0?$LJ?G?0?p?$KE?M@ ; `string'
PUBLIC	??_C@_0JO@JHLHLKPK@?D?$KL?$LP?l?$LA?E?0VIP?F?d?F?$KO?0?Q?$MA?0?R?$LG?0?$LJ?G?0?p?$KE?M?A?012@ ; `string'
PUBLIC	??_C@_0JO@FPHCPBKF@?E?$KJ?$LH?g?$LA?E?0VIP?F?d?F?$KO?0?Q?$MA?0?R?$LG?0?$LJ?G?0?p?$KE?M?A?012@ ; `string'
PUBLIC	??_C@_0KC@ICCCBHJN@?$LO?F?$MA?L?$LN?$LK?$LI?$LI?$LI?p?0VIP?F?d?F?$KO?0?Q?$MA?0?R?$LG?0?$LJ?G?0?p?$KE?M@ ; `string'
PUBLIC	??_C@_0JO@BDOGBCBM@?$LJ?Y?$LP?l?F?$KO?0VIP?F?d?F?$KO?0?Q?$MA?0?R?$LG?0?$LJ?G?0?p?$KE?M?A?012@ ; `string'
PUBLIC	??_C@_0KA@NAPJDBPO@?$LG?s?$LB?W?$LD?k?$LN?$LK?0VIP?F?d?F?$KO?0?Q?$MA?0?R?$LG?0?$LJ?G?0?p?$KE?M?A?0@ ; `string'
PUBLIC	??_C@_0JO@IEEADIKO@?E?$KJ?$LH?N?E?f?0VIP?F?d?F?$KO?0?Q?$MA?0?R?$LG?0?$LJ?G?0?p?$KE?M?A?012@ ; `string'
PUBLIC	??_C@_0JO@PNAJMPLG@?$LA?$KF?G?$KK?$LN?$LK?0VIP?F?d?F?$KO?0?Q?$MA?0?R?$LG?0?$LJ?G?0?p?$KE?M?A?012@ ; `string'
PUBLIC	??_C@_0JO@ECDEIDLH@?$LP?o?G?$KK?$LN?$LK?0VIP?F?d?F?$KO?0?Q?$MA?0?R?$LG?0?$LJ?G?0?p?$KE?M?A?012@ ; `string'
PUBLIC	??_C@_0JO@PCDOGNMH@?$LL?$PO?E?$KJ?$LH?P?0VIP?F?d?F?$KO?0?Q?$MA?0?R?$LG?0?$LJ?G?0?p?$KE?M?A?012@ ; `string'
PUBLIC	??_C@_0KA@KEBFIINA@?$LA?q?$LF?e?$LH?N?$LK?q?0VIP?F?d?F?$KO?0?Q?$MA?0?R?$LG?0?$LJ?G?0?p?$KE?M?A?0@ ; `string'
PUBLIC	??_C@_0KA@FEHOPLGA@?F?d?$LA?$KB?$LM?v?$LN?$LK?0VIP?F?d?F?$KO?0?Q?$MA?0?R?$LG?0?$LJ?G?0?p?$KE?M?A?0@ ; `string'
PUBLIC	??_C@_0KC@OAEKGKHI@?$LA?q?$LF?e?$LF?e?$LH?$KB?$LA?o?0VIP?F?d?F?$KO?0?Q?$MA?0?R?$LG?0?$LJ?G?0?p?$KE?M@ ; `string'
PUBLIC	??_C@_0KC@NNNHPLAK@?$LE?Y?E?$KJ?$LJ?Y?$LH?N?$LN?$LK?0VIP?F?d?F?$KO?0?Q?$MA?0?R?$LG?0?$LJ?G?0?p?$KE?M@ ; `string'
PUBLIC	??_C@_0JO@ELALCKNF@?$LF?p?$LO?n?$LH?i?0VIP?F?d?F?$KO?0?Q?$MA?0?R?$LG?0?$LJ?G?0?p?$KE?M?A?012@ ; `string'
PUBLIC	??_C@_0KA@KKCNDBNO@?$LO?F?$LN?$LK?E?$LI?$LH?N?0VIP?F?d?F?$KO?0?Q?$MA?0?R?$LG?0?$LJ?G?0?p?$KE?M?A?0@ ; `string'
PUBLIC	??_C@_0JM@PCCFNNED@?$LB?b?$LI?$LA?0VIP?F?d?F?$KO?0?Q?$MA?0?R?$LG?0?$LJ?G?0?p?$KE?M?A?01245@ ; `string'
PUBLIC	??_C@_0JO@KKEJHFPK@?$LL?$PO?$LP?l?F?$KO?0VIP?F?d?F?$KO?0?Q?$MA?0?R?$LG?0?$LJ?G?0?p?$KE?M?A?012@ ; `string'
PUBLIC	??_C@_0KA@CNHBBDND@?H?$KN?$MA?L?E?d?$LN?$LK?0VIP?F?d?F?$KO?0?Q?$MA?0?R?$LG?0?$LJ?G?0?p?$KE?M?A?0@ ; `string'
PUBLIC	??_C@_0JF@KFFIDIKE@C?$LD?W?$LA?m?$LN?$LK?0?H?$KP?$LL?$PN?F?d?F?$KO?0?Q?$MA?0?R?$LG?0?$LJ?G?0?p?$KE?M?A?0@ ; `string'
PUBLIC	??_C@_0JJ@OOIAPBOP@C?$LO?s?$LH?h?$LK?N?$MA?L?$LK?q?0?H?$KP?$LL?$PN?F?d?F?$KO?0?Q?$MA?0?R?$LG?0?$LJ?G?0?p@ ; `string'
PUBLIC	??_C@_0JD@NKGMKJML@C?$LK?N?$LK?q?0?H?$KP?$LL?$PN?F?d?F?$KO?0?Q?$MA?0?R?$LG?0?$LJ?G?0?p?$KE?M?A?020@ ; `string'
PUBLIC	??_C@_0JD@CDHKNLMG@C?$LP?l?$LI?$KO?0?H?$KP?$LL?$PN?F?d?F?$KO?0?Q?$MA?0?R?$LG?0?$LJ?G?0?p?$KE?M?A?020@ ; `string'
PUBLIC	??_C@_0JF@JHJOLKOP@C?$LK?N?$MA?L?$LK?q?0?H?$KP?$LL?$PN?F?d?F?$KO?0?Q?$MA?0?R?$LG?0?$LJ?G?0?p?$KE?M?A?0@ ; `string'
PUBLIC	??_C@_0JF@ODCPAOHH@C?$LE?Y?$LA?m?$LN?$LK?0?H?$KP?$LL?$PN?F?d?F?$KO?0?Q?$MA?0?R?$LG?0?$LJ?G?0?p?$KE?M?A?0@ ; `string'
PUBLIC	??_C@_0JF@NPNGJADJ@C?$LB?b?$LG?s?$LF?$LH?0?H?$KP?$LL?$PN?F?d?F?$KO?0?Q?$MA?0?R?$LG?0?$LJ?G?0?p?$KE?M?A?0@ ; `string'
PUBLIC	??_C@_0JH@EFJAOGAL@C?$LA?m?$LJ?$NN?D?I?$LN?$LK?0?H?$KP?$LL?$PN?F?d?F?$KO?0?Q?$MA?0?R?$LG?0?$LJ?G?0?p?$KE?M@ ; `string'
PUBLIC	??_C@_0JF@IAJLEBIE@C?$MA?p?$LB?W?$LG?s?0?H?$KP?$LL?$PN?F?d?F?$KO?0?Q?$MA?0?R?$LG?0?$LJ?G?0?p?$KE?M?A?0@ ; `string'
PUBLIC	??_C@_0JD@GAKFEGM@C?$MA?p?$LB?W?0?H?$KP?$LL?$PN?F?d?F?$KO?0?Q?$MA?0?R?$LG?0?$LJ?G?0?p?$KE?M?A?020@ ; `string'
PUBLIC	??_C@_0JD@EIOMDHFI@C?F?G?A?v?0?H?$KP?$LL?$PN?F?d?F?$KO?0?Q?$MA?0?R?$LG?0?$LJ?G?0?p?$KE?M?A?020@ ; `string'
PUBLIC	??_C@_0JH@DIINJGGK@C?$LE?Y?$MA?L?$LD?k?$LN?$LK?0?H?$KP?$LL?$PN?F?d?F?$KO?0?Q?$MA?0?R?$LG?0?$LJ?G?0?p?$KE?M@ ; `string'
PUBLIC	??_C@_0JD@BAKFJJG@C?$LI?$LI?$LI?p?0?H?$KP?$LL?$PN?F?d?F?$KO?0?Q?$MA?0?R?$LG?0?$LJ?G?0?p?$KE?M?A?020@ ; `string'
PUBLIC	??_C@_0JF@GJMDCIJC@C?$LI?$LI?$LI?p?$LI?$KD?0?H?$KP?$LL?$PN?F?d?F?$KO?0?Q?$MA?0?R?$LG?0?$LJ?G?0?p?$KE?M?A?0@ ; `string'
PUBLIC	??_C@_0JF@OAEDDPNA@C?$LH?$KF?$LA?$KB?$LN?$LK?0?H?$KP?$LL?$PN?F?d?F?$KO?0?Q?$MA?0?R?$LG?0?$LJ?G?0?p?$KE?M?A?0@ ; `string'
PUBLIC	??_C@_0JF@GJJCFENO@C?D?m?$LH?N?$LH?N?0?H?$KP?$LL?$PN?F?d?F?$KO?0?Q?$MA?0?R?$LG?0?$LJ?G?0?p?$KE?M?A?0@ ; `string'
PUBLIC	??_C@_0JF@KPLIMGFD@C?D?$KL?$LK?q?F?$KO?0?H?$KP?$LL?$PN?F?d?F?$KO?0?Q?$MA?0?R?$LG?0?$LJ?G?0?p?$KE?M?A?0@ ; `string'
PUBLIC	??_C@_0JF@JEKBLCBN@C?$LK?R?$LB?W?$LI?$KO?0?H?$KP?$LL?$PN?F?d?F?$KO?0?Q?$MA?0?R?$LG?0?$LJ?G?0?p?$KE?M?A?0@ ; `string'
PUBLIC	??_C@_0JD@FDBBFJPM@C?E?$KF?$MA?L?0?H?$KP?$LL?$PN?F?d?F?$KO?0?Q?$MA?0?R?$LG?0?$LJ?G?0?p?$KE?M?A?020@ ; `string'
PUBLIC	??_C@_0JF@PKIODGMF@C?E?u?$LI?$KD?$LF?$LH?0?H?$KP?$LL?$PN?F?d?F?$KO?0?Q?$MA?0?R?$LG?0?$LJ?G?0?p?$KE?M?A?0@ ; `string'
PUBLIC	??_C@_0JF@NGMCPFPL@C?$LA?m?$LI?$KD?$LA?m?0?H?$KP?$LL?$PN?F?d?F?$KO?0?Q?$MA?0?R?$LG?0?$LJ?G?0?p?$KE?M?A?0@ ; `string'
PUBLIC	??_C@_0JH@CMBIKAFB@C?$LB?b?$LA?$KB?$LH?N?$LN?$LK?0?H?$KP?$LL?$PN?F?d?F?$KO?0?Q?$MA?0?R?$LG?0?$LJ?G?0?p?$KE?M@ ; `string'
PUBLIC	??_C@_0JH@IKJNGHDB@C?$LA?$KB?$LA?$KB?$LH?N?$LN?$LK?0?H?$KP?$LL?$PN?F?d?F?$KO?0?Q?$MA?0?R?$LG?0?$LJ?G?0?p?$KE?M@ ; `string'
PUBLIC	??_C@_0JF@DLMCBOAE@C?$LH?N?$LB?b?$LO?H?0?H?$KP?$LL?$PN?F?d?F?$KO?0?Q?$MA?0?R?$LG?0?$LJ?G?0?p?$KE?M?A?0@ ; `string'
PUBLIC	??_C@_0JH@PAJKGPIE@C?$LA?q?$LF?e?$LK?N?$LK?q?0?H?$KP?$LL?$PN?F?d?F?$KO?0?Q?$MA?0?R?$LG?0?$LJ?G?0?p?$KE?M@ ; `string'
PUBLIC	??_C@_0JJ@LNPPOCFN@C?$LA?q?$LF?e?D?$KL?$LK?q?F?$KO?0?H?$KP?$LL?$PN?F?d?F?$KO?0?Q?$MA?0?R?$LG?0?$LJ?G?0?p@ ; `string'
PUBLIC	??_C@_0JH@MGFGNFKD@C?F?w?$MA?L?$LK?q?$LN?$LK?0?H?$KP?$LL?$PN?F?d?F?$KO?0?Q?$MA?0?R?$LG?0?$LJ?G?0?p?$KE?M@ ; `string'
PUBLIC	??_C@_0JH@OLMEDAF@C?$LN?G?$LJ?v?$LP?l?$LI?$KO?0?H?$KP?$LL?$PN?F?d?F?$KO?0?Q?$MA?0?R?$LG?0?$LJ?G?0?p?$KE?M@ ; `string'
PUBLIC	??_C@_0JJ@HIFIOBFB@C?D?$KL?E?$LI?$LI?$KD?D?$KL?$LN?$LK?0?H?$KP?$LL?$PN?F?d?F?$KO?0?Q?$MA?0?R?$LG?0?$LJ?G?0?p@ ; `string'
PUBLIC	??_C@_0JF@BNPKDFBP@C?$LE?Y?$MA?L?$LD?k?0?H?$KP?$LL?$PN?F?d?F?$KO?0?Q?$MA?0?R?$LG?0?$LJ?G?0?p?$KE?M?A?0@ ; `string'
PUBLIC	??_C@_0JJ@HGPCLPGO@C?G?A?$LG?s?E?$LA?E?d?$LN?$LK?0?H?$KP?$LL?$PN?F?d?F?$KO?0?Q?$MA?0?R?$LG?0?$LJ?G?0?p@ ; `string'
PUBLIC	??_C@_0JH@MKOEPDLF@C?$LN?$LK?E?Y?E?d?$LN?$LK?0?H?$KP?$LL?$PN?F?d?F?$KO?0?Q?$MA?0?R?$LG?0?$LJ?G?0?p?$KE?M@ ; `string'
PUBLIC	??_C@_0JF@FNHHDHEJ@C?H?D?$LJ?Y?F?$LM?0?H?$KP?$LL?$PN?F?d?F?$KO?0?Q?$MA?0?R?$LG?0?$LJ?G?0?p?$KE?M?A?0@ ; `string'
PUBLIC	??_C@_0JJ@KLENGDCC@C?A?x?$LA?m?$LI?$KD?$LA?m?$LI?$KD?0?H?$KP?$LL?$PN?F?d?F?$KO?0?Q?$MA?0?R?$LG?0?$LJ?G?0?p@ ; `string'
PUBLIC	??_C@_0JH@IDADMBJP@C?A?x?$LK?$KD?$LH?g?$LH?g?0?H?$KP?$LL?$PN?F?d?F?$KO?0?Q?$MA?0?R?$LG?0?$LJ?G?0?p?$KE?M@ ; `string'
PUBLIC	??_C@_0JJ@DGOPIJLC@C?A?x?$LD?k?$LI?$KD?$LD?k?$LI?$KD?0?H?$KP?$LL?$PN?F?d?F?$KO?0?Q?$MA?0?R?$LG?0?$LJ?G?0?p@ ; `string'
PUBLIC	??_C@_0JH@JMICEOII@C?A?x?$LK?$KD?$LI?$KD?$LA?$KB?0?H?$KP?$LL?$PN?F?d?F?$KO?0?Q?$MA?0?R?$LG?0?$LJ?G?0?p?$KE?M@ ; `string'
PUBLIC	??_C@_0JH@PDLOJHCO@C?$LB?W?$LI?$LA?$LA?m?$LI?$KD?0?H?$KP?$LL?$PN?F?d?F?$KO?0?Q?$MA?0?R?$LG?0?$LJ?G?0?p?$KE?M@ ; `string'
PUBLIC	??_C@_0JH@NMOONDJI@C?A?$KG?$LI?$KD?A?$KG?$LI?$KD?0?H?$KP?$LL?$PN?F?d?F?$KO?0?Q?$MA?0?R?$LG?0?$LJ?G?0?p?$KE?M@ ; `string'
PUBLIC	??_C@_0JH@EEKOGHLB@C?$LK?m?$LI?$KD?$LK?m?$LI?$KD?0?H?$KP?$LL?$PN?F?d?F?$KO?0?Q?$MA?0?R?$LG?0?$LJ?G?0?p?$KE?M@ ; `string'
PUBLIC	??_C@_0JF@ILAHMACN@C?$LJ?$KO?$LP?o?G?A?0?H?$KP?$LL?$PN?F?d?F?$KO?0?Q?$MA?0?R?$LG?0?$LJ?G?0?p?$KE?M?A?0@ ; `string'
PUBLIC	??_C@_0JF@LNGMOLEC@C?$LC?$LP?$LC?$LP?$LK?q?0?H?$KP?$LL?$PN?F?d?F?$KO?0?Q?$MA?0?R?$LG?0?$LJ?G?0?p?$KE?M?A?0@ ; `string'
PUBLIC	??_C@_0JF@HBJDDECB@C?A?x?$LP?l?G?$KK?0?H?$KP?$LL?$PN?F?d?F?$KO?0?Q?$MA?0?R?$LG?0?$LJ?G?0?p?$KE?M?A?0@ ; `string'
PUBLIC	??_C@_0JF@BNKCCHFF@C?F?d?$LH?g?$LH?g?0?H?$KP?$LL?$PN?F?d?F?$KO?0?Q?$MA?0?R?$LG?0?$LJ?G?0?p?$KE?M?A?0@ ; `string'
PUBLIC	??_C@_0JH@HPEBFHBL@C?G?N?$LI?$KD?G?N?$LI?$KD?0?H?$KP?$LL?$PN?F?d?F?$KO?0?Q?$MA?0?R?$LG?0?$LJ?G?0?p?$KE?M@ ; `string'
PUBLIC	??_C@_0JD@JFGLIIDB@C?$LC?$LP?$LJ?L?0?H?$KP?$LL?$PN?F?d?F?$KO?0?Q?$MA?0?R?$LG?0?$LJ?G?0?p?$KE?M?A?020@ ; `string'
PUBLIC	??_C@_0JH@OIKGAKAL@C?$LK?$LI?$LI?$KD?$LK?q?$LN?$LK?0?H?$KP?$LL?$PN?F?d?F?$KO?0?Q?$MA?0?R?$LG?0?$LJ?G?0?p?$KE?M@ ; `string'
PUBLIC	??_C@_0JH@FEJNJEMA@C?$LN?$LK?$LD?k?$LJ?V?E?$KJ?0?H?$KP?$LL?$PN?F?d?F?$KO?0?Q?$MA?0?R?$LG?0?$LJ?G?0?p?$KE?M@ ; `string'
PUBLIC	??_C@_0JF@DDLEEPOC@C?$LP?$KM?$LB?b?$LD?k?0?H?$KP?$LL?$PN?F?d?F?$KO?0?Q?$MA?0?R?$LG?0?$LJ?G?0?p?$KE?M?A?0@ ; `string'
PUBLIC	??_C@_0JD@CDHCJHCA@C?$LI?$LF?D?Z?0?H?$KP?$LL?$PN?F?d?F?$KO?0?Q?$MA?0?R?$LG?0?$LJ?G?0?p?$KE?M?A?020@ ; `string'
PUBLIC	??_C@_0JH@MDAMKENI@C?G?$KK?E?$LI?G?$KK?E?$LI?0?H?$KP?$LL?$PN?F?d?F?$KO?0?Q?$MA?0?R?$LG?0?$LJ?G?0?p?$KE?M@ ; `string'
PUBLIC	??_C@_0JJ@JLEHNALB@C?D?$KL?$LI?$KD?D?$KL?$LH?N?$LF?$LH?0?H?$KP?$LL?$PN?F?d?F?$KO?0?Q?$MA?0?R?$LG?0?$LJ?G?0?p@ ; `string'
PUBLIC	??_C@_0JH@GLJJFHMB@C?$LP?$KM?$LI?$KD?$LP?$KM?$LI?$KD?0?H?$KP?$LL?$PN?F?d?F?$KO?0?Q?$MA?0?R?$LG?0?$LJ?G?0?p?$KE?M@ ; `string'
PUBLIC	??_C@_0JF@COCKBLIB@C?B?w?E?$KJ?$LH?P?0?H?$KP?$LL?$PN?F?d?F?$KO?0?Q?$MA?0?R?$LG?0?$LJ?G?0?p?$KE?M?A?0@ ; `string'
PUBLIC	??_C@_0JD@PFFNHGOG@C?$LC?$LP?$LK?q?0?H?$KP?$LL?$PN?F?d?F?$KO?0?Q?$MA?0?R?$LG?0?$LJ?G?0?p?$KE?M?A?020@ ; `string'
PUBLIC	??_C@_0JF@KMGPGCLE@C?E?$LI?$LH?N?$LA?o?0?H?$KP?$LL?$PN?F?d?F?$KO?0?Q?$MA?0?R?$LG?0?$LJ?G?0?p?$KE?M?A?0@ ; `string'
PUBLIC	??_C@_0JH@KPONEFFH@C?$LO?F?$LI?$KD?$LI?$LG?$LF?t?0?H?$KP?$LL?$PN?F?d?F?$KO?0?Q?$MA?0?R?$LG?0?$LJ?G?0?p?$KE?M@ ; `string'
PUBLIC	??_C@_0JF@GEBPCHNP@C?$LC?$LP?$LK?q?$LP?$MA?0?H?$KP?$LL?$PN?F?d?F?$KO?0?Q?$MA?0?R?$LG?0?$LJ?G?0?p?$KE?M?A?0@ ; `string'
PUBLIC	??_C@_0JF@LOIMOCLM@C?A?x?G?$KK?G?$KK?0?H?$KP?$LL?$PN?F?d?F?$KO?0?Q?$MA?0?R?$LG?0?$LJ?G?0?p?$KE?M?A?0@ ; `string'
PUBLIC	??_C@_0JF@PMDPEKEI@C?A?x?E?u?E?u?0?H?$KP?$LL?$PN?F?d?F?$KO?0?Q?$MA?0?R?$LG?0?$LJ?G?0?p?$KE?M?A?0@ ; `string'
PUBLIC	??_C@_0JF@ECOFDIBO@C?G?A?$MA?L?E?d?0?H?$KP?$LL?$PN?F?d?F?$KO?0?Q?$MA?0?R?$LG?0?$LJ?G?0?p?$KE?M?A?0@ ; `string'
PUBLIC	??_C@_0JH@PAPIHGJG@C?$LI?p?$LD?$KK?$LN?C?G?A?0?H?$KP?$LL?$PN?F?d?F?$KO?0?Q?$MA?0?R?$LG?0?$LJ?G?0?p?$KE?M@ ; `string'
PUBLIC	??_C@_0JF@MHIFDFBL@C?$LG?s?$LD?$KK?G?A?0?H?$KP?$LL?$PN?F?d?F?$KO?0?Q?$MA?0?R?$LG?0?$LJ?G?0?p?$KE?M?A?0@ ; `string'
PUBLIC	??_C@_0JF@MDCEMJPK@C?$LG?s?$MA?L?H?$KF?0?H?$KP?$LL?$PN?F?d?F?$KO?0?Q?$MA?0?R?$LG?0?$LJ?G?0?p?$KE?M?A?0@ ; `string'
PUBLIC	??_C@_0JF@PLFJLGMM@C?E?$LI?$MA?L?H?$KF?0?H?$KP?$LL?$PN?F?d?F?$KO?0?Q?$MA?0?R?$LG?0?$LJ?G?0?p?$KE?M?A?0@ ; `string'
PUBLIC	??_C@_0JD@BEPDFK@C?$LJ?Y?D?q?0?H?$KP?$LL?$PN?F?d?F?$KO?0?Q?$MA?0?R?$LG?0?$LJ?G?0?p?$KE?M?A?020@ ; `string'
PUBLIC	??_C@_0JF@KMJNHDBO@C?$LA?$KB?$LA?m?$MA?O?0?H?$KP?$LL?$PN?F?d?F?$KO?0?Q?$MA?0?R?$LG?0?$LJ?G?0?p?$KE?M?A?0@ ; `string'
PUBLIC	??_C@_0JF@CFLCCIDI@C?$LN?$LK?G?G?$LP?B?0?H?$KP?$LL?$PN?F?d?F?$KO?0?Q?$MA?0?R?$LG?0?$LJ?G?0?p?$KE?M?A?0@ ; `string'
PUBLIC	??_C@_0JH@PLMPPEMP@C?E?d?$LG?s?F?$LM?$LN?$LK?0?H?$KP?$LL?$PN?F?d?F?$KO?0?Q?$MA?0?R?$LG?0?$LJ?G?0?p?$KE?M@ ; `string'
PUBLIC	??_C@_0JF@CGEFCAMC@C?$LA?m?$LI?$KD?$LF?$LH?0?H?$KP?$LL?$PN?F?d?F?$KO?0?Q?$MA?0?R?$LG?0?$LJ?G?0?p?$KE?M?A?0@ ; `string'
PUBLIC	??_C@_0JH@IHIIGOOG@C?A?x?$LI?$KO?$LK?q?$LD?k?0?H?$KP?$LL?$PN?F?d?F?$KO?0?Q?$MA?0?R?$LG?0?$LJ?G?0?p?$KE?M@ ; `string'
PUBLIC	??_C@_0JH@BDEOHDKM@C?A?x?$LJ?$NN?$LB?b?$LD?k?0?H?$KP?$LL?$PN?F?d?F?$KO?0?Q?$MA?0?R?$LG?0?$LJ?G?0?p?$KE?M@ ; `string'
PUBLIC	??_C@_0JH@GCLFNHFL@C?$LF?$KF?$LK?m?$LH?N?$LN?$LK?0?H?$KP?$LL?$PN?F?d?F?$KO?0?Q?$MA?0?R?$LG?0?$LJ?G?0?p?$KE?M@ ; `string'
PUBLIC	??_C@_0JF@IBGDCGIP@C?$LG?s?$LA?m?$LA?m?0?H?$KP?$LL?$PN?F?d?F?$KO?0?Q?$MA?0?R?$LG?0?$LJ?G?0?p?$KE?M?A?0@ ; `string'
PUBLIC	??_C@_0JH@DJDFDNN@C?A?x?$LO?a?$LB?b?$LH?N?0?H?$KP?$LL?$PN?F?d?F?$KO?0?Q?$MA?0?R?$LG?0?$LJ?G?0?p?$KE?M@ ; `string'
PUBLIC	??_C@_0JH@BGKMGAMN@C?A?x?$LJ?$NN?$LK?$LI?$LH?N?0?H?$KP?$LL?$PN?F?d?F?$KO?0?Q?$MA?0?R?$LG?0?$LJ?G?0?p?$KE?M@ ; `string'
PUBLIC	??_C@_0JH@IJILMKLC@C?$LF?$LF?$LG?s?$LK?q?$LN?$LK?0?H?$KP?$LL?$PN?F?d?F?$KO?0?Q?$MA?0?R?$LG?0?$LJ?G?0?p?$KE?M@ ; `string'
PUBLIC	??_C@_0JD@CPKILOKP@C?$LK?$LM?D?I?0?H?$KP?$LL?$PN?F?d?F?$KO?0?Q?$MA?0?R?$LG?0?$LJ?G?0?p?$KE?M?A?020@ ; `string'
PUBLIC	??_C@_0JH@KIICBPAC@C?A?x?$LK?N?$LI?$KD?$LF?$LH?0?H?$KP?$LL?$PN?F?d?F?$KO?0?Q?$MA?0?R?$LG?0?$LJ?G?0?p?$KE?M@ ; `string'
PUBLIC	??_C@_0JD@OEACOBAH@C?$LJ?$KL?$MA?L?0?H?$KP?$LL?$PN?F?d?F?$KO?0?Q?$MA?0?R?$LG?0?$LJ?G?0?p?$KE?M?A?020@ ; `string'
PUBLIC	??_C@_0JF@NOKOGBID@C?$LI?p?$LD?$KK?E?d?0?H?$KP?$LL?$PN?F?d?F?$KO?0?Q?$MA?0?R?$LG?0?$LJ?G?0?p?$KE?M?A?0@ ; `string'
PUBLIC	??_C@_0JJ@IENNICFI@C?$LF?$KF?$LK?t?$LJ?Y?$LH?N?$LN?$LK?0?H?$KP?$LL?$PN?F?d?F?$KO?0?Q?$MA?0?R?$LG?0?$LJ?G?0?p@ ; `string'
PUBLIC	??_C@_0JF@NKGNDLBI@C?A?v?$LJ?$NP?$LI?$KO?0?H?$KP?$LL?$PN?F?d?F?$KO?0?Q?$MA?0?R?$LG?0?$LJ?G?0?p?$KE?M?A?0@ ; `string'
PUBLIC	??_C@_0JF@JBKHOBFC@C?F?D?$LI?$KD?C?$LM?0?H?$KP?$LL?$PN?F?d?F?$KO?0?Q?$MA?0?R?$LG?0?$LJ?G?0?p?$KE?M?A?0@ ; `string'
PUBLIC	??_C@_0JF@NAGENHOB@C?$LA?q?$LH?N?$LN?$LK?0?H?$KP?$LL?$PN?F?d?F?$KO?0?Q?$MA?0?R?$LG?0?$LJ?G?0?p?$KE?M?A?0@ ; `string'
PUBLIC	??_C@_0JF@NMLKMNBD@C?$LL?$PO?$LI?$KD?C?$LM?0?H?$KP?$LL?$PN?F?d?F?$KO?0?Q?$MA?0?R?$LG?0?$LJ?G?0?p?$KE?M?A?0@ ; `string'
PUBLIC	??_C@_0JF@OGKOCMEN@C?$LN?$LE?$LJ?$NP?$LI?$KO?0?H?$KP?$LL?$PN?F?d?F?$KO?0?Q?$MA?0?R?$LG?0?$LJ?G?0?p?$KE?M?A?0@ ; `string'
PUBLIC	??_C@_0JJ@DOAALKHH@C?$LO?n?$LN?$LK?$LF?e?$LH?$KB?$LA?o?0?H?$KP?$LL?$PN?F?d?F?$KO?0?Q?$MA?0?R?$LG?0?$LJ?G?0?p@ ; `string'
PUBLIC	??_C@_0JF@NHGNALFJ@C?F?D?$LO?F?$LG?u?0?H?$KP?$LL?$PN?F?d?F?$KO?0?Q?$MA?0?R?$LG?0?$LJ?G?0?p?$KE?M?A?0@ ; `string'
PUBLIC	??_C@_0JF@OPDDOLA@C?$LJ?i?$LP?$KJ?$LP?l?0?H?$KP?$LL?$PN?F?d?F?$KO?0?Q?$MA?0?R?$LG?0?$LJ?G?0?p?$KE?M?A?0@ ; `string'
PUBLIC	??_C@_0JF@CNPLGKOL@C?E?$LH?$LP?l?$LI?$KO?0?H?$KP?$LL?$PN?F?d?F?$KO?0?Q?$MA?0?R?$LG?0?$LJ?G?0?p?$KE?M?A?0@ ; `string'
PUBLIC	??_C@_0JH@DJCLDBNF@C?$LO?F?D?Z?$LH?N?$LK?q?0?H?$KP?$LL?$PN?F?d?F?$KO?0?Q?$MA?0?R?$LG?0?$LJ?G?0?p?$KE?M@ ; `string'
PUBLIC	??_C@_0JF@FMCMFHMI@C?G?$KK?$LH?N?$LK?q?0?H?$KP?$LL?$PN?F?d?F?$KO?0?Q?$MA?0?R?$LG?0?$LJ?G?0?p?$KE?M?A?0@ ; `string'
PUBLIC	??_C@_0JD@KBNKIKFC@C?H?$KN?$LH?f?0?H?$KP?$LL?$PN?F?d?F?$KO?0?Q?$MA?0?R?$LG?0?$LJ?G?0?p?$KE?M?A?021@ ; `string'
PUBLIC	??_C@_0JH@INFMOJCI@C?F?D?$MA?L?$LD?k?$LF?$LH?0?H?$KP?$LL?$PN?F?d?F?$KO?0?Q?$MA?0?R?$LG?0?$LJ?G?0?p?$KE?M@ ; `string'
PUBLIC	??_C@_0JF@MNPKKPAE@C?G?$KK?$LP?l?$LI?$KO?0?H?$KP?$LL?$PN?F?d?F?$KO?0?Q?$MA?0?R?$LG?0?$LJ?G?0?p?$KE?M?A?0@ ; `string'
PUBLIC	??_C@_0JH@ONOCFNEJ@C?$LN?N?$MA?L?E?$KM?$LH?P?0?H?$KP?$LL?$PN?F?d?F?$KO?0?Q?$MA?0?R?$LG?0?$LJ?G?0?p?$KE?M@ ; `string'
PUBLIC	??_C@_0JF@DPJBNGDA@C?$LP?U?E?d?$LD?$KC?0?H?$KP?$LL?$PN?F?d?F?$KO?0?Q?$MA?0?R?$LG?0?$LJ?G?0?p?$KE?M?A?0@ ; `string'
PUBLIC	??_C@_0JD@PNDPFJJO@C?H?f?$LH?f?0?H?$KP?$LL?$PN?F?d?F?$KO?0?Q?$MA?0?R?$LG?0?$LJ?G?0?p?$KE?M?A?021@ ; `string'
PUBLIC	??_C@_0JF@BACCLALL@C?E?$LH?$LG?s?D?m?0?H?$KP?$LL?$PN?F?d?F?$KO?0?Q?$MA?0?R?$LG?0?$LJ?G?0?p?$KE?M?A?0@ ; `string'
PUBLIC	??_C@_0JH@FHJBIPIA@C?$LP?$MA?$LA?$KB?$LH?N?$LN?$LK?0?H?$KP?$LL?$PN?F?d?F?$KO?0?Q?$MA?0?R?$LG?0?$LJ?G?0?p?$KE?M@ ; `string'
PUBLIC	??_C@_0JF@EBLCAMEB@C?$LP?$MA?$LI?$KD?$LA?o?0?H?$KP?$LL?$PN?F?d?F?$KO?0?Q?$MA?0?R?$LG?0?$LJ?G?0?p?$KE?M?A?0@ ; `string'
PUBLIC	??_C@_0JF@BIJBMNLI@C?H?f?$LB?b?$LI?$LA?0?H?$KP?$LL?$PN?F?d?F?$KO?0?Q?$MA?0?R?$LG?0?$LJ?G?0?p?$KE?M?A?0@ ; `string'
PUBLIC	??_C@_0JH@KEOPHAME@C?$LO?F?$LI?$KD?$LI?$LG?$LH?g?0?H?$KP?$LL?$PN?F?d?F?$KO?0?Q?$MA?0?R?$LG?0?$LJ?G?0?p?$KE?M@ ; `string'
PUBLIC	??_C@_0JF@CEAMBMBP@C?$LD?k?$LI?$KD?$LA?o?0?H?$KP?$LL?$PN?F?d?F?$KO?0?Q?$MA?0?R?$LG?0?$LJ?G?0?p?$KE?M?A?0@ ; `string'
PUBLIC	??_C@_0JH@ODACJIOM@C?$LK?$KD?$LI?$KD?G?$KK?$LN?$LK?0?H?$KP?$LL?$PN?F?d?F?$KO?0?Q?$MA?0?R?$LG?0?$LJ?G?0?p?$KE?M@ ; `string'
PUBLIC	??_C@_0JF@JCEFDAGG@C?$LH?N?$LF?$KF?$LP?$MA?0?H?$KP?$LL?$PN?F?d?F?$KO?0?Q?$MA?0?R?$LG?0?$LJ?G?0?p?$KE?M?A?0@ ; `string'
PUBLIC	??_C@_0JH@CKNELHAC@C?G?N?$LA?$KB?$LH?N?$LN?$LK?0?H?$KP?$LL?$PN?F?d?F?$KO?0?Q?$MA?0?R?$LG?0?$LJ?G?0?p?$KE?M@ ; `string'
PUBLIC	??_C@_0JD@LICPDLCA@C?$LJ?i?H?$KD?0?H?$KP?$LL?$PN?F?d?F?$KO?0?Q?$MA?0?R?$LG?0?$LJ?G?0?p?$KE?M?A?021@ ; `string'
PUBLIC	??_C@_0JF@DDIOEJGF@C?$LD?k?$LK?O?$MA?L?0?H?$KP?$LL?$PN?F?d?F?$KO?0?Q?$MA?0?R?$LG?0?$LJ?G?0?p?$KE?M?A?0@ ; `string'
PUBLIC	??_C@_0JD@HLMJBJGF@C?$LK?O?$MA?L?0?H?$KP?$LL?$PN?F?d?F?$KO?0?Q?$MA?0?R?$LG?0?$LJ?G?0?p?$KE?M?A?021@ ; `string'
PUBLIC	??_C@_0JF@CLPJJCHG@C?$LB?x?$LK?O?$MA?L?0?H?$KP?$LL?$PN?F?d?F?$KO?0?Q?$MA?0?R?$LG?0?$LJ?G?0?p?$KE?M?A?0@ ; `string'
PUBLIC	??_C@_0JF@BHNKONDD@C?$LF?$LJ?$LK?O?$MA?L?0?H?$KP?$LL?$PN?F?d?F?$KO?0?Q?$MA?0?R?$LG?0?$LJ?G?0?p?$KE?M?A?0@ ; `string'
PUBLIC	??_C@_0JF@CCDLOPAN@C?$LK?m?$LH?$KC?F?$NO?0?H?$KP?$LL?$PN?F?d?F?$KO?0?Q?$MA?0?R?$LG?0?$LJ?G?0?p?$KE?M?A?0@ ; `string'
PUBLIC	??_C@_0JH@LHBDBPLD@C?$LD?k?$LI?$KD?$LA?$KB?$LI?$KD?0?H?$KP?$LL?$PN?F?d?F?$KO?0?Q?$MA?0?R?$LG?0?$LJ?G?0?p?$KE?M@ ; `string'
PUBLIC	??_C@_0JH@PCLJBLKA@C?$LK?$KD?$LI?$KD?$LA?$KB?$LI?$KD?0?H?$KP?$LL?$PN?F?d?F?$KO?0?Q?$MA?0?R?$LG?0?$LJ?G?0?p?$KE?M@ ; `string'
PUBLIC	??_C@_0JH@CFIOOCO@C?$LK?$KD?$LH?g?$LA?$KB?$LI?$KD?0?H?$KP?$LL?$PN?F?d?F?$KO?0?Q?$MA?0?R?$LG?0?$LJ?G?0?p?$KE?M@ ; `string'
PUBLIC	??_C@_0JH@DLIKJJGB@C?$LA?m?$LI?$KD?$LA?$KB?$LI?$KD?0?H?$KP?$LL?$PN?F?d?F?$KO?0?Q?$MA?0?R?$LG?0?$LJ?G?0?p?$KE?M@ ; `string'
PUBLIC	??_C@_0JJ@KGMGEBBB@C?$LB?W?$LI?$LA?$LJ?Y?$LH?N?$LN?$LK?0?H?$KP?$LL?$PN?F?d?F?$KO?0?Q?$MA?0?R?$LG?0?$LJ?G?0?p@ ; `string'
PUBLIC	??_C@_0JH@NCDPPBMA@C?$LI?p?$LA?$KB?$LH?N?$LN?$LK?0?H?$KP?$LL?$PN?F?d?F?$KO?0?Q?$MA?0?R?$LG?0?$LJ?G?0?p?$KE?M@ ; `string'
PUBLIC	??_C@_0JH@BMDCDHOM@C?$MA?L?$LB?$LI?$LH?N?$LN?$LK?0?H?$KP?$LL?$PN?F?d?F?$KO?0?Q?$MA?0?R?$LG?0?$LJ?G?0?p?$KE?M@ ; `string'
PUBLIC	??_C@_0JF@KPDLJGEE@C?F?D?$LI?$KD?$LA?o?0?H?$KP?$LL?$PN?F?d?F?$KO?0?Q?$MA?0?R?$LG?0?$LJ?G?0?p?$KE?M?A?0@ ; `string'
PUBLIC	??_C@_0JH@NGJCKOCP@C?$LN?G?$LJ?v?$LG?s?$LA?o?0?H?$KP?$LL?$PN?F?d?F?$KO?0?Q?$MA?0?R?$LG?0?$LJ?G?0?p?$KE?M@ ; `string'
PUBLIC	??_C@_0JF@IMGMCFOB@C?D?$KO?$LH?N?$LN?$LK?0?H?$KP?$LL?$PN?F?d?F?$KO?0?Q?$MA?0?R?$LG?0?$LJ?G?0?p?$KE?M?A?0@ ; `string'
PUBLIC	??_C@_0JD@ECLGEOOL@C?$LO?F?$LI?$KO?0?H?$KP?$LL?$PN?F?d?F?$KO?0?Q?$MA?0?R?$LG?0?$LJ?G?0?p?$KE?M?A?022@ ; `string'
PUBLIC	??_C@_0JF@JCIODNGK@C?$LK?$KD?$LG?s?$LG?s?0?H?$KP?$LL?$PN?F?d?F?$KO?0?Q?$MA?0?R?$LG?0?$LJ?G?0?p?$KE?M?A?0@ ; `string'
PUBLIC	??_C@_0JF@NALOHHO@C?$LB?b?$LG?s?$LD?k?0?H?$KP?$LL?$PN?F?d?F?$KO?0?Q?$MA?0?R?$LG?0?$LJ?G?0?p?$KE?M?A?0@ ; `string'
PUBLIC	??_C@_0JF@KHMGEPFN@C?G?$KK?E?W?$LG?s?0?H?$KP?$LL?$PN?F?d?F?$KO?0?Q?$MA?0?R?$LG?0?$LJ?G?0?p?$KE?M?A?0@ ; `string'
PUBLIC	??_C@_0JF@CAIPLEE@C?E?W?$LG?s?$LF?$LH?0?H?$KP?$LL?$PN?F?d?F?$KO?0?Q?$MA?0?R?$LG?0?$LJ?G?0?p?$KE?M?A?0@ ; `string'
PUBLIC	??_C@_0JD@NNHLEJFB@C?G?$LD?$LI?$LG?0?H?$KP?$LL?$PN?F?d?F?$KO?0?Q?$MA?0?R?$LG?0?$LJ?G?0?p?$KE?M?A?023@ ; `string'
PUBLIC	??_C@_0JF@BLACNEND@C?$LF?$KI?G?$KK?$LN?$LK?0?H?$KP?$LL?$PN?F?d?F?$KO?0?Q?$MA?0?R?$LG?0?$LJ?G?0?p?$KE?M?A?0@ ; `string'
PUBLIC	??_C@_0JF@OEDHEMAD@C?$LJ?Y?$LH?N?$LN?$LK?0?H?$KP?$LL?$PN?F?d?F?$KO?0?Q?$MA?0?R?$LG?0?$LJ?G?0?p?$KE?M?A?0@ ; `string'
PUBLIC	??_C@_0JH@GAIDELPF@C?$LE?Y?$MA?L?G?G?$LD?k?0?H?$KP?$LL?$PN?F?d?F?$KO?0?Q?$MA?0?R?$LG?0?$LJ?G?0?p?$KE?M@ ; `string'
PUBLIC	??_C@_0JJ@ODOBKOMI@C?$LA?q?$LF?e?E?W?$LG?s?$LA?o?0?H?$KP?$LL?$PN?F?d?F?$KO?0?Q?$MA?0?R?$LG?0?$LJ?G?0?p@ ; `string'
PUBLIC	??_C@_0JD@KEOHAJKP@C?A?v?$LI?$LG?0?H?$KP?$LL?$PN?F?d?F?$KO?0?Q?$MA?0?R?$LG?0?$LJ?G?0?p?$KE?M?A?023@ ; `string'
PUBLIC	??_C@_0JH@FIKPJIHB@C?$LK?$LL?$LF?e?$LH?$KB?$LA?o?0?H?$KP?$LL?$PN?F?d?F?$KO?0?Q?$MA?0?R?$LG?0?$LJ?G?0?p?$KE?M@ ; `string'
PUBLIC	??_C@_0JF@LOGCIFKI@C?A?$KG?$LI?$KD?$LA?$KB?0?H?$KP?$LL?$PN?F?d?F?$KO?0?Q?$MA?0?R?$LG?0?$LJ?G?0?p?$KE?M?A?0@ ; `string'
PUBLIC	??_C@_0JD@PEJNOOOJ@C?$LM?$LD?G?$KF?0?H?$KP?$LL?$PN?F?d?F?$KO?0?Q?$MA?0?R?$LG?0?$LJ?G?0?p?$KE?M?A?022@ ; `string'
PUBLIC	??_C@_0JM@GBPDCLMI@C?$LO?F?$MA?L?$LN?$LK?$LF?e?$LH?$KB?$LA?o?0?F?d?F?$KO?5?H?$KP?$LL?$PN?0?Q?$MA?0?R?$LG?0?$LJ@ ; `string'
PUBLIC	??_C@_0JE@DJIOPPDG@C?G?v?$LJ?$KL?0?F?d?F?$KO?5?H?$KP?$LL?$PN?0?Q?$MA?0?R?$LG?0?$LJ?G?0?p?$KE?M?A?02@ ; `string'
PUBLIC	??_C@_0JE@KAOOBALI@C?G?X?E?B?0?F?d?F?$KO?5?H?$KP?$LL?$PN?0?Q?$MA?0?R?$LG?0?$LJ?G?0?p?$KE?M?A?02@ ; `string'
PUBLIC	??_C@_0JE@MGDFCFLK@C?C?$LL?$LH?f?0?F?d?F?$KO?5?H?$KP?$LL?$PN?0?Q?$MA?0?R?$LG?0?$LJ?G?0?p?$KE?M?A?02@ ; `string'
PUBLIC	??_C@_0JG@BKAGKFBI@C?$LN?$LK?G?G?$LD?k?0?F?d?F?$KO?5?H?$KP?$LL?$PN?0?Q?$MA?0?R?$LG?0?$LJ?G?0?p?$KE?M?A@ ; `string'
PUBLIC	??_C@_0JK@FOHKOKFG@C?$LD?$KK?$LK?q?$LF?e?$LH?$KB?$LA?o?0?F?d?F?$KO?5?H?$KP?$LL?$PN?0?Q?$MA?0?R?$LG?0?$LJ?G?0@ ; `string'
PUBLIC	??_C@_0KA@MBIMPKDF@C?F?D?$MA?L?$LO?n?E?$LH?$LN?$LK?$LF?e?$LH?$KB?$LA?o?0?F?d?F?$KO?5?H?$KP?$LL?$PN?0?Q?$MA?0@ ; `string'
PUBLIC	??_C@_0JE@DGKMGGKH@C?A?V?$MA?$NL?0?F?d?F?$KO?5?H?$KP?$LL?$PN?0?Q?$MA?0?R?$LG?0?$LJ?G?0?p?$KE?M?A?02@ ; `string'
PUBLIC	??_C@_0JE@FKNBNJHA@C?$LA?m?$LH?N?0?F?d?F?$KO?5?H?$KP?$LL?$PN?0?Q?$MA?0?R?$LG?0?$LJ?G?0?p?$KE?M?A?02@ ; `string'
PUBLIC	??_C@_0JI@PGPGIJOG@C?D?$KL?$LA?$KB?$LH?N?$LN?$LK?0?F?d?F?$KO?5?H?$KP?$LL?$PN?0?Q?$MA?0?R?$LG?0?$LJ?G?0?p?$KE@ ; `string'
PUBLIC	??_C@_0JE@BJCGMBML@C?G?X?D?$KB?0?F?d?F?$KO?5?H?$KP?$LL?$PN?0?Q?$MA?0?R?$LG?0?$LJ?G?0?p?$KE?M?A?02@ ; `string'
PUBLIC	??_C@_0JI@DNGKJONF@C?$LH?$LJ?$LF?e?$LI?$KO?$LP?B?0?F?d?F?$KO?5?H?$KP?$LL?$PN?0?Q?$MA?0?R?$LG?0?$LJ?G?0?p?$KE@ ; `string'
PUBLIC	??_C@_0JI@GEKPFCLP@C?$LB?$LI?$LH?g?$LI?$LG?$LH?g?0?F?d?F?$KO?5?H?$KP?$LL?$PN?0?Q?$MA?0?R?$LG?0?$LJ?G?0?p?$KE@ ; `string'
PUBLIC	??_C@_0JE@NJCMHDHA@C?F?f?$LI?$KO?0?F?d?F?$KO?5?H?$KP?$LL?$PN?0?Q?$MA?0?R?$LG?0?$LJ?G?0?p?$KE?M?A?02@ ; `string'
PUBLIC	??_C@_0JO@LOCLPAHE@C?$LI?$NO?E?$LL?$LL?g?$LH?N?$LH?$LJ?$MA?$PM?$LF?e?0?F?d?F?$KO?5?H?$KP?$LL?$PN?0?Q?$MA?0?R?$LG@ ; `string'
PUBLIC	??_C@_0JE@IPGJJALP@C?G?$LD?$LJ?i?0?F?d?F?$KO?5?H?$KP?$LL?$PN?0?Q?$MA?0?R?$LG?0?$LJ?G?0?p?$KE?M?A?02@ ; `string'
PUBLIC	??_C@_0JG@CEKICIDC@C?$LE?Y?E?$KJ?$LH?P?0?F?d?F?$KO?5?H?$KP?$LL?$PN?0?Q?$MA?0?R?$LG?0?$LJ?G?0?p?$KE?M?A@ ; `string'
PUBLIC	??_C@_0JG@PADCEPPG@C?$LH?$LJ?G?G?$LP?B?0?F?d?F?$KO?5?H?$KP?$LL?$PN?0?Q?$MA?0?R?$LG?0?$LJ?G?0?p?$KE?M?A@ ; `string'
PUBLIC	??_C@_0JG@EMJAADOM@C?F?$LM?$LH?$LK?$LN?$LK?0?F?d?F?$KO?5?H?$KP?$LL?$PN?0?Q?$MA?0?R?$LG?0?$LJ?G?0?p?$KE?M?A@ ; `string'
PUBLIC	??_C@_0JK@FFJAGLDM@C?$LK?m?$LH?$KC?$LF?e?$LH?$KB?$LA?o?0?F?d?F?$KO?5?H?$KP?$LL?$PN?0?Q?$MA?0?R?$LG?0?$LJ?G?0@ ; `string'
PUBLIC	??_C@_0JG@JGGIFFGM@C?D?$KL?$LP?l?$LA?E?0?F?d?F?$KO?5?H?$KP?$LL?$PN?0?Q?$MA?0?R?$LG?0?$LJ?G?0?p?$KE?M?A@ ; `string'
PUBLIC	??_C@_0JG@BLGMFID@C?E?$KJ?$LH?g?$LA?E?0?F?d?F?$KO?5?H?$KP?$LL?$PN?0?Q?$MA?0?R?$LG?0?$LJ?G?0?p?$KE?M?A@ ; `string'
PUBLIC	??_C@_0JK@LOBLPIIN@C?$LO?F?$MA?L?$LN?$LK?$LI?$LI?$LI?p?0?F?d?F?$KO?5?H?$KP?$LL?$PN?0?Q?$MA?0?R?$LG?0?$LJ?G?0@ ; `string'
PUBLIC	??_C@_0JG@DKCIIONN@C?$LJ?Y?$LP?l?F?$KO?0?F?d?F?$KO?5?H?$KP?$LL?$PN?0?Q?$MA?0?R?$LG?0?$LJ?G?0?p?$KE?M?A@ ; `string'
PUBLIC	??_C@_0JI@EHCCFIKA@C?$LG?s?$LB?W?$LD?k?$LN?$LK?0?F?d?F?$KO?5?H?$KP?$LL?$PN?0?Q?$MA?0?R?$LG?0?$LJ?G?0?p?$KE@ ; `string'
PUBLIC	??_C@_0JG@KFIKHHAC@C?E?$KJ?$LH?N?E?f?0?F?d?F?$KO?5?H?$KP?$LL?$PN?0?Q?$MA?0?R?$LG?0?$LJ?G?0?p?$KE?M?A@ ; `string'
PUBLIC	??_C@_0JG@CPMAJAJG@C?$LA?$KF?G?$KK?$LN?$LK?0?F?d?F?$KO?5?H?$KP?$LL?$PN?0?Q?$MA?0?R?$LG?0?$LJ?G?0?p?$KE?M?A@ ; `string'
PUBLIC	??_C@_0JG@KKDFMGFD@C?$LP?o?G?$KK?$LN?$LK?0?F?d?F?$KO?5?H?$KP?$LL?$PN?0?Q?$MA?0?R?$LG?0?$LJ?G?0?p?$KE?M?A@ ; `string'
PUBLIC	??_C@_0JG@MKAMAEGN@C?$LL?$PO?E?$KJ?$LH?P?0?F?d?F?$KO?5?H?$KP?$LL?$PN?0?Q?$MA?0?R?$LG?0?$LJ?G?0?p?$KE?M?A@ ; `string'
PUBLIC	??_C@_0JI@JOLKFIFF@C?$LA?q?$LF?e?$LH?N?$LK?q?0?F?d?F?$KO?5?H?$KP?$LL?$PN?0?Q?$MA?0?R?$LG?0?$LJ?G?0?p?$KE@ ; `string'
PUBLIC	??_C@_0JI@EIIPPPDM@C?F?d?$LA?$KB?$LM?v?$LN?$LK?0?F?d?F?$KO?5?H?$KP?$LL?$PN?0?Q?$MA?0?R?$LG?0?$LJ?G?0?p?$KE@ ; `string'
PUBLIC	??_C@_0JK@OLFJIKDA@C?$LA?q?$LF?e?$LF?e?$LH?$KB?$LA?o?0?F?d?F?$KO?5?H?$KP?$LL?$PN?0?Q?$MA?0?R?$LG?0?$LJ?G?0@ ; `string'
PUBLIC	??_C@_0JK@IAIFAJLJ@C?$LE?Y?E?$KJ?$LJ?Y?$LH?N?$LN?$LK?0?F?d?F?$KO?5?H?$KP?$LL?$PN?0?Q?$MA?0?R?$LG?0?$LJ?G?0@ ; `string'
PUBLIC	??_C@_0JG@MAPLBLCA@C?$LF?p?$LO?n?$LH?i?0?F?d?F?$KO?5?H?$KP?$LL?$PN?0?Q?$MA?0?R?$LG?0?$LJ?G?0?p?$KE?M?A@ ; `string'
PUBLIC	??_C@_0JI@MKPACPPD@C?$LO?F?$LN?$LK?E?$LI?$LH?N?0?F?d?F?$KO?5?H?$KP?$LL?$PN?0?Q?$MA?0?R?$LG?0?$LJ?G?0?p?$KE@ ; `string'
PUBLIC	??_C@_0JE@CLNOBNJC@C?$LB?b?$LI?$LA?0?F?d?F?$KO?5?H?$KP?$LL?$PN?0?Q?$MA?0?R?$LG?0?$LJ?G?0?p?$KE?M?A?02@ ; `string'
PUBLIC	??_C@_0JG@HEIHCKF@C?$LL?$PO?$LP?l?F?$KO?0?F?d?F?$KO?5?H?$KP?$LL?$PN?0?Q?$MA?0?R?$LG?0?$LJ?G?0?p?$KE?M?A@ ; `string'
PUBLIC	??_C@_0JI@GNMKGAKL@C?H?$KN?$MA?L?E?d?$LN?$LK?0?F?d?F?$KO?5?H?$KP?$LL?$PN?0?Q?$MA?0?R?$LG?0?$LJ?G?0?p?$KE@ ; `string'
PUBLIC	??_C@_0JD@MHKGCPA@C?$LJ?i?H?$KN?$LG?u?$LN?$LK?0?H?$KP?$LL?$PN?0?Q?$MA?0?R?$LG?0?$LJ?G?0?p?$KE?M?A?022@ ; `string'
PUBLIC	??_C@_0JB@FKDIOHFL@C?$LI?$NO?$LA?$KB?A?R?0?H?$KP?$LL?$PN?0?Q?$MA?0?R?$LG?0?$LJ?G?0?p?$KE?M?A?02250@ ; `string'
PUBLIC	??_C@_0JJ@FHHLLIJP@?$LI?$NO?$LA?$KB?A?R?0?$LI?$LO?$LI?p?$LN?$LK?D?m?F?y1?B?w?0?Q?$MA?0?R?$LG?0?$LJ?G?0?p@ ; `string'
PUBLIC	??_C@_0JJ@IIKAJDOE@?$LJ?i?H?$KN?$LG?u?0?$LI?$LO?$LI?p?$LN?$LK?D?m?F?y1?B?w?0?Q?$MA?0?R?$LG?0?$LJ?G?0?p@ ; `string'
PUBLIC	??_C@_0JE@JMIOBGLN@?$LB?b?$LG?s?$LD?k?0?H?$KL?$LK?$LI?F?d?F?$KO?0?Q?$MA?0?R?$LG?0?$LJ?G?0?p?$KE?M?A?01@ ; `string'
PUBLIC	??_C@_0JG@MPEMLKOG@?$LN?G?$LJ?v?$LG?s?$LA?o?0?H?$KL?$LK?$LI?F?d?F?$KO?0?Q?$MA?0?R?$LG?0?$LJ?G?0?p?$KE?M?A@ ; `string'
PUBLIC	??_C@_0JE@DGEDLOJO@?G?$KK?E?W?$LG?s?0?H?$KL?$LK?$LI?F?d?F?$KO?0?Q?$MA?0?R?$LG?0?$LJ?G?0?p?$KE?M?A?01@ ; `string'
PUBLIC	??_C@_0JI@CPLJDDGB@?$LA?q?$LF?e?E?W?$LG?s?$LA?o?0?H?$KL?$LK?$LI?F?d?F?$KO?0?Q?$MA?0?R?$LG?0?$LJ?G?0?p?$KE@ ; `string'
PUBLIC	??_C@_0JE@JDINAKIH@?E?W?$LG?s?$LF?$LH?0?H?$KL?$LK?$LI?F?d?F?$KO?0?Q?$MA?0?R?$LG?0?$LJ?G?0?p?$KE?M?A?01@ ; `string'
PUBLIC	??_C@_0JF@HAKCNIIB@C?$LB?b?$LG?s?$LD?k?0?H?$KP?$LL?$PN?F?d?F?$KO?0?Q?$MA?0?R?$LG?0?$LJ?G?0?p?$KE?M?A?0@ ; `string'
PUBLIC	??_C@_0JH@NACLGOBJ@C?$LN?G?$LJ?v?$LG?s?$LA?o?0?H?$KP?$LL?$PN?F?d?F?$KO?0?Q?$MA?0?R?$LG?0?$LJ?G?0?p?$KE?M@ ; `string'
PUBLIC	??_C@_0JF@MBEEKAJI@C?G?$KK?E?W?$LG?s?0?H?$KP?$LL?$PN?F?d?F?$KO?0?Q?$MA?0?R?$LG?0?$LJ?G?0?p?$KE?M?A?0@ ; `string'
PUBLIC	??_C@_0JJ@KOBBCMEA@C?$LA?q?$LF?e?E?W?$LG?s?$LA?o?0?H?$KP?$LL?$PN?F?d?F?$KO?0?Q?$MA?0?R?$LG?0?$LJ?G?0?p@ ; `string'
PUBLIC	??_C@_0JF@GEIKBEIB@C?E?W?$LG?s?$LF?$LH?0?H?$KP?$LL?$PN?F?d?F?$KO?0?Q?$MA?0?R?$LG?0?$LJ?G?0?p?$KE?M?A?0@ ; `string'
PUBLIC	??_C@_0JC@HEJOCGCM@?G?$LD?$LI?$LG?0?C?$LF?A?v?F?d?F?$KO?0?Q?$MA?0?R?$LG?0?$LJ?G?0?p?$KE?M?A?0130@ ; `string'
PUBLIC	??_C@_0JD@DLBCOCO@C?G?$LD?$LI?$LG?0?H?$KP?$LL?$PN?F?d?F?$KO?0?Q?$MA?0?R?$LG?0?$LJ?G?0?p?$KE?M?A?023@ ; `string'
PUBLIC	??_C@_0JF@GDGGIOMN@?$LA?$KB?$LI?$KD?$LA?$KB?$LI?$KD?0VIP?F?d?F?$KO?0?Q?$MA?0?R?$LG?0?$LJ?G?0?p?$KE?M?A?0@ ; `string'
PUBLIC	??_C@_0JB@KGPHACLB@?H?f?G?$LD?0VIP?F?d?F?$KO?0?Q?$MA?0?R?$LG?0?$LJ?G?0?p?$KE?M?A?01312@ ; `string'
PUBLIC	??_C@_0JB@GFEDOCJB@?$LH?Q?G?A?0VIP?F?d?F?$KO?0?Q?$MA?0?R?$LG?0?$LJ?G?0?p?$KE?M?A?01313@ ; `string'
PUBLIC	??_C@_0JB@DOFPEEMA@?$LH?g?$LK?q?0VIP?F?d?F?$KO?0?Q?$MA?0?R?$LG?0?$LJ?G?0?p?$KE?M?A?01314@ ; `string'
PUBLIC	??_C@_0JH@EGBFPBOA@C?$LA?$KB?$LI?$KD?$LA?$KB?$LI?$KD?0?H?$KP?$LL?$PN?F?d?F?$KO?0?Q?$MA?0?R?$LG?0?$LJ?G?0?p?$KE?M@ ; `string'
PUBLIC	??_C@_0JD@HKJMGBML@C?H?f?G?$LD?0?H?$KP?$LL?$PN?F?d?F?$KO?0?Q?$MA?0?R?$LG?0?$LJ?G?0?p?$KE?M?A?023@ ; `string'
PUBLIC	??_C@_0JD@MCPJIEEP@C?$LH?Q?G?A?0?H?$KP?$LL?$PN?F?d?F?$KO?0?Q?$MA?0?R?$LG?0?$LJ?G?0?p?$KE?M?A?023@ ; `string'
PUBLIC	??_C@_0JD@MFFCDEDD@C?$LH?g?$LK?q?0?H?$KP?$LL?$PN?F?d?F?$KO?0?Q?$MA?0?R?$LG?0?$LJ?G?0?p?$KE?M?A?023@ ; `string'
PUBLIC	??_C@_0JC@MOJEOOME@?H?f?$LB?M?0?H?$KL?$LK?$LI?F?d?F?$KO?0?Q?$MA?0?R?$LG?0?$LJ?G?0?p?$KE?M?A?0126@ ; `string'
PUBLIC	??_C@_0JI@DEGBEBKG@?$LN?$LK?D?L?$LF?e?$LH?$KB?$LA?o?0?H?$KL?$LK?$LI?F?d?F?$KO?0?Q?$MA?0?R?$LG?0?$LJ?G?0?p?$KE@ ; `string'
PUBLIC	??_C@_0JD@CJDKJIGF@C?H?f?$LB?M?0?D?$LO?0?H?$KP?$LL?$PN?F?d?F?$KO?0?R?$LG?0?$LJ?G?0?p?$KE?M?A?022@ ; `string'
PUBLIC	??_C@_0JJ@EBBOBMMF@C?$LN?$LK?D?L?$LF?e?$LH?$KB?$LA?o?0?H?$KP?$LL?$PN?F?d?F?$KO?0?Q?$MA?0?R?$LG?0?$LJ?G?0?p@ ; `string'
PUBLIC	??_C@_0JF@ENKKHHPE@?$LE?Y?E?$KJ?$LJ?$KL?$MA?L?0VIP?F?d?F?$KO?0?Q?$MA?0?R?$LG?0?$LJ?G?0?p?$KE?M?A?0@ ; `string'
PUBLIC	??_C@_0JH@IHMHJMJE@?$LO?O?H?f?$LA?q?$LH?N?$LN?$LK?0VIP?F?d?F?$KO?0?Q?$MA?0?R?$LG?0?$LJ?G?0?p?$KE?M@ ; `string'
PUBLIC	??_C@_0JF@DCPFGDIO@?$LA?$KB?$LH?P?$LA?m?$LI?$KD?0VIP?F?d?F?$KO?0?Q?$MA?0?R?$LG?0?$LJ?G?0?p?$KE?M?A?0@ ; `string'
PUBLIC	??_C@_0JF@OFGKLBCN@?H?f?$LA?$KF?G?$KK?$LN?$LK?0VIP?F?d?F?$KO?0?Q?$MA?0?R?$LG?0?$LJ?G?0?p?$KE?M?A?0@ ; `string'
PUBLIC	??_C@_0JH@JGAGMICM@C?$LE?Y?E?$KJ?$LJ?$KL?$MA?L?0?H?$KP?$LL?$PN?F?d?F?$KO?0?Q?$MA?0?R?$LG?0?$LJ?G?0?p?$KE?M@ ; `string'
PUBLIC	??_C@_0JI@BFFGFAJE@C?$LO?O?H?f?$LA?q?$LH?N?$LN?$LK?0?H?$KP?$LL?$PN?F?d?F?$KO?0?Q?$MA?0?R?$LG?0?$LJ?G?0?p@ ; `string'
PUBLIC	??_C@_0JH@GMICMNGG@C?$LA?$KB?$LH?P?$LA?m?$LI?$KD?0?H?$KP?$LL?$PN?F?d?F?$KO?0?Q?$MA?0?R?$LG?0?$LJ?G?0?p?$KE?M@ ; `string'
PUBLIC	??_C@_0JH@FLCFEGAO@C?H?f?$LA?$KF?G?$KK?$LN?$LK?0?H?$KP?$LL?$PN?F?d?F?$KO?0?Q?$MA?0?R?$LG?0?$LJ?G?0?p?$KE?M@ ; `string'
PUBLIC	??_C@_0JD@HNLFJDIA@?$LP?$KE?E?$KJ?$LH?P?0?$LI?$LO?D?m2?B?w?0?Q?$MA?0?R?$LG?0?$LJ?G?0?p?$KE?M?A?012@ ; `string'
PUBLIC	??_C@_0JF@BFCJHAMK@?$LK?N?$LH?g?$LI?$LG?$LH?g?0VIP?F?d?F?$KO?0?Q?$MA?0?R?$LG?0?$LJ?G?0?p?$KE?M?A?0@ ; `string'
PUBLIC	??_C@_0JF@HMAKNHF@?F?D?$MA?L?$LI?$LG?$LH?g?0VIP?F?d?F?$KO?0?Q?$MA?0?R?$LG?0?$LJ?G?0?p?$KE?M?A?0@ ; `string'
PUBLIC	??_C@_0JF@KMHGDDDJ@C?$LP?$KE?E?$KJ?$LH?P?0?H?$KP?$LL?$PN?F?d?F?$KO?0?Q?$MA?0?R?$LG?0?$LJ?G?0?p?$KE?M?A?0@ ; `string'
PUBLIC	??_C@_0JH@BAODKMCP@C?$LK?N?$LH?g?$LI?$LG?$LH?g?0?H?$KP?$LL?$PN?F?d?F?$KO?0?Q?$MA?0?R?$LG?0?$LJ?G?0?p?$KE?M@ ; `string'
PUBLIC	??_C@_0JH@FNGLFLAO@C?F?D?$MA?L?$LI?$LG?$LH?g?0?H?$KP?$LL?$PN?F?d?F?$KO?0?Q?$MA?0?R?$LG?0?$LJ?G?0?p?$KE?M@ ; `string'
PUBLIC	??_C@_0JF@MNAHPJND@?$LO?n?$LI?$LA?$LD?n?$LD?n?0VIP?$LL?L?$LB?b?0?Q?$MA?0?R?$LG?0?$LJ?G?0?p?$KE?M?A?0@ ; `string'
PUBLIC	??_C@_0JF@PHCKJBLA@?$LO?n?$LI?$LA?$LF?$LJ?$LF?$LJ?0VIP?$LL?L?$LB?b?0?Q?$MA?0?R?$LG?0?$LJ?G?0?p?$KE?M?A?0@ ; `string'
PUBLIC	??_C@_0JH@FELFMFBF@?$LO?n?$LI?$LA?G?N?$LG?s?$LG?s?0VIP?$LL?L?$LB?b?0?Q?$MA?0?R?$LG?0?$LJ?G?0?p?$KE?M@ ; `string'
PUBLIC	??_C@_0JH@OKNIAHJL@?$LO?n?$LI?$LA?$LA?m?$LH?g?$LH?g?0VIP?$LL?L?$LB?b?0?Q?$MA?0?R?$LG?0?$LJ?G?0?p?$KE?M@ ; `string'
PUBLIC	??_C@_0JH@DNFKFHKO@?$LO?n?$LI?$LA?$LK?$KD?$LI?$KD?$LA?$KB?0VIP?$LL?L?$LB?b?0?Q?$MA?0?R?$LG?0?$LJ?G?0?p?$KE?M@ ; `string'
PUBLIC	??_C@_0JH@IBJFMFKG@?$LO?n?$LI?$LA?$LK?$KD?$LH?g?$LH?g?0VIP?$LL?L?$LB?b?0?Q?$MA?0?R?$LG?0?$LJ?G?0?p?$KE?M@ ; `string'
PUBLIC	??_C@_0JF@GENOHPC@?$LO?n?$LI?$LA?$LA?q?$LA?q?0VIP?$LL?L?$LB?b?0?Q?$MA?0?R?$LG?0?$LJ?G?0?p?$KE?M?A?0@ ; `string'
PUBLIC	??_C@_0JF@DPJNHMNO@?$LO?n?$LI?$LA?$LM?$LK?H?$KD?0VIP?$LL?L?$LB?b?0?Q?$MA?0?R?$LG?0?$LJ?G?0?p?$KE?M?A?0@ ; `string'
PUBLIC	??_C@_0JJ@JOLDLHCK@C?$LO?n?$LI?$LA?$LK?$KD?$LI?$KD?$LA?$KB?0?H?$KP?$LL?$PN?F?d?F?$KO?0?Q?$MA?0?R?$LG?0?$LJ?G?0?p@ ; `string'
PUBLIC	??_C@_0JJ@MAPAEAEM@C?$LO?n?$LI?$LA?$LK?$KD?$LH?g?$LH?g?0?H?$KP?$LL?$PN?F?d?F?$KO?0?Q?$MA?0?R?$LG?0?$LJ?G?0?p@ ; `string'
PUBLIC	??_C@_0JH@PBADKOJH@C?$LO?n?$LI?$LA?$LA?q?$LA?q?0?H?$KP?$LL?$PN?F?d?F?$KO?0?Q?$MA?0?R?$LG?0?$LJ?G?0?p?$KE?M@ ; `string'
PUBLIC	??_C@_0JH@LFLIJKDD@C?$LO?n?$LI?$LA?$LM?$LK?H?$KD?0?H?$KP?$LL?$PN?F?d?F?$KO?0?Q?$MA?0?R?$LG?0?$LJ?G?0?p?$KE?M@ ; `string'
PUBLIC	??_C@_0JH@FIDHMEFA@C?$LO?n?$LI?$LA?$LD?n?$LD?n?0?H?$KP?$LL?$PN?F?d?F?$KO?0?Q?$MA?0?R?$LG?0?$LJ?G?0?p?$KE?M@ ; `string'
PUBLIC	??_C@_0JH@OEFGBAOH@C?$LO?n?$LI?$LA?$LF?$LJ?$LF?$LJ?0?H?$KP?$LL?$PN?F?d?F?$KO?0?Q?$MA?0?R?$LG?0?$LJ?G?0?p?$KE?M@ ; `string'
PUBLIC	??_C@_0JJ@EMCDHFJM@C?$LO?n?$LI?$LA?G?N?$LG?s?$LG?s?0?H?$KP?$LL?$PN?F?d?F?$KO?0?Q?$MA?0?R?$LG?0?$LJ?G?0?p@ ; `string'
PUBLIC	??_C@_0JJ@CFJEBCAE@C?$LO?n?$LI?$LA?$LA?m?$LH?g?$LH?g?0?H?$KP?$LL?$PN?F?d?F?$KO?0?Q?$MA?0?R?$LG?0?$LJ?G?0?p@ ; `string'
PUBLIC	??_C@_0JE@HDOLPIPN@?H?$KN?$LI?$LG?0?$LH?$LJ?$MA?L?$LF?e?F?d?F?$KO?0?Q?$MA?0?R?$LG?0?$LJ?G?0?p?$KE?M?A?01@ ; `string'
PUBLIC	??_C@_0JE@HHLHLPIJ@?$LM?v?$LI?$LG?0?$LH?$LJ?$MA?L?$LF?e?F?d?F?$KO?0?Q?$MA?0?R?$LG?0?$LJ?G?0?p?$KE?M?A?01@ ; `string'
PUBLIC	??_C@_0JD@FLCHGGNP@C?H?$KN?$LI?$LG?0?H?$KP?$LL?$PN?F?d?F?$KO?0?Q?$MA?0?R?$LG?0?$LJ?G?0?p?$KE?M?A?023@ ; `string'
PUBLIC	??_C@_0JD@MPNBADNP@C?$LM?v?$LI?$LG?0?H?$KP?$LL?$PN?F?d?F?$KO?0?Q?$MA?0?R?$LG?0?$LJ?G?0?p?$KE?M?A?023@ ; `string'
PUBLIC	??_C@_0JG@CGNGDEIN@?$CI?$LB?$LI?$CJ?$LJ?i?H?$KD?0?$LI?$LO?D?m?F?d?F?$KO?0?Q?$MA?0?R?$LG?0?$LJ?G?0?p?$KE?M?A@ ; `string'
PUBLIC	??_C@_0JG@HLHODOKO@?$CI?$LB?$LI?$CJ?C?$LL?$LH?f?0?$LI?$LO?D?m?F?d?F?$KO?0?Q?$MA?0?R?$LG?0?$LJ?G?0?p?$KE?M?A@ ; `string'
PUBLIC	??_C@_0JE@HNLANDNH@?$MA?Z?$LG?s?$LK?O?0?$LI?$LO?D?m?F?d?F?$KO?0?Q?$MA?0?R?$LG?0?$LJ?G?0?p?$KE?M?A?01@ ; `string'
PUBLIC	??_C@_0JC@LPNGJONG@?D?$KL?E?$LA?0?$LI?$LO?D?m?F?d?F?$KO?0?Q?$MA?0?R?$LG?0?$LJ?G?0?p?$KE?M?A?0129@ ; `string'
PUBLIC	??_C@_0JH@LEDNCD@C?$CI?$LB?$LI?$CJ?$LJ?i?H?$KD?0?H?$KP?$LL?$PN?F?d?F?$KO?0?Q?$MA?0?R?$LG?0?$LJ?G?0?p?$KE?M@ ; `string'
PUBLIC	??_C@_0JH@FNBMDHAA@C?$CI?$LB?$LI?$CJ?C?$LL?$LH?f?0?H?$KP?$LL?$PN?F?d?F?$KO?0?Q?$MA?0?R?$LG?0?$LJ?G?0?p?$KE?M@ ; `string'
PUBLIC	??_C@_0JF@BAOLIALJ@C?$MA?Z?$LG?s?$LK?O?0?H?$KP?$LL?$PN?F?d?F?$KO?0?Q?$MA?0?R?$LG?0?$LJ?G?0?p?$KE?M?A?0@ ; `string'
PUBLIC	??_C@_0JD@IEJPDPNN@C?D?$KL?E?$LA?0?H?$KP?$LL?$PN?F?d?F?$KO?0?Q?$MA?0?R?$LG?0?$LJ?G?0?p?$KE?M?A?022@ ; `string'
PUBLIC	??_C@_0JD@LIJBCNFB@?$LO?p?$LF?rSD?0VIP?F?d?F?$KO?0?Q?$MA?0?R?$LG?0?$LJ?G?0?p?$KE?M?A?014@ ; `string'
PUBLIC	??_C@_0JH@DMOAEAFH@?D?$KL?$LP?$MA?$LE?P?$LN?$LKSD?0VIP?F?d?F?$KO?0?Q?$MA?0?R?$LG?0?$LJ?G?0?p?$KE?M@ ; `string'
PUBLIC	??_C@_0JB@HFKDLKDB@?$LO?p?$LF?r?0VIP?F?d?F?$KO?0?Q?$MA?0?R?$LG?0?$LJ?G?0?p?$KE?M?A?01402@ ; `string'
PUBLIC	??_C@_0JF@BGNKKLGK@?D?$KL?$LP?$MA?$LE?P?$LN?$LK?0VIP?F?d?F?$KO?0?Q?$MA?0?R?$LG?0?$LJ?G?0?p?$KE?M?A?0@ ; `string'
PUBLIC	??_C@_0JD@JCOJFNFL@?$LJ?i?$LB?b?$LI?$LA?0VIP?F?d?F?$KO?0?Q?$MA?0?R?$LG?0?$LJ?G?0?p?$KE?M?A?014@ ; `string'
PUBLIC	??_C@_0JF@LDALDOKB@?G?l?F?$LM?$LO?FSD?0VIP?F?d?F?$KO?0?Q?$MA?0?R?$LG?0?$LJ?G?0?p?$KE?M?A?0@ ; `string'
PUBLIC	??_C@_0JG@PCNIDCBI@?G?l?F?$LM?$LM?RSD?0VIP?F?d?F?$KO?0?Q?$MA?0?R?$LG?0?$LJ?G?0?p?$KE?M?A?0@ ; `string'
PUBLIC	??_C@_0JD@OADLGODE@?G?l?F?$LM?$LO?F?0VIP?F?d?F?$KO?0?Q?$MA?0?R?$LG?0?$LJ?G?0?p?$KE?M?A?014@ ; `string'
PUBLIC	??_C@_0JF@OMCOLIFK@?$LG?s?$LP?$KE?$LI?$KO?$LO?p?0VIP?F?d?F?$KO?0?Q?$MA?0?R?$LG?0?$LJ?G?0?p?$KE?M?A?0@ ; `string'
PUBLIC	??_C@_0JF@OAPOBMLN@?$LO?O?$LN?$LK?E?$LI?$LH?N?0VIP?F?d?F?$KO?0?Q?$MA?0?R?$LG?0?$LJ?G?0?p?$KE?M?A?0@ ; `string'
PUBLIC	??_C@_0JF@MPODCKIJ@C?$LO?p?$LF?rSD?0?H?$KP?$LL?$PN?F?d?F?$KO?0?Q?$MA?0?R?$LG?0?$LJ?G?0?p?$KE?M?A?0@ ; `string'
PUBLIC	??_C@_0JJ@PLKGPGEJ@C?D?$KL?$LP?$MA?$LE?P?$LN?$LKSD?0?H?$KP?$LL?$PN?F?d?F?$KO?0?Q?$MA?0?R?$LG?0?$LJ?G?0?p@ ; `string'
PUBLIC	??_C@_0JD@MGHNCECO@C?$LO?p?$LF?r?0?H?$KP?$LL?$PN?F?d?F?$KO?0?Q?$MA?0?R?$LG?0?$LJ?G?0?p?$KE?M?A?024@ ; `string'
PUBLIC	??_C@_0JH@ICCPEEPJ@C?D?$KL?$LP?$MA?$LE?P?$LN?$LK?0?H?$KP?$LL?$PN?F?d?F?$KO?0?Q?$MA?0?R?$LG?0?$LJ?G?0?p?$KE?M@ ; `string'
PUBLIC	??_C@_0JF@FJHLOAAI@C?$LJ?i?$LB?b?$LI?$LA?0?H?$KP?$LL?$PN?F?d?F?$KO?0?Q?$MA?0?R?$LG?0?$LJ?G?0?p?$KE?M?A?0@ ; `string'
PUBLIC	??_C@_0JH@LMFOMCBI@C?G?l?F?$LM?$LO?FSD?0?H?$KP?$LL?$PN?F?d?F?$KO?0?Q?$MA?0?R?$LG?0?$LJ?G?0?p?$KE?M@ ; `string'
PUBLIC	??_C@_0JI@BMANOKML@C?G?l?F?$LM?$LM?RSD?0?H?$KP?$LL?$PN?F?d?F?$KO?0?Q?$MA?0?R?$LG?0?$LJ?G?0?p?$KE?M@ ; `string'
PUBLIC	??_C@_0JF@COICGFCL@C?G?l?F?$LM?$LO?F?0?H?$KP?$LL?$PN?F?d?F?$KO?0?Q?$MA?0?R?$LG?0?$LJ?G?0?p?$KE?M?A?0@ ; `string'
PUBLIC	??_C@_0JH@FFEOGJOP@C?$LG?s?$LP?$KE?$LI?$KO?$LO?p?0?H?$KP?$LL?$PN?F?d?F?$KO?0?Q?$MA?0?R?$LG?0?$LJ?G?0?p?$KE?M@ ; `string'
PUBLIC	??_C@_0JH@GPCBONGJ@C?$LO?O?$LN?$LK?E?$LI?$LH?N?0?H?$KP?$LL?$PN?F?d?F?$KO?0?Q?$MA?0?R?$LG?0?$LJ?G?0?p?$KE?M@ ; `string'
PUBLIC	??_C@_0JG@GNIFHPBP@?C?J?$LI?$KD?C?$LM?0?H?$KP?$LL?$PN?$MA?G?$LF?$LF?$LD?$KC?0?Q?$MA?0?R?$LG?0?$LJ?G?0?p?$KE?M?A@ ; `string'
PUBLIC	??_C@_0JF@NENKMDMN@C?C?J?$LI?$KD?C?$LM?0?H?$KP?$LL?$PN?F?d?F?$KO?0?Q?$MA?0?R?$LG?0?$LJ?G?0?p?$KE?M?A?0@ ; `string'
PUBLIC	??_C@_01IHBHIGKO@?0@				; `string'
PUBLIC	??_C@_01JOAMLHOP@?9@				; `string'
PUBLIC	??_C@_02NAAALAOK@?5?$CF@			; `string'
PUBLIC	??_C@_09CPOHEODB@?$CFd?5?1?5?$CF?43f@		; `string'
PUBLIC	??_C@_02DPKJAMEF@?$CFd@				; `string'
PUBLIC	??_C@_04GEFJINEE@?$CF?42f@			; `string'
PUBLIC	??_C@_0BJ@DHFDPMIM@invalid?5vector?5subscript@	; `string'
PUBLIC	??_C@_0BI@CFPLBAOH@invalid?5string?5position@	; `string'
PUBLIC	??_C@_0BA@FOIKENOD@vector?5too?5long@		; `string'
PUBLIC	??_R4exception@std@@6B@				; std::exception::`RTTI Complete Object Locator'
PUBLIC	??_R3exception@std@@8				; std::exception::`RTTI Class Hierarchy Descriptor'
PUBLIC	??_R2exception@std@@8				; std::exception::`RTTI Base Class Array'
PUBLIC	??_R1A@?0A@EA@exception@std@@8			; std::exception::`RTTI Base Class Descriptor at (0,-1,0,64)'
PUBLIC	??_R4bad_alloc@std@@6B@				; std::bad_alloc::`RTTI Complete Object Locator'
PUBLIC	??_R3bad_alloc@std@@8				; std::bad_alloc::`RTTI Class Hierarchy Descriptor'
PUBLIC	??_R2bad_alloc@std@@8				; std::bad_alloc::`RTTI Base Class Array'
PUBLIC	??_R1A@?0A@EA@bad_alloc@std@@8			; std::bad_alloc::`RTTI Base Class Descriptor at (0,-1,0,64)'
PUBLIC	??_R4bad_array_new_length@std@@6B@		; std::bad_array_new_length::`RTTI Complete Object Locator'
PUBLIC	??_R3bad_array_new_length@std@@8		; std::bad_array_new_length::`RTTI Class Hierarchy Descriptor'
PUBLIC	??_R2bad_array_new_length@std@@8		; std::bad_array_new_length::`RTTI Base Class Array'
PUBLIC	??_R1A@?0A@EA@bad_array_new_length@std@@8	; std::bad_array_new_length::`RTTI Base Class Descriptor at (0,-1,0,64)'
PUBLIC	__real@3f9eb851eb851eb8
PUBLIC	__real@3fa999999999999a
PUBLIC	__real@3fb999999999999a
PUBLIC	__real@3feb851eb851eb85
PUBLIC	__real@4010000000000000
PUBLIC	__real@4012000000000000
PUBLIC	__real@4013000000000000
PUBLIC	__real@4013cccccccccccd
PUBLIC	__real@401499999999999a
PUBLIC	__real@4015666666666666
PUBLIC	__real@4016333333333333
PUBLIC	__real@4017000000000000
PUBLIC	__real@4059000000000000
PUBLIC	__xmm@000000550000005a0000005f00000064
EXTRN	??_M@YGXPAXIIP6EX0@Z@Z:PROC			; `eh vector destructor iterator'
EXTRN	??2@YAPAXI@Z:PROC				; operator new
EXTRN	??3@YAXPAXI@Z:PROC				; operator delete
EXTRN	_atexit:PROC
EXTRN	__Init_thread_header:PROC
EXTRN	__Init_thread_abort:PROC
EXTRN	__Init_thread_footer:PROC
EXTRN	__invalid_parameter_noinfo_noreturn:PROC
EXTRN	__errno:PROC
EXTRN	_strtod:PROC
EXTRN	_strtol:PROC
EXTRN	?_Xinvalid_argument@std@@YAXPBD@Z:PROC		; std::_Xinvalid_argument
EXTRN	?_Xlength_error@std@@YAXPBD@Z:PROC		; std::_Xlength_error
EXTRN	?_Xout_of_range@std@@YAXPBD@Z:PROC		; std::_Xout_of_range
EXTRN	___stdio_common_vsprintf:PROC
EXTRN	___std_exception_copy:PROC
EXTRN	___std_exception_destroy:PROC
EXTRN	??_Eexception@std@@UAEPAXI@Z:PROC		; std::exception::`vector deleting destructor'
EXTRN	??_Ebad_alloc@std@@UAEPAXI@Z:PROC		; std::bad_alloc::`vector deleting destructor'
EXTRN	??_Ebad_array_new_length@std@@UAEPAXI@Z:PROC	; std::bad_array_new_length::`vector deleting destructor'
EXTRN	?GetKeyInputFocus@@YAXPAUSTR_BUFFER@@@Z:PROC	; GetKeyInputFocus
EXTRN	?GetAction@@YAPAUaction@@EI@Z:PROC		; GetAction
EXTRN	?DeathAction@@YAXPAUaction@@@Z:PROC		; DeathAction
EXTRN	?StockFontBuffer@@YAHHHDHPADH@Z:PROC		; StockFontBuffer
EXTRN	?StockFontBuffer2@@YAXPAUSTR_BUFFER@@@Z:PROC	; StockFontBuffer2
EXTRN	?lssproto_PETRANK_send@@YAXHH@Z:PROC		; lssproto_PETRANK_send
EXTRN	?StockDispBuffer@@YAHHHEHH@Z:PROC		; StockDispBuffer
EXTRN	?StockBoxDispBuffer@@YAXHHHHEHH@Z:PROC		; StockBoxDispBuffer
EXTRN	?MakeHitBox@@YAHHHHHH@Z:PROC			; MakeHitBox
EXTRN	?CenteringStr@@YAXPAD0H@Z:PROC			; CenteringStr
EXTRN	?pattern@@YAHPAUaction@@HH@Z:PROC		; pattern
EXTRN	?makeStringFromEscaped@@YAPADPAD@Z:PROC		; makeStringFromEscaped
EXTRN	?DeathMenuAction@@YAXXZ:PROC			; DeathMenuAction
EXTRN	?saveUserSetting@@YAHXZ:PROC			; saveUserSetting
EXTRN	?play_se@@YAHHHH@Z:PROC				; play_se
EXTRN	@__security_check_cookie@4:PROC
EXTRN	__CxxThrowException@8:PROC
EXTRN	___CxxFrameHandler3:PROC
EXTRN	__chkstk:PROC
EXTRN	_memchr:PROC
EXTRN	_memcpy:PROC
EXTRN	_memmove:PROC
EXTRN	_memset:PROC
EXTRN	__Init_thread_epoch:DWORD
EXTRN	??_7type_info@@6B@:QWORD			; type_info::`vftable'
EXTRN	?mouse@@3UMOUSE@@A:BYTE				; mouse
EXTRN	?HitDispNo@@3HA:DWORD				; HitDispNo
EXTRN	?sockfd@@3IA:DWORD				; sockfd
EXTRN	?MenuToggleFlag@@3IA:DWORD			; MenuToggleFlag
EXTRN	___security_cookie:DWORD
EXTRN	__fltused:DWORD
EXTRN	__tls_array:DWORD
EXTRN	__tls_index:DWORD
;	COMDAT ?_OptionsStorage@?1??__local_stdio_printf_options@@9@4_KA
_BSS	SEGMENT
?_OptionsStorage@?1??__local_stdio_printf_options@@9@4_KA DQ 01H DUP (?) ; `__local_stdio_printf_options'::`2'::_OptionsStorage
_BSS	ENDS
;	COMDAT ?this_instance@?1??Instance@PetData@@SAAAV2@XZ@4V2@A
_BSS	SEGMENT
?this_instance@?1??Instance@PetData@@SAAAV2@XZ@4V2@A DB 0cH DUP (?) ; `PetData::Instance'::`2'::this_instance
_BSS	ENDS
;	COMDAT ?$TSS0@?1??Instance@PetData@@SAAAV2@XZ@4HA
_BSS	SEGMENT
?$TSS0@?1??Instance@PetData@@SAAAV2@XZ@4HA DD 01H DUP (?) ; `PetData::Instance'::`2'::$TSS0
_BSS	ENDS
;	COMDAT ?this_instance@?1??Instance@PetRanking@@SAAAV2@XZ@4V2@A
_BSS	SEGMENT
?this_instance@?1??Instance@PetRanking@@SAAAV2@XZ@4V2@A DB 0160H DUP (?) ; `PetRanking::Instance'::`2'::this_instance
_BSS	ENDS
;	COMDAT ?$TSS0@?1??Instance@PetRanking@@SAAAV2@XZ@4HA
_BSS	SEGMENT
?$TSS0@?1??Instance@PetRanking@@SAAAV2@XZ@4HA DD 01H DUP (?) ; `PetRanking::Instance'::`2'::$TSS0
_BSS	ENDS
;	COMDAT __xmm@000000550000005a0000005f00000064
CONST	SEGMENT
__xmm@000000550000005a0000005f00000064 DB 'd', 00H, 00H, 00H, '_', 00H, 00H
	DB	00H, 'Z', 00H, 00H, 00H, 'U', 00H, 00H, 00H
CONST	ENDS
;	COMDAT __real@4059000000000000
CONST	SEGMENT
__real@4059000000000000 DQ 04059000000000000r	; 100
CONST	ENDS
;	COMDAT __real@4017000000000000
CONST	SEGMENT
__real@4017000000000000 DQ 04017000000000000r	; 5.75
CONST	ENDS
;	COMDAT __real@4016333333333333
CONST	SEGMENT
__real@4016333333333333 DQ 04016333333333333r	; 5.55
CONST	ENDS
;	COMDAT __real@4015666666666666
CONST	SEGMENT
__real@4015666666666666 DQ 04015666666666666r	; 5.35
CONST	ENDS
;	COMDAT __real@401499999999999a
CONST	SEGMENT
__real@401499999999999a DQ 0401499999999999ar	; 5.15
CONST	ENDS
;	COMDAT __real@4013cccccccccccd
CONST	SEGMENT
__real@4013cccccccccccd DQ 04013cccccccccccdr	; 4.95
CONST	ENDS
;	COMDAT __real@4013000000000000
CONST	SEGMENT
__real@4013000000000000 DQ 04013000000000000r	; 4.75
CONST	ENDS
;	COMDAT __real@4012000000000000
CONST	SEGMENT
__real@4012000000000000 DQ 04012000000000000r	; 4.5
CONST	ENDS
;	COMDAT __real@4010000000000000
CONST	SEGMENT
__real@4010000000000000 DQ 04010000000000000r	; 4
CONST	ENDS
;	COMDAT __real@3feb851eb851eb85
CONST	SEGMENT
__real@3feb851eb851eb85 DQ 03feb851eb851eb85r	; 0.86
CONST	ENDS
;	COMDAT __real@3fb999999999999a
CONST	SEGMENT
__real@3fb999999999999a DQ 03fb999999999999ar	; 0.1
CONST	ENDS
;	COMDAT __real@3fa999999999999a
CONST	SEGMENT
__real@3fa999999999999a DQ 03fa999999999999ar	; 0.05
CONST	ENDS
;	COMDAT __real@3f9eb851eb851eb8
CONST	SEGMENT
__real@3f9eb851eb851eb8 DQ 03f9eb851eb851eb8r	; 0.03
CONST	ENDS
;	COMDAT ??_R1A@?0A@EA@bad_array_new_length@std@@8
rdata$r	SEGMENT
??_R1A@?0A@EA@bad_array_new_length@std@@8 DD FLAT:??_R0?AVbad_array_new_length@std@@@8 ; std::bad_array_new_length::`RTTI Base Class Descriptor at (0,-1,0,64)'
	DD	02H
	DD	00H
	DD	0ffffffffH
	DD	00H
	DD	040H
	DD	FLAT:??_R3bad_array_new_length@std@@8
rdata$r	ENDS
;	COMDAT ??_R2bad_array_new_length@std@@8
rdata$r	SEGMENT
??_R2bad_array_new_length@std@@8 DD FLAT:??_R1A@?0A@EA@bad_array_new_length@std@@8 ; std::bad_array_new_length::`RTTI Base Class Array'
	DD	FLAT:??_R1A@?0A@EA@bad_alloc@std@@8
	DD	FLAT:??_R1A@?0A@EA@exception@std@@8
rdata$r	ENDS
;	COMDAT ??_R3bad_array_new_length@std@@8
rdata$r	SEGMENT
??_R3bad_array_new_length@std@@8 DD 00H			; std::bad_array_new_length::`RTTI Class Hierarchy Descriptor'
	DD	00H
	DD	03H
	DD	FLAT:??_R2bad_array_new_length@std@@8
rdata$r	ENDS
;	COMDAT ??_R4bad_array_new_length@std@@6B@
rdata$r	SEGMENT
??_R4bad_array_new_length@std@@6B@ DD 00H		; std::bad_array_new_length::`RTTI Complete Object Locator'
	DD	00H
	DD	00H
	DD	FLAT:??_R0?AVbad_array_new_length@std@@@8
	DD	FLAT:??_R3bad_array_new_length@std@@8
rdata$r	ENDS
;	COMDAT ??_R1A@?0A@EA@bad_alloc@std@@8
rdata$r	SEGMENT
??_R1A@?0A@EA@bad_alloc@std@@8 DD FLAT:??_R0?AVbad_alloc@std@@@8 ; std::bad_alloc::`RTTI Base Class Descriptor at (0,-1,0,64)'
	DD	01H
	DD	00H
	DD	0ffffffffH
	DD	00H
	DD	040H
	DD	FLAT:??_R3bad_alloc@std@@8
rdata$r	ENDS
;	COMDAT ??_R2bad_alloc@std@@8
rdata$r	SEGMENT
??_R2bad_alloc@std@@8 DD FLAT:??_R1A@?0A@EA@bad_alloc@std@@8 ; std::bad_alloc::`RTTI Base Class Array'
	DD	FLAT:??_R1A@?0A@EA@exception@std@@8
rdata$r	ENDS
;	COMDAT ??_R3bad_alloc@std@@8
rdata$r	SEGMENT
??_R3bad_alloc@std@@8 DD 00H				; std::bad_alloc::`RTTI Class Hierarchy Descriptor'
	DD	00H
	DD	02H
	DD	FLAT:??_R2bad_alloc@std@@8
rdata$r	ENDS
;	COMDAT ??_R4bad_alloc@std@@6B@
rdata$r	SEGMENT
??_R4bad_alloc@std@@6B@ DD 00H				; std::bad_alloc::`RTTI Complete Object Locator'
	DD	00H
	DD	00H
	DD	FLAT:??_R0?AVbad_alloc@std@@@8
	DD	FLAT:??_R3bad_alloc@std@@8
rdata$r	ENDS
;	COMDAT ??_R1A@?0A@EA@exception@std@@8
rdata$r	SEGMENT
??_R1A@?0A@EA@exception@std@@8 DD FLAT:??_R0?AVexception@std@@@8 ; std::exception::`RTTI Base Class Descriptor at (0,-1,0,64)'
	DD	00H
	DD	00H
	DD	0ffffffffH
	DD	00H
	DD	040H
	DD	FLAT:??_R3exception@std@@8
rdata$r	ENDS
;	COMDAT ??_R2exception@std@@8
rdata$r	SEGMENT
??_R2exception@std@@8 DD FLAT:??_R1A@?0A@EA@exception@std@@8 ; std::exception::`RTTI Base Class Array'
rdata$r	ENDS
;	COMDAT ??_R3exception@std@@8
rdata$r	SEGMENT
??_R3exception@std@@8 DD 00H				; std::exception::`RTTI Class Hierarchy Descriptor'
	DD	00H
	DD	01H
	DD	FLAT:??_R2exception@std@@8
rdata$r	ENDS
;	COMDAT ??_R4exception@std@@6B@
rdata$r	SEGMENT
??_R4exception@std@@6B@ DD 00H				; std::exception::`RTTI Complete Object Locator'
	DD	00H
	DD	00H
	DD	FLAT:??_R0?AVexception@std@@@8
	DD	FLAT:??_R3exception@std@@8
rdata$r	ENDS
;	COMDAT ??_C@_0BA@FOIKENOD@vector?5too?5long@
CONST	SEGMENT
??_C@_0BA@FOIKENOD@vector?5too?5long@ DB 'vector too long', 00H ; `string'
CONST	ENDS
;	COMDAT ??_C@_0BI@CFPLBAOH@invalid?5string?5position@
CONST	SEGMENT
??_C@_0BI@CFPLBAOH@invalid?5string?5position@ DB 'invalid string position'
	DB	00H						; `string'
CONST	ENDS
;	COMDAT ??_C@_0BJ@DHFDPMIM@invalid?5vector?5subscript@
CONST	SEGMENT
??_C@_0BJ@DHFDPMIM@invalid?5vector?5subscript@ DB 'invalid vector subscri'
	DB	'pt', 00H					; `string'
CONST	ENDS
;	COMDAT ??_C@_04GEFJINEE@?$CF?42f@
CONST	SEGMENT
??_C@_04GEFJINEE@?$CF?42f@ DB '%.2f', 00H		; `string'
CONST	ENDS
;	COMDAT ??_C@_02DPKJAMEF@?$CFd@
CONST	SEGMENT
??_C@_02DPKJAMEF@?$CFd@ DB '%d', 00H			; `string'
CONST	ENDS
;	COMDAT ??_C@_09CPOHEODB@?$CFd?5?1?5?$CF?43f@
CONST	SEGMENT
??_C@_09CPOHEODB@?$CFd?5?1?5?$CF?43f@ DB '%d / %.3f', 00H ; `string'
CONST	ENDS
;	COMDAT ??_C@_02NAAALAOK@?5?$CF@
CONST	SEGMENT
??_C@_02NAAALAOK@?5?$CF@ DB ' %', 00H			; `string'
CONST	ENDS
;	COMDAT ??_C@_01JOAMLHOP@?9@
CONST	SEGMENT
??_C@_01JOAMLHOP@?9@ DB '-', 00H			; `string'
CONST	ENDS
;	COMDAT ??_C@_01IHBHIGKO@?0@
CONST	SEGMENT
??_C@_01IHBHIGKO@?0@ DB ',', 00H			; `string'
CONST	ENDS
;	COMDAT ??_C@_0JF@NENKMDMN@C?C?J?$LI?$KD?C?$LM?0?H?$KP?$LL?$PN?F?d?F?$KO?0?Q?$MA?0?R?$LG?0?$LJ?G?0?p?$KE?M?A?0@
CONST	SEGMENT
??_C@_0JF@NENKMDMN@C?C?J?$LI?$KD?C?$LM?0?H?$KP?$LL?$PN?F?d?F?$KO?0?Q?$MA?0?R?$LG?0?$LJ?G?0?p?$KE?M?A?0@ DB 'C'
	DB	0c3H, 0caH, 0b8H, 0a3H, 0c3H, 0bcH, ',', 0c8H, 0afH, 0bbH, 0fdH
	DB	0c6H, 0e4H, 0c6H, 0aeH, ',', 0d1H, 0c0H, ',', 0d2H, 0b6H, ',', 0b9H
	DB	0c7H, ',', 0f0H, 0a4H, 0cdH, 0c1H, ',2410,30,5.00,36,51,47,38,'
	DB	'19,3,90,10,0,0,0,0,0,0,0,0,1,2,,,,,,0,3,3,3,130821,1,1,,0,500'
	DB	',,0,500,,0,500,,0,500,,0,500,,6', 00H	; `string'
CONST	ENDS
;	COMDAT ??_C@_0JG@GNIFHPBP@?C?J?$LI?$KD?C?$LM?0?H?$KP?$LL?$PN?$MA?G?$LF?$LF?$LD?$KC?0?Q?$MA?0?R?$LG?0?$LJ?G?0?p?$KE?M?A@
CONST	SEGMENT
??_C@_0JG@GNIFHPBP@?C?J?$LI?$KD?C?$LM?0?H?$KP?$LL?$PN?$MA?G?$LF?$LF?$LD?$KC?0?Q?$MA?0?R?$LG?0?$LJ?G?0?p?$KE?M?A@ DB 0c3H
	DB	0caH, 0b8H, 0a3H, 0c3H, 0bcH, ',', 0c8H, 0afH, 0bbH, 0fdH, 0c0H
	DB	0c7H, 0b5H, 0b5H, 0b3H, 0a2H, ',', 0d1H, 0c0H, ',', 0d2H, 0b6H
	DB	',', 0b9H, 0c7H, ',', 0f0H, 0a4H, 0cdH, 0c1H, ',1410,30,5.00,3'
	DB	'3,46,43,35,19,3,90,10,0,0,0,0,0,0,0,0,1,2,,,,,,0,3,3,3,130821'
	DB	',1,1,,0,500,,0,500,,0,500,,0,500,,0,500,,6', 00H ; `string'
CONST	ENDS
;	COMDAT ??_C@_0JH@GPCBONGJ@C?$LO?O?$LN?$LK?E?$LI?$LH?N?0?H?$KP?$LL?$PN?F?d?F?$KO?0?Q?$MA?0?R?$LG?0?$LJ?G?0?p?$KE?M@
CONST	SEGMENT
??_C@_0JH@GPCBONGJ@C?$LO?O?$LN?$LK?E?$LI?$LH?N?0?H?$KP?$LL?$PN?F?d?F?$KO?0?Q?$MA?0?R?$LG?0?$LJ?G?0?p?$KE?M@ DB 'C'
	DB	0beH, 0cfH, 0bdH, 0baH, 0c5H, 0b8H, 0b7H, 0ceH, ',', 0c8H, 0afH
	DB	0bbH, 0fdH, 0c6H, 0e4H, 0c6H, 0aeH, ',', 0d1H, 0c0H, ',', 0d2H
	DB	0b6H, ',', 0b9H, 0c7H, ',', 0f0H, 0a4H, 0cdH, 0c1H, ',2409,30,'
	DB	'5.00,27,51,29,56,19,3,0,0,100,0,0,0,0,0,0,0,1,2,,,,,,0,7,7,7,'
	DB	'130949,1,1,,0,500,,0,500,,0,500,,0,500,,0,500,,6', 00H ; `string'
CONST	ENDS
;	COMDAT ??_C@_0JH@FFEOGJOP@C?$LG?s?$LP?$KE?$LI?$KO?$LO?p?0?H?$KP?$LL?$PN?F?d?F?$KO?0?Q?$MA?0?R?$LG?0?$LJ?G?0?p?$KE?M@
CONST	SEGMENT
??_C@_0JH@FFEOGJOP@C?$LG?s?$LP?$KE?$LI?$KO?$LO?p?0?H?$KP?$LL?$PN?F?d?F?$KO?0?Q?$MA?0?R?$LG?0?$LJ?G?0?p?$KE?M@ DB 'C'
	DB	0b6H, 0f3H, 0bfH, 0a4H, 0b8H, 0aeH, 0beH, 0f0H, ',', 0c8H, 0afH
	DB	0bbH, 0fdH, 0c6H, 0e4H, 0c6H, 0aeH, ',', 0d1H, 0c0H, ',', 0d2H
	DB	0b6H, ',', 0b9H, 0c7H, ',', 0f0H, 0a4H, 0cdH, 0c1H, ',2408,30,'
	DB	'5.00,27,51,29,56,19,3,30,0,70,0,0,0,0,0,0,0,1,2,,,,,,0,7,7,7,'
	DB	'101815,1,1,,0,500,,0,500,,0,500,,0,500,,0,500,,6', 00H ; `string'
CONST	ENDS
;	COMDAT ??_C@_0JF@COICGFCL@C?G?l?F?$LM?$LO?F?0?H?$KP?$LL?$PN?F?d?F?$KO?0?Q?$MA?0?R?$LG?0?$LJ?G?0?p?$KE?M?A?0@
CONST	SEGMENT
??_C@_0JF@COICGFCL@C?G?l?F?$LM?$LO?F?0?H?$KP?$LL?$PN?F?d?F?$KO?0?Q?$MA?0?R?$LG?0?$LJ?G?0?p?$KE?M?A?0@ DB 'C'
	DB	0c7H, 0ecH, 0c6H, 0bcH, 0beH, 0c6H, ',', 0c8H, 0afH, 0bbH, 0fdH
	DB	0c6H, 0e4H, 0c6H, 0aeH, ',', 0d1H, 0c0H, ',', 0d2H, 0b6H, ',', 0b9H
	DB	0c7H, ',', 0f0H, 0a4H, 0cdH, 0c1H, ',2407,30,5.00,27,51,29,56,'
	DB	'19,3,0,100,0,0,0,0,0,0,0,0,1,2,,,,,,0,7,7,7,102031,1,1,,0,500'
	DB	',,0,500,,0,500,,0,500,,0,500,,6', 00H	; `string'
CONST	ENDS
;	COMDAT ??_C@_0JI@BMANOKML@C?G?l?F?$LM?$LM?RSD?0?H?$KP?$LL?$PN?F?d?F?$KO?0?Q?$MA?0?R?$LG?0?$LJ?G?0?p?$KE?M@
CONST	SEGMENT
??_C@_0JI@BMANOKML@C?G?l?F?$LM?$LM?RSD?0?H?$KP?$LL?$PN?F?d?F?$KO?0?Q?$MA?0?R?$LG?0?$LJ?G?0?p?$KE?M@ DB 'C'
	DB	0c7H, 0ecH, 0c6H, 0bcH, 0bcH, 0d2H, 'SD,', 0c8H, 0afH, 0bbH, 0fdH
	DB	0c6H, 0e4H, 0c6H, 0aeH, ',', 0d1H, 0c0H, ',', 0d2H, 0b6H, ',', 0b9H
	DB	0c7H, ',', 0f0H, 0a4H, 0cdH, 0c1H, ',2406,30,5.00,27,51,29,56,'
	DB	'19,3,0,40,60,30,0,0,0,0,0,0,1,2,,,,,,0,7,7,7,130485,1,1,,0,50'
	DB	'0,,0,500,,0,500,,0,500,,0,500,,6', 00H	; `string'
CONST	ENDS
;	COMDAT ??_C@_0JH@LMFOMCBI@C?G?l?F?$LM?$LO?FSD?0?H?$KP?$LL?$PN?F?d?F?$KO?0?Q?$MA?0?R?$LG?0?$LJ?G?0?p?$KE?M@
CONST	SEGMENT
??_C@_0JH@LMFOMCBI@C?G?l?F?$LM?$LO?FSD?0?H?$KP?$LL?$PN?F?d?F?$KO?0?Q?$MA?0?R?$LG?0?$LJ?G?0?p?$KE?M@ DB 'C'
	DB	0c7H, 0ecH, 0c6H, 0bcH, 0beH, 0c6H, 'SD,', 0c8H, 0afH, 0bbH, 0fdH
	DB	0c6H, 0e4H, 0c6H, 0aeH, ',', 0d1H, 0c0H, ',', 0d2H, 0b6H, ',', 0b9H
	DB	0c7H, ',', 0f0H, 0a4H, 0cdH, 0c1H, ',2405,30,5.00,27,51,29,56,'
	DB	'19,3,0,100,0,0,0,0,0,0,0,0,1,2,,,,,,0,7,7,7,130483,1,1,,0,500'
	DB	',,0,500,,0,500,,0,500,,0,500,,6', 00H	; `string'
CONST	ENDS
;	COMDAT ??_C@_0JF@FJHLOAAI@C?$LJ?i?$LB?b?$LI?$LA?0?H?$KP?$LL?$PN?F?d?F?$KO?0?Q?$MA?0?R?$LG?0?$LJ?G?0?p?$KE?M?A?0@
CONST	SEGMENT
??_C@_0JF@FJHLOAAI@C?$LJ?i?$LB?b?$LI?$LA?0?H?$KP?$LL?$PN?F?d?F?$KO?0?Q?$MA?0?R?$LG?0?$LJ?G?0?p?$KE?M?A?0@ DB 'C'
	DB	0b9H, 0e9H, 0b1H, 0e2H, 0b8H, 0b0H, ',', 0c8H, 0afH, 0bbH, 0fdH
	DB	0c6H, 0e4H, 0c6H, 0aeH, ',', 0d1H, 0c0H, ',', 0d2H, 0b6H, ',', 0b9H
	DB	0c7H, ',', 0f0H, 0a4H, 0cdH, 0c1H, ',2404,30,5.00,36,51,47,38,'
	DB	'19,3,0,100,0,0,0,0,0,0,0,0,1,2,,,,,,0,7,7,7,130952,1,1,,0,500'
	DB	',,0,500,,0,500,,0,500,,0,500,,6', 00H	; `string'
CONST	ENDS
;	COMDAT ??_C@_0JH@ICCPEEPJ@C?D?$KL?$LP?$MA?$LE?P?$LN?$LK?0?H?$KP?$LL?$PN?F?d?F?$KO?0?Q?$MA?0?R?$LG?0?$LJ?G?0?p?$KE?M@
CONST	SEGMENT
??_C@_0JH@ICCPEEPJ@C?D?$KL?$LP?$MA?$LE?P?$LN?$LK?0?H?$KP?$LL?$PN?F?d?F?$KO?0?Q?$MA?0?R?$LG?0?$LJ?G?0?p?$KE?M@ DB 'C'
	DB	0c4H, 0abH, 0bfH, 0c0H, 0b4H, 0d0H, 0bdH, 0baH, ',', 0c8H, 0afH
	DB	0bbH, 0fdH, 0c6H, 0e4H, 0c6H, 0aeH, ',', 0d1H, 0c0H, ',', 0d2H
	DB	0b6H, ',', 0b9H, 0c7H, ',', 0f0H, 0a4H, 0cdH, 0c1H, ',2403,30,'
	DB	'5.00,36,51,47,38,19,3,0,0,70,30,0,0,0,0,0,0,1,2,,,,,,0,7,7,7,'
	DB	'102088,1,1,,0,500,,0,500,,0,500,,0,500,,0,500,,6', 00H ; `string'
CONST	ENDS
;	COMDAT ??_C@_0JD@MGHNCECO@C?$LO?p?$LF?r?0?H?$KP?$LL?$PN?F?d?F?$KO?0?Q?$MA?0?R?$LG?0?$LJ?G?0?p?$KE?M?A?024@
CONST	SEGMENT
??_C@_0JD@MGHNCECO@C?$LO?p?$LF?r?0?H?$KP?$LL?$PN?F?d?F?$KO?0?Q?$MA?0?R?$LG?0?$LJ?G?0?p?$KE?M?A?024@ DB 'C'
	DB	0beH, 0f0H, 0b5H, 0f2H, ',', 0c8H, 0afH, 0bbH, 0fdH, 0c6H, 0e4H
	DB	0c6H, 0aeH, ',', 0d1H, 0c0H, ',', 0d2H, 0b6H, ',', 0b9H, 0c7H, ','
	DB	0f0H, 0a4H, 0cdH, 0c1H, ',2402,30,5.00,36,51,47,38,19,3,0,10,9'
	DB	'0,0,0,0,0,0,0,0,1,2,,,,,,0,7,7,7,102072,1,1,,0,500,,0,500,,0,'
	DB	'500,,0,500,,0,500,,6', 00H			; `string'
CONST	ENDS
;	COMDAT ??_C@_0JJ@PLKGPGEJ@C?D?$KL?$LP?$MA?$LE?P?$LN?$LKSD?0?H?$KP?$LL?$PN?F?d?F?$KO?0?Q?$MA?0?R?$LG?0?$LJ?G?0?p@
CONST	SEGMENT
??_C@_0JJ@PLKGPGEJ@C?D?$KL?$LP?$MA?$LE?P?$LN?$LKSD?0?H?$KP?$LL?$PN?F?d?F?$KO?0?Q?$MA?0?R?$LG?0?$LJ?G?0?p@ DB 'C'
	DB	0c4H, 0abH, 0bfH, 0c0H, 0b4H, 0d0H, 0bdH, 0baH, 'SD,', 0c8H, 0afH
	DB	0bbH, 0fdH, 0c6H, 0e4H, 0c6H, 0aeH, ',', 0d1H, 0c0H, ',', 0d2H
	DB	0b6H, ',', 0b9H, 0c7H, ',', 0f0H, 0a4H, 0cdH, 0c1H, ',2401,30,'
	DB	'5.00,36,51,47,38,19,3,0,0,70,30,0,0,0,0,0,0,1,2,,,,,,0,7,7,7,'
	DB	'130455,1,1,,0,500,,0,500,,0,500,,0,500,,0,500,,6', 00H ; `string'
CONST	ENDS
;	COMDAT ??_C@_0JF@MPODCKIJ@C?$LO?p?$LF?rSD?0?H?$KP?$LL?$PN?F?d?F?$KO?0?Q?$MA?0?R?$LG?0?$LJ?G?0?p?$KE?M?A?0@
CONST	SEGMENT
??_C@_0JF@MPODCKIJ@C?$LO?p?$LF?rSD?0?H?$KP?$LL?$PN?F?d?F?$KO?0?Q?$MA?0?R?$LG?0?$LJ?G?0?p?$KE?M?A?0@ DB 'C'
	DB	0beH, 0f0H, 0b5H, 0f2H, 'SD,', 0c8H, 0afH, 0bbH, 0fdH, 0c6H, 0e4H
	DB	0c6H, 0aeH, ',', 0d1H, 0c0H, ',', 0d2H, 0b6H, ',', 0b9H, 0c7H, ','
	DB	0f0H, 0a4H, 0cdH, 0c1H, ',2400,30,5.00,36,51,47,38,19,3,0,10,9'
	DB	'0,0,0,0,0,0,0,0,1,2,,,,,,0,7,7,7,130449,1,1,,0,500,,0,500,,0,'
	DB	'500,,0,500,,0,500,,6', 00H			; `string'
CONST	ENDS
;	COMDAT ??_C@_0JF@OAPOBMLN@?$LO?O?$LN?$LK?E?$LI?$LH?N?0VIP?F?d?F?$KO?0?Q?$MA?0?R?$LG?0?$LJ?G?0?p?$KE?M?A?0@
CONST	SEGMENT
??_C@_0JF@OAPOBMLN@?$LO?O?$LN?$LK?E?$LI?$LH?N?0VIP?F?d?F?$KO?0?Q?$MA?0?R?$LG?0?$LJ?G?0?p?$KE?M?A?0@ DB 0beH
	DB	0cfH, 0bdH, 0baH, 0c5H, 0b8H, 0b7H, 0ceH, ',VIP', 0c6H, 0e4H, 0c6H
	DB	0aeH, ',', 0d1H, 0c0H, ',', 0d2H, 0b6H, ',', 0b9H, 0c7H, ',', 0f0H
	DB	0a4H, 0cdH, 0c1H, ',1409,30,5.00,24,48,26,51,19,3,0,0,100,0,0,'
	DB	'0,0,0,0,0,1,2,,,,,,0,7,7,7,130949,1,1,,0,500,,0,500,,0,500,,0'
	DB	',500,,0,500,,6', 00H			; `string'
CONST	ENDS
;	COMDAT ??_C@_0JF@OMCOLIFK@?$LG?s?$LP?$KE?$LI?$KO?$LO?p?0VIP?F?d?F?$KO?0?Q?$MA?0?R?$LG?0?$LJ?G?0?p?$KE?M?A?0@
CONST	SEGMENT
??_C@_0JF@OMCOLIFK@?$LG?s?$LP?$KE?$LI?$KO?$LO?p?0VIP?F?d?F?$KO?0?Q?$MA?0?R?$LG?0?$LJ?G?0?p?$KE?M?A?0@ DB 0b6H
	DB	0f3H, 0bfH, 0a4H, 0b8H, 0aeH, 0beH, 0f0H, ',VIP', 0c6H, 0e4H, 0c6H
	DB	0aeH, ',', 0d1H, 0c0H, ',', 0d2H, 0b6H, ',', 0b9H, 0c7H, ',', 0f0H
	DB	0a4H, 0cdH, 0c1H, ',1408,30,5.00,24,48,26,51,19,3,30,0,70,0,0,'
	DB	'0,0,0,0,0,1,2,,,,,,0,7,7,7,101815,1,1,,0,500,,0,500,,0,500,,0'
	DB	',500,,0,500,,6', 00H			; `string'
CONST	ENDS
;	COMDAT ??_C@_0JD@OADLGODE@?G?l?F?$LM?$LO?F?0VIP?F?d?F?$KO?0?Q?$MA?0?R?$LG?0?$LJ?G?0?p?$KE?M?A?014@
CONST	SEGMENT
??_C@_0JD@OADLGODE@?G?l?F?$LM?$LO?F?0VIP?F?d?F?$KO?0?Q?$MA?0?R?$LG?0?$LJ?G?0?p?$KE?M?A?014@ DB 0c7H
	DB	0ecH, 0c6H, 0bcH, 0beH, 0c6H, ',VIP', 0c6H, 0e4H, 0c6H, 0aeH, ','
	DB	0d1H, 0c0H, ',', 0d2H, 0b6H, ',', 0b9H, 0c7H, ',', 0f0H, 0a4H, 0cdH
	DB	0c1H, ',1407,30,5.00,24,48,26,51,19,3,0,100,0,0,0,0,0,0,0,0,1,'
	DB	'2,,,,,,0,7,7,7,102031,1,1,,0,500,,0,500,,0,500,,0,500,,0,500,'
	DB	',6', 00H					; `string'
CONST	ENDS
;	COMDAT ??_C@_0JG@PCNIDCBI@?G?l?F?$LM?$LM?RSD?0VIP?F?d?F?$KO?0?Q?$MA?0?R?$LG?0?$LJ?G?0?p?$KE?M?A?0@
CONST	SEGMENT
??_C@_0JG@PCNIDCBI@?G?l?F?$LM?$LM?RSD?0VIP?F?d?F?$KO?0?Q?$MA?0?R?$LG?0?$LJ?G?0?p?$KE?M?A?0@ DB 0c7H
	DB	0ecH, 0c6H, 0bcH, 0bcH, 0d2H, 'SD,VIP', 0c6H, 0e4H, 0c6H, 0aeH
	DB	',', 0d1H, 0c0H, ',', 0d2H, 0b6H, ',', 0b9H, 0c7H, ',', 0f0H, 0a4H
	DB	0cdH, 0c1H, ',1406,30,5.00,24,48,26,51,19,3,0,40,60,30,0,0,0,0'
	DB	',0,0,1,2,,,,,,0,7,7,7,130485,1,1,,0,500,,0,500,,0,500,,0,500,'
	DB	',0,500,,6', 00H				; `string'
CONST	ENDS
;	COMDAT ??_C@_0JF@LDALDOKB@?G?l?F?$LM?$LO?FSD?0VIP?F?d?F?$KO?0?Q?$MA?0?R?$LG?0?$LJ?G?0?p?$KE?M?A?0@
CONST	SEGMENT
??_C@_0JF@LDALDOKB@?G?l?F?$LM?$LO?FSD?0VIP?F?d?F?$KO?0?Q?$MA?0?R?$LG?0?$LJ?G?0?p?$KE?M?A?0@ DB 0c7H
	DB	0ecH, 0c6H, 0bcH, 0beH, 0c6H, 'SD,VIP', 0c6H, 0e4H, 0c6H, 0aeH
	DB	',', 0d1H, 0c0H, ',', 0d2H, 0b6H, ',', 0b9H, 0c7H, ',', 0f0H, 0a4H
	DB	0cdH, 0c1H, ',1405,30,5.00,24,48,26,51,19,3,0,100,0,0,0,0,0,0,'
	DB	'0,0,1,2,,,,,,0,7,7,7,130483,1,1,,0,500,,0,500,,0,500,,0,500,,'
	DB	'0,500,,6', 00H				; `string'
CONST	ENDS
;	COMDAT ??_C@_0JD@JCOJFNFL@?$LJ?i?$LB?b?$LI?$LA?0VIP?F?d?F?$KO?0?Q?$MA?0?R?$LG?0?$LJ?G?0?p?$KE?M?A?014@
CONST	SEGMENT
??_C@_0JD@JCOJFNFL@?$LJ?i?$LB?b?$LI?$LA?0VIP?F?d?F?$KO?0?Q?$MA?0?R?$LG?0?$LJ?G?0?p?$KE?M?A?014@ DB 0b9H
	DB	0e9H, 0b1H, 0e2H, 0b8H, 0b0H, ',VIP', 0c6H, 0e4H, 0c6H, 0aeH, ','
	DB	0d1H, 0c0H, ',', 0d2H, 0b6H, ',', 0b9H, 0c7H, ',', 0f0H, 0a4H, 0cdH
	DB	0c1H, ',1404,30,5.00,33,46,43,35,19,3,0,100,0,0,0,0,0,0,0,0,1,'
	DB	'2,,,,,,0,7,7,7,130952,1,1,,0,500,,0,500,,0,500,,0,500,,0,500,'
	DB	',6', 00H					; `string'
CONST	ENDS
;	COMDAT ??_C@_0JF@BGNKKLGK@?D?$KL?$LP?$MA?$LE?P?$LN?$LK?0VIP?F?d?F?$KO?0?Q?$MA?0?R?$LG?0?$LJ?G?0?p?$KE?M?A?0@
CONST	SEGMENT
??_C@_0JF@BGNKKLGK@?D?$KL?$LP?$MA?$LE?P?$LN?$LK?0VIP?F?d?F?$KO?0?Q?$MA?0?R?$LG?0?$LJ?G?0?p?$KE?M?A?0@ DB 0c4H
	DB	0abH, 0bfH, 0c0H, 0b4H, 0d0H, 0bdH, 0baH, ',VIP', 0c6H, 0e4H, 0c6H
	DB	0aeH, ',', 0d1H, 0c0H, ',', 0d2H, 0b6H, ',', 0b9H, 0c7H, ',', 0f0H
	DB	0a4H, 0cdH, 0c1H, ',1403,30,5.00,33,46,43,35,19,3,0,0,70,30,0,'
	DB	'0,0,0,0,0,1,2,,,,,,0,7,7,7,102088,1,1,,0,500,,0,500,,0,500,,0'
	DB	',500,,0,500,,6', 00H			; `string'
CONST	ENDS
;	COMDAT ??_C@_0JB@HFKDLKDB@?$LO?p?$LF?r?0VIP?F?d?F?$KO?0?Q?$MA?0?R?$LG?0?$LJ?G?0?p?$KE?M?A?01402@
CONST	SEGMENT
??_C@_0JB@HFKDLKDB@?$LO?p?$LF?r?0VIP?F?d?F?$KO?0?Q?$MA?0?R?$LG?0?$LJ?G?0?p?$KE?M?A?01402@ DB 0beH
	DB	0f0H, 0b5H, 0f2H, ',VIP', 0c6H, 0e4H, 0c6H, 0aeH, ',', 0d1H, 0c0H
	DB	',', 0d2H, 0b6H, ',', 0b9H, 0c7H, ',', 0f0H, 0a4H, 0cdH, 0c1H, ','
	DB	'1402,30,5.00,33,46,43,35,19,3,0,10,90,0,0,0,0,0,0,0,1,2,,,,,,'
	DB	'0,7,7,7,102072,1,1,,0,500,,0,500,,0,500,,0,500,,0,500,,6', 00H ; `string'
CONST	ENDS
;	COMDAT ??_C@_0JH@DMOAEAFH@?D?$KL?$LP?$MA?$LE?P?$LN?$LKSD?0VIP?F?d?F?$KO?0?Q?$MA?0?R?$LG?0?$LJ?G?0?p?$KE?M@
CONST	SEGMENT
??_C@_0JH@DMOAEAFH@?D?$KL?$LP?$MA?$LE?P?$LN?$LKSD?0VIP?F?d?F?$KO?0?Q?$MA?0?R?$LG?0?$LJ?G?0?p?$KE?M@ DB 0c4H
	DB	0abH, 0bfH, 0c0H, 0b4H, 0d0H, 0bdH, 0baH, 'SD,VIP', 0c6H, 0e4H
	DB	0c6H, 0aeH, ',', 0d1H, 0c0H, ',', 0d2H, 0b6H, ',', 0b9H, 0c7H, ','
	DB	0f0H, 0a4H, 0cdH, 0c1H, ',1401,30,5.00,33,46,43,35,19,3,0,0,70'
	DB	',30,0,0,0,0,0,0,1,2,,,,,,0,7,7,7,130455,1,1,,0,500,,0,500,,0,'
	DB	'500,,0,500,,0,500,,6', 00H			; `string'
CONST	ENDS
;	COMDAT ??_C@_0JD@LIJBCNFB@?$LO?p?$LF?rSD?0VIP?F?d?F?$KO?0?Q?$MA?0?R?$LG?0?$LJ?G?0?p?$KE?M?A?014@
CONST	SEGMENT
??_C@_0JD@LIJBCNFB@?$LO?p?$LF?rSD?0VIP?F?d?F?$KO?0?Q?$MA?0?R?$LG?0?$LJ?G?0?p?$KE?M?A?014@ DB 0beH
	DB	0f0H, 0b5H, 0f2H, 'SD,VIP', 0c6H, 0e4H, 0c6H, 0aeH, ',', 0d1H, 0c0H
	DB	',', 0d2H, 0b6H, ',', 0b9H, 0c7H, ',', 0f0H, 0a4H, 0cdH, 0c1H, ','
	DB	'1400,30,5.00,33,46,43,35,19,3,0,10,90,0,0,0,0,0,0,0,1,2,,,,,,'
	DB	'0,7,7,7,130449,1,1,,0,500,,0,500,,0,500,,0,500,,0,500,,6', 00H ; `string'
CONST	ENDS
;	COMDAT ??_C@_0JD@IEJPDPNN@C?D?$KL?E?$LA?0?H?$KP?$LL?$PN?F?d?F?$KO?0?Q?$MA?0?R?$LG?0?$LJ?G?0?p?$KE?M?A?022@
CONST	SEGMENT
??_C@_0JD@IEJPDPNN@C?D?$KL?E?$LA?0?H?$KP?$LL?$PN?F?d?F?$KO?0?Q?$MA?0?R?$LG?0?$LJ?G?0?p?$KE?M?A?022@ DB 'C'
	DB	0c4H, 0abH, 0c5H, 0b0H, ',', 0c8H, 0afH, 0bbH, 0fdH, 0c6H, 0e4H
	DB	0c6H, 0aeH, ',', 0d1H, 0c0H, ',', 0d2H, 0b6H, ',', 0b9H, 0c7H, ','
	DB	0f0H, 0a4H, 0cdH, 0c1H, ',2293,30,5.00,27,51,29,56,19,3,0,0,10'
	DB	'0,0,0,0,0,0,0,0,1,2,,,,,,0,7,7,7,100370,1,1,,0,500,,0,500,,0,'
	DB	'500,,0,500,,0,500,,6', 00H			; `string'
CONST	ENDS
;	COMDAT ??_C@_0JF@BAOLIALJ@C?$MA?Z?$LG?s?$LK?O?0?H?$KP?$LL?$PN?F?d?F?$KO?0?Q?$MA?0?R?$LG?0?$LJ?G?0?p?$KE?M?A?0@
CONST	SEGMENT
??_C@_0JF@BAOLIALJ@C?$MA?Z?$LG?s?$LK?O?0?H?$KP?$LL?$PN?F?d?F?$KO?0?Q?$MA?0?R?$LG?0?$LJ?G?0?p?$KE?M?A?0@ DB 'C'
	DB	0c0H, 0daH, 0b6H, 0f3H, 0baH, 0cfH, ',', 0c8H, 0afH, 0bbH, 0fdH
	DB	0c6H, 0e4H, 0c6H, 0aeH, ',', 0d1H, 0c0H, ',', 0d2H, 0b6H, ',', 0b9H
	DB	0c7H, ',', 0f0H, 0a4H, 0cdH, 0c1H, ',2292,30,5.00,27,51,29,56,'
	DB	'19,3,100,0,0,0,0,0,0,0,0,0,1,2,,,,,,0,7,7,7,100841,1,1,,0,500'
	DB	',,0,500,,0,500,,0,500,,0,500,,6', 00H	; `string'
CONST	ENDS
;	COMDAT ??_C@_0JH@FNBMDHAA@C?$CI?$LB?$LI?$CJ?C?$LL?$LH?f?0?H?$KP?$LL?$PN?F?d?F?$KO?0?Q?$MA?0?R?$LG?0?$LJ?G?0?p?$KE?M@
CONST	SEGMENT
??_C@_0JH@FNBMDHAA@C?$CI?$LB?$LI?$CJ?C?$LL?$LH?f?0?H?$KP?$LL?$PN?F?d?F?$KO?0?Q?$MA?0?R?$LG?0?$LJ?G?0?p?$KE?M@ DB 'C'
	DB	'(', 0b1H, 0b8H, ')', 0c3H, 0bbH, 0b7H, 0e6H, ',', 0c8H, 0afH, 0bbH
	DB	0fdH, 0c6H, 0e4H, 0c6H, 0aeH, ',', 0d1H, 0c0H, ',', 0d2H, 0b6H
	DB	',', 0b9H, 0c7H, ',', 0f0H, 0a4H, 0cdH, 0c1H, ',2291,30,5.00,2'
	DB	'7,51,29,56,19,3,0,0,0,100,0,0,0,0,0,0,1,2,,,,,,0,7,7,7,101180'
	DB	',1,1,,0,500,,0,500,,0,500,,0,500,,0,500,,6', 00H ; `string'
CONST	ENDS
;	COMDAT ??_C@_0JH@LEDNCD@C?$CI?$LB?$LI?$CJ?$LJ?i?H?$KD?0?H?$KP?$LL?$PN?F?d?F?$KO?0?Q?$MA?0?R?$LG?0?$LJ?G?0?p?$KE?M@
CONST	SEGMENT
??_C@_0JH@LEDNCD@C?$CI?$LB?$LI?$CJ?$LJ?i?H?$KD?0?H?$KP?$LL?$PN?F?d?F?$KO?0?Q?$MA?0?R?$LG?0?$LJ?G?0?p?$KE?M@ DB 'C'
	DB	'(', 0b1H, 0b8H, ')', 0b9H, 0e9H, 0c8H, 0a3H, ',', 0c8H, 0afH, 0bbH
	DB	0fdH, 0c6H, 0e4H, 0c6H, 0aeH, ',', 0d1H, 0c0H, ',', 0d2H, 0b6H
	DB	',', 0b9H, 0c7H, ',', 0f0H, 0a4H, 0cdH, 0c1H, ',2290,30,5.00,2'
	DB	'7,51,29,56,19,3,0,100,0,0,0,0,0,0,0,0,1,2,,,,,,0,7,7,7,100872'
	DB	',1,1,,0,500,,0,500,,0,500,,0,500,,0,500,,6', 00H ; `string'
CONST	ENDS
;	COMDAT ??_C@_0JC@LPNGJONG@?D?$KL?E?$LA?0?$LI?$LO?D?m?F?d?F?$KO?0?Q?$MA?0?R?$LG?0?$LJ?G?0?p?$KE?M?A?0129@
CONST	SEGMENT
??_C@_0JC@LPNGJONG@?D?$KL?E?$LA?0?$LI?$LO?D?m?F?d?F?$KO?0?Q?$MA?0?R?$LG?0?$LJ?G?0?p?$KE?M?A?0129@ DB 0c4H
	DB	0abH, 0c5H, 0b0H, ',', 0b8H, 0beH, 0c4H, 0edH, 0c6H, 0e4H, 0c6H
	DB	0aeH, ',', 0d1H, 0c0H, ',', 0d2H, 0b6H, ',', 0b9H, 0c7H, ',', 0f0H
	DB	0a4H, 0cdH, 0c1H, ',1293,30,5.00,24,48,26,51,19,3,0,0,100,0,0,'
	DB	'0,0,0,0,0,1,2,,,,,,0,7,7,7,100370,1,1,,0,500,,0,500,,0,500,,0'
	DB	',500,,0,500,,6', 00H			; `string'
CONST	ENDS
;	COMDAT ??_C@_0JE@HNLANDNH@?$MA?Z?$LG?s?$LK?O?0?$LI?$LO?D?m?F?d?F?$KO?0?Q?$MA?0?R?$LG?0?$LJ?G?0?p?$KE?M?A?01@
CONST	SEGMENT
??_C@_0JE@HNLANDNH@?$MA?Z?$LG?s?$LK?O?0?$LI?$LO?D?m?F?d?F?$KO?0?Q?$MA?0?R?$LG?0?$LJ?G?0?p?$KE?M?A?01@ DB 0c0H
	DB	0daH, 0b6H, 0f3H, 0baH, 0cfH, ',', 0b8H, 0beH, 0c4H, 0edH, 0c6H
	DB	0e4H, 0c6H, 0aeH, ',', 0d1H, 0c0H, ',', 0d2H, 0b6H, ',', 0b9H, 0c7H
	DB	',', 0f0H, 0a4H, 0cdH, 0c1H, ',1292,30,5.00,24,48,26,51,19,3,1'
	DB	'00,0,0,0,0,0,0,0,0,0,1,2,,,,,,0,7,7,7,100841,1,1,,0,500,,0,50'
	DB	'0,,0,500,,0,500,,0,500,,6', 00H		; `string'
CONST	ENDS
;	COMDAT ??_C@_0JG@HLHODOKO@?$CI?$LB?$LI?$CJ?C?$LL?$LH?f?0?$LI?$LO?D?m?F?d?F?$KO?0?Q?$MA?0?R?$LG?0?$LJ?G?0?p?$KE?M?A@
CONST	SEGMENT
??_C@_0JG@HLHODOKO@?$CI?$LB?$LI?$CJ?C?$LL?$LH?f?0?$LI?$LO?D?m?F?d?F?$KO?0?Q?$MA?0?R?$LG?0?$LJ?G?0?p?$KE?M?A@ DB '('
	DB	0b1H, 0b8H, ')', 0c3H, 0bbH, 0b7H, 0e6H, ',', 0b8H, 0beH, 0c4H
	DB	0edH, 0c6H, 0e4H, 0c6H, 0aeH, ',', 0d1H, 0c0H, ',', 0d2H, 0b6H
	DB	',', 0b9H, 0c7H, ',', 0f0H, 0a4H, 0cdH, 0c1H, ',1291,30,5.00,2'
	DB	'4,48,26,51,19,3,0,0,0,100,0,0,0,0,0,0,1,2,,,,,,0,7,7,7,101180'
	DB	',1,1,,0,500,,0,500,,0,500,,0,500,,0,500,,6', 00H ; `string'
CONST	ENDS
;	COMDAT ??_C@_0JG@CGNGDEIN@?$CI?$LB?$LI?$CJ?$LJ?i?H?$KD?0?$LI?$LO?D?m?F?d?F?$KO?0?Q?$MA?0?R?$LG?0?$LJ?G?0?p?$KE?M?A@
CONST	SEGMENT
??_C@_0JG@CGNGDEIN@?$CI?$LB?$LI?$CJ?$LJ?i?H?$KD?0?$LI?$LO?D?m?F?d?F?$KO?0?Q?$MA?0?R?$LG?0?$LJ?G?0?p?$KE?M?A@ DB '('
	DB	0b1H, 0b8H, ')', 0b9H, 0e9H, 0c8H, 0a3H, ',', 0b8H, 0beH, 0c4H
	DB	0edH, 0c6H, 0e4H, 0c6H, 0aeH, ',', 0d1H, 0c0H, ',', 0d2H, 0b6H
	DB	',', 0b9H, 0c7H, ',', 0f0H, 0a4H, 0cdH, 0c1H, ',1290,30,5.00,2'
	DB	'4,48,26,51,19,3,0,100,0,0,0,0,0,0,0,0,1,2,,,,,,0,7,7,7,100872'
	DB	',1,1,,0,500,,0,500,,0,500,,0,500,,0,500,,6', 00H ; `string'
CONST	ENDS
;	COMDAT ??_C@_0JD@MPNBADNP@C?$LM?v?$LI?$LG?0?H?$KP?$LL?$PN?F?d?F?$KO?0?Q?$MA?0?R?$LG?0?$LJ?G?0?p?$KE?M?A?023@
CONST	SEGMENT
??_C@_0JD@MPNBADNP@C?$LM?v?$LI?$LG?0?H?$KP?$LL?$PN?F?d?F?$KO?0?Q?$MA?0?R?$LG?0?$LJ?G?0?p?$KE?M?A?023@ DB 'C'
	DB	0bcH, 0f6H, 0b8H, 0b6H, ',', 0c8H, 0afH, 0bbH, 0fdH, 0c6H, 0e4H
	DB	0c6H, 0aeH, ',', 0d1H, 0c0H, ',', 0d2H, 0b6H, ',', 0b9H, 0c7H, ','
	DB	0f0H, 0a4H, 0cdH, 0c1H, ',2322,30,5.00,34,47,44,33,19,3,0,100,'
	DB	'0,0,0,0,0,0,0,0,1,2,,,,,,0,1,1,5,101442,1,1,,0,500,,0,500,,0,'
	DB	'500,,0,500,,0,500,,6', 00H			; `string'
CONST	ENDS
;	COMDAT ??_C@_0JD@FLCHGGNP@C?H?$KN?$LI?$LG?0?H?$KP?$LL?$PN?F?d?F?$KO?0?Q?$MA?0?R?$LG?0?$LJ?G?0?p?$KE?M?A?023@
CONST	SEGMENT
??_C@_0JD@FLCHGGNP@C?H?$KN?$LI?$LG?0?H?$KP?$LL?$PN?F?d?F?$KO?0?Q?$MA?0?R?$LG?0?$LJ?G?0?p?$KE?M?A?023@ DB 'C'
	DB	0c8H, 0adH, 0b8H, 0b6H, ',', 0c8H, 0afH, 0bbH, 0fdH, 0c6H, 0e4H
	DB	0c6H, 0aeH, ',', 0d1H, 0c0H, ',', 0d2H, 0b6H, ',', 0b9H, 0c7H, ','
	DB	0f0H, 0a4H, 0cdH, 0c1H, ',2321,30,5.00,25,47,26,52,19,3,0,0,10'
	DB	'0,0,0,0,0,0,0,0,1,2,,,,,,0,1,1,5,101437,1,1,,0,500,,0,500,,0,'
	DB	'500,,0,500,,0,500,,6', 00H			; `string'
CONST	ENDS
;	COMDAT ??_C@_0JE@HHLHLPIJ@?$LM?v?$LI?$LG?0?$LH?$LJ?$MA?L?$LF?e?F?d?F?$KO?0?Q?$MA?0?R?$LG?0?$LJ?G?0?p?$KE?M?A?01@
CONST	SEGMENT
??_C@_0JE@HHLHLPIJ@?$LM?v?$LI?$LG?0?$LH?$LJ?$MA?L?$LF?e?F?d?F?$KO?0?Q?$MA?0?R?$LG?0?$LJ?G?0?p?$KE?M?A?01@ DB 0bcH
	DB	0f6H, 0b8H, 0b6H, ',', 0b7H, 0b9H, 0c0H, 0ccH, 0b5H, 0e5H, 0c6H
	DB	0e4H, 0c6H, 0aeH, ',', 0d1H, 0c0H, ',', 0d2H, 0b6H, ',', 0b9H, 0c7H
	DB	',', 0f0H, 0a4H, 0cdH, 0c1H, ',1322,30,5.00,20,27,36,33,27,3,1'
	DB	'00,0,0,0,0,0,0,0,0,0,1,2,,,,,,0,1,1,5,101442,1,1,,0,500,,0,50'
	DB	'0,,0,500,,0,500,,0,500,,6', 00H		; `string'
CONST	ENDS
;	COMDAT ??_C@_0JE@HDOLPIPN@?H?$KN?$LI?$LG?0?$LH?$LJ?$MA?L?$LF?e?F?d?F?$KO?0?Q?$MA?0?R?$LG?0?$LJ?G?0?p?$KE?M?A?01@
CONST	SEGMENT
??_C@_0JE@HDOLPIPN@?H?$KN?$LI?$LG?0?$LH?$LJ?$MA?L?$LF?e?F?d?F?$KO?0?Q?$MA?0?R?$LG?0?$LJ?G?0?p?$KE?M?A?01@ DB 0c8H
	DB	0adH, 0b8H, 0b6H, ',', 0b7H, 0b9H, 0c0H, 0ccH, 0b5H, 0e5H, 0c6H
	DB	0e4H, 0c6H, 0aeH, ',', 0d1H, 0c0H, ',', 0d2H, 0b6H, ',', 0b9H, 0c7H
	DB	',', 0f0H, 0a4H, 0cdH, 0c1H, ',1321,30,5.00,20,39,19,39,19,3,0'
	DB	',0,100,0,0,0,0,0,0,0,1,2,,,,,,0,1,1,5,101437,1,1,,0,500,,0,50'
	DB	'0,,0,500,,0,500,,0,500,,6', 00H		; `string'
CONST	ENDS
;	COMDAT ??_C@_0JJ@CFJEBCAE@C?$LO?n?$LI?$LA?$LA?m?$LH?g?$LH?g?0?H?$KP?$LL?$PN?F?d?F?$KO?0?Q?$MA?0?R?$LG?0?$LJ?G?0?p@
CONST	SEGMENT
??_C@_0JJ@CFJEBCAE@C?$LO?n?$LI?$LA?$LA?m?$LH?g?$LH?g?0?H?$KP?$LL?$PN?F?d?F?$KO?0?Q?$MA?0?R?$LG?0?$LJ?G?0?p@ DB 'C'
	DB	0beH, 0eeH, 0b8H, 0b0H, 0b0H, 0edH, 0b7H, 0e7H, 0b7H, 0e7H, ','
	DB	0c8H, 0afH, 0bbH, 0fdH, 0c6H, 0e4H, 0c6H, 0aeH, ',', 0d1H, 0c0H
	DB	',', 0d2H, 0b6H, ',', 0b9H, 0c7H, ',', 0f0H, 0a4H, 0cdH, 0c1H, ','
	DB	'2287,30,5.00,36,51,47,38,19,3,100,0,0,0,0,0,0,0,0,0,1,2,,,,,,'
	DB	'0,3,3,7,130981,1,1,,0,500,,0,500,,0,500,,0,500,,0,500,,6', 00H ; `string'
CONST	ENDS
;	COMDAT ??_C@_0JJ@EMCDHFJM@C?$LO?n?$LI?$LA?G?N?$LG?s?$LG?s?0?H?$KP?$LL?$PN?F?d?F?$KO?0?Q?$MA?0?R?$LG?0?$LJ?G?0?p@
CONST	SEGMENT
??_C@_0JJ@EMCDHFJM@C?$LO?n?$LI?$LA?G?N?$LG?s?$LG?s?0?H?$KP?$LL?$PN?F?d?F?$KO?0?Q?$MA?0?R?$LG?0?$LJ?G?0?p@ DB 'C'
	DB	0beH, 0eeH, 0b8H, 0b0H, 0c7H, 0ceH, 0b6H, 0f3H, 0b6H, 0f3H, ','
	DB	0c8H, 0afH, 0bbH, 0fdH, 0c6H, 0e4H, 0c6H, 0aeH, ',', 0d1H, 0c0H
	DB	',', 0d2H, 0b6H, ',', 0b9H, 0c7H, ',', 0f0H, 0a4H, 0cdH, 0c1H, ','
	DB	'2286,30,5.00,36,51,47,38,19,3,0,100,0,0,0,0,0,0,0,0,1,2,,,,,,'
	DB	'0,3,3,7,130979,1,1,,0,500,,0,500,,0,500,,0,500,,0,500,,6', 00H ; `string'
CONST	ENDS
;	COMDAT ??_C@_0JH@OEFGBAOH@C?$LO?n?$LI?$LA?$LF?$LJ?$LF?$LJ?0?H?$KP?$LL?$PN?F?d?F?$KO?0?Q?$MA?0?R?$LG?0?$LJ?G?0?p?$KE?M@
CONST	SEGMENT
??_C@_0JH@OEFGBAOH@C?$LO?n?$LI?$LA?$LF?$LJ?$LF?$LJ?0?H?$KP?$LL?$PN?F?d?F?$KO?0?Q?$MA?0?R?$LG?0?$LJ?G?0?p?$KE?M@ DB 'C'
	DB	0beH, 0eeH, 0b8H, 0b0H, 0b5H, 0b9H, 0b5H, 0b9H, ',', 0c8H, 0afH
	DB	0bbH, 0fdH, 0c6H, 0e4H, 0c6H, 0aeH, ',', 0d1H, 0c0H, ',', 0d2H
	DB	0b6H, ',', 0b9H, 0c7H, ',', 0f0H, 0a4H, 0cdH, 0c1H, ',2285,30,'
	DB	'5.00,36,51,47,38,19,3,0,100,0,0,0,0,0,0,0,0,1,2,,,,,,0,3,3,7,'
	DB	'130978,1,1,,0,500,,0,500,,0,500,,0,500,,0,500,,6', 00H ; `string'
CONST	ENDS
;	COMDAT ??_C@_0JH@FIDHMEFA@C?$LO?n?$LI?$LA?$LD?n?$LD?n?0?H?$KP?$LL?$PN?F?d?F?$KO?0?Q?$MA?0?R?$LG?0?$LJ?G?0?p?$KE?M@
CONST	SEGMENT
??_C@_0JH@FIDHMEFA@C?$LO?n?$LI?$LA?$LD?n?$LD?n?0?H?$KP?$LL?$PN?F?d?F?$KO?0?Q?$MA?0?R?$LG?0?$LJ?G?0?p?$KE?M@ DB 'C'
	DB	0beH, 0eeH, 0b8H, 0b0H, 0b3H, 0eeH, 0b3H, 0eeH, ',', 0c8H, 0afH
	DB	0bbH, 0fdH, 0c6H, 0e4H, 0c6H, 0aeH, ',', 0d1H, 0c0H, ',', 0d2H
	DB	0b6H, ',', 0b9H, 0c7H, ',', 0f0H, 0a4H, 0cdH, 0c1H, ',2284,30,'
	DB	'5.00,36,51,47,38,19,3,0,0,0,100,0,0,0,0,0,0,1,2,,,,,,0,3,3,7,'
	DB	'130977,1,1,,0,500,,0,500,,0,500,,0,500,,0,500,,6', 00H ; `string'
CONST	ENDS
;	COMDAT ??_C@_0JH@LFLIJKDD@C?$LO?n?$LI?$LA?$LM?$LK?H?$KD?0?H?$KP?$LL?$PN?F?d?F?$KO?0?Q?$MA?0?R?$LG?0?$LJ?G?0?p?$KE?M@
CONST	SEGMENT
??_C@_0JH@LFLIJKDD@C?$LO?n?$LI?$LA?$LM?$LK?H?$KD?0?H?$KP?$LL?$PN?F?d?F?$KO?0?Q?$MA?0?R?$LG?0?$LJ?G?0?p?$KE?M@ DB 'C'
	DB	0beH, 0eeH, 0b8H, 0b0H, 0bcH, 0baH, 0c8H, 0a3H, ',', 0c8H, 0afH
	DB	0bbH, 0fdH, 0c6H, 0e4H, 0c6H, 0aeH, ',', 0d1H, 0c0H, ',', 0d2H
	DB	0b6H, ',', 0b9H, 0c7H, ',', 0f0H, 0a4H, 0cdH, 0c1H, ',2283,30,'
	DB	'5.00,27,51,29,56,19,3,0,100,0,0,0,0,0,0,0,0,1,2,,,,,,0,3,3,7,'
	DB	'130980,1,1,,0,500,,0,500,,0,500,,0,500,,0,500,,6', 00H ; `string'
CONST	ENDS
;	COMDAT ??_C@_0JH@PBADKOJH@C?$LO?n?$LI?$LA?$LA?q?$LA?q?0?H?$KP?$LL?$PN?F?d?F?$KO?0?Q?$MA?0?R?$LG?0?$LJ?G?0?p?$KE?M@
CONST	SEGMENT
??_C@_0JH@PBADKOJH@C?$LO?n?$LI?$LA?$LA?q?$LA?q?0?H?$KP?$LL?$PN?F?d?F?$KO?0?Q?$MA?0?R?$LG?0?$LJ?G?0?p?$KE?M@ DB 'C'
	DB	0beH, 0eeH, 0b8H, 0b0H, 0b0H, 0f1H, 0b0H, 0f1H, ',', 0c8H, 0afH
	DB	0bbH, 0fdH, 0c6H, 0e4H, 0c6H, 0aeH, ',', 0d1H, 0c0H, ',', 0d2H
	DB	0b6H, ',', 0b9H, 0c7H, ',', 0f0H, 0a4H, 0cdH, 0c1H, ',2282,30,'
	DB	'5.00,27,51,29,56,19,3,0,100,0,0,0,0,0,0,0,0,1,2,,,,,,0,3,3,7,'
	DB	'130976,1,1,,0,500,,0,500,,0,500,,0,500,,0,500,,6', 00H ; `string'
CONST	ENDS
;	COMDAT ??_C@_0JJ@MAPAEAEM@C?$LO?n?$LI?$LA?$LK?$KD?$LH?g?$LH?g?0?H?$KP?$LL?$PN?F?d?F?$KO?0?Q?$MA?0?R?$LG?0?$LJ?G?0?p@
CONST	SEGMENT
??_C@_0JJ@MAPAEAEM@C?$LO?n?$LI?$LA?$LK?$KD?$LH?g?$LH?g?0?H?$KP?$LL?$PN?F?d?F?$KO?0?Q?$MA?0?R?$LG?0?$LJ?G?0?p@ DB 'C'
	DB	0beH, 0eeH, 0b8H, 0b0H, 0baH, 0a3H, 0b7H, 0e7H, 0b7H, 0e7H, ','
	DB	0c8H, 0afH, 0bbH, 0fdH, 0c6H, 0e4H, 0c6H, 0aeH, ',', 0d1H, 0c0H
	DB	',', 0d2H, 0b6H, ',', 0b9H, 0c7H, ',', 0f0H, 0a4H, 0cdH, 0c1H, ','
	DB	'2281,30,5.00,27,51,29,56,19,3,100,0,0,0,0,0,0,0,0,0,1,2,,,,,,'
	DB	'0,3,3,7,130975,1,1,,0,500,,0,500,,0,500,,0,500,,0,500,,6', 00H ; `string'
CONST	ENDS
;	COMDAT ??_C@_0JJ@JOLDLHCK@C?$LO?n?$LI?$LA?$LK?$KD?$LI?$KD?$LA?$KB?0?H?$KP?$LL?$PN?F?d?F?$KO?0?Q?$MA?0?R?$LG?0?$LJ?G?0?p@
CONST	SEGMENT
??_C@_0JJ@JOLDLHCK@C?$LO?n?$LI?$LA?$LK?$KD?$LI?$KD?$LA?$KB?0?H?$KP?$LL?$PN?F?d?F?$KO?0?Q?$MA?0?R?$LG?0?$LJ?G?0?p@ DB 'C'
	DB	0beH, 0eeH, 0b8H, 0b0H, 0baH, 0a3H, 0b8H, 0a3H, 0b0H, 0a1H, ','
	DB	0c8H, 0afH, 0bbH, 0fdH, 0c6H, 0e4H, 0c6H, 0aeH, ',', 0d1H, 0c0H
	DB	',', 0d2H, 0b6H, ',', 0b9H, 0c7H, ',', 0f0H, 0a4H, 0cdH, 0c1H, ','
	DB	'2280,30,5.00,27,51,29,56,19,3,0,100,0,0,0,0,0,0,0,0,1,2,,,,,,'
	DB	'0,3,3,7,130974,1,1,,0,500,,0,500,,0,500,,0,500,,0,500,,6', 00H ; `string'
CONST	ENDS
;	COMDAT ??_C@_0JF@DPJNHMNO@?$LO?n?$LI?$LA?$LM?$LK?H?$KD?0VIP?$LL?L?$LB?b?0?Q?$MA?0?R?$LG?0?$LJ?G?0?p?$KE?M?A?0@
CONST	SEGMENT
??_C@_0JF@DPJNHMNO@?$LO?n?$LI?$LA?$LM?$LK?H?$KD?0VIP?$LL?L?$LB?b?0?Q?$MA?0?R?$LG?0?$LJ?G?0?p?$KE?M?A?0@ DB 0beH
	DB	0eeH, 0b8H, 0b0H, 0bcH, 0baH, 0c8H, 0a3H, ',VIP', 0bbH, 0ccH, 0b1H
	DB	0e2H, ',', 0d1H, 0c0H, ',', 0d2H, 0b6H, ',', 0b9H, 0c7H, ',', 0f0H
	DB	0a4H, 0cdH, 0c1H, ',1283,30,5.00,24,28,47,52,19,3,0,100,0,0,0,'
	DB	'0,0,0,0,0,1,2,,,,,,0,3,3,7,130980,1,1,,0,500,,0,500,,0,500,,0'
	DB	',500,,0,500,,6', 00H			; `string'
CONST	ENDS
;	COMDAT ??_C@_0JF@GENOHPC@?$LO?n?$LI?$LA?$LA?q?$LA?q?0VIP?$LL?L?$LB?b?0?Q?$MA?0?R?$LG?0?$LJ?G?0?p?$KE?M?A?0@
CONST	SEGMENT
??_C@_0JF@GENOHPC@?$LO?n?$LI?$LA?$LA?q?$LA?q?0VIP?$LL?L?$LB?b?0?Q?$MA?0?R?$LG?0?$LJ?G?0?p?$KE?M?A?0@ DB 0beH
	DB	0eeH, 0b8H, 0b0H, 0b0H, 0f1H, 0b0H, 0f1H, ',VIP', 0bbH, 0ccH, 0b1H
	DB	0e2H, ',', 0d1H, 0c0H, ',', 0d2H, 0b6H, ',', 0b9H, 0c7H, ',', 0f0H
	DB	0a4H, 0cdH, 0c1H, ',1282,30,5.00,24,48,26,51,19,3,0,100,0,0,0,'
	DB	'0,0,0,0,0,1,2,,,,,,0,3,3,7,130976,1,1,,0,500,,0,500,,0,500,,0'
	DB	',500,,0,500,,6', 00H			; `string'
CONST	ENDS
;	COMDAT ??_C@_0JH@IBJFMFKG@?$LO?n?$LI?$LA?$LK?$KD?$LH?g?$LH?g?0VIP?$LL?L?$LB?b?0?Q?$MA?0?R?$LG?0?$LJ?G?0?p?$KE?M@
CONST	SEGMENT
??_C@_0JH@IBJFMFKG@?$LO?n?$LI?$LA?$LK?$KD?$LH?g?$LH?g?0VIP?$LL?L?$LB?b?0?Q?$MA?0?R?$LG?0?$LJ?G?0?p?$KE?M@ DB 0beH
	DB	0eeH, 0b8H, 0b0H, 0baH, 0a3H, 0b7H, 0e7H, 0b7H, 0e7H, ',VIP', 0bbH
	DB	0ccH, 0b1H, 0e2H, ',', 0d1H, 0c0H, ',', 0d2H, 0b6H, ',', 0b9H, 0c7H
	DB	',', 0f0H, 0a4H, 0cdH, 0c1H, ',1281,30,5.00,24,48,26,51,19,3,1'
	DB	'00,0,0,0,0,0,0,0,0,0,1,2,,,,,,0,3,3,7,130975,1,1,,0,500,,0,50'
	DB	'0,,0,500,,0,500,,0,500,,6', 00H		; `string'
CONST	ENDS
;	COMDAT ??_C@_0JH@DNFKFHKO@?$LO?n?$LI?$LA?$LK?$KD?$LI?$KD?$LA?$KB?0VIP?$LL?L?$LB?b?0?Q?$MA?0?R?$LG?0?$LJ?G?0?p?$KE?M@
CONST	SEGMENT
??_C@_0JH@DNFKFHKO@?$LO?n?$LI?$LA?$LK?$KD?$LI?$KD?$LA?$KB?0VIP?$LL?L?$LB?b?0?Q?$MA?0?R?$LG?0?$LJ?G?0?p?$KE?M@ DB 0beH
	DB	0eeH, 0b8H, 0b0H, 0baH, 0a3H, 0b8H, 0a3H, 0b0H, 0a1H, ',VIP', 0bbH
	DB	0ccH, 0b1H, 0e2H, ',', 0d1H, 0c0H, ',', 0d2H, 0b6H, ',', 0b9H, 0c7H
	DB	',', 0f0H, 0a4H, 0cdH, 0c1H, ',1280,30,5.00,24,48,26,51,19,3,0'
	DB	',100,0,0,0,0,0,0,0,0,1,2,,,,,,0,3,3,7,130974,1,1,,0,500,,0,50'
	DB	'0,,0,500,,0,500,,0,500,,6', 00H		; `string'
CONST	ENDS
;	COMDAT ??_C@_0JH@OKNIAHJL@?$LO?n?$LI?$LA?$LA?m?$LH?g?$LH?g?0VIP?$LL?L?$LB?b?0?Q?$MA?0?R?$LG?0?$LJ?G?0?p?$KE?M@
CONST	SEGMENT
??_C@_0JH@OKNIAHJL@?$LO?n?$LI?$LA?$LA?m?$LH?g?$LH?g?0VIP?$LL?L?$LB?b?0?Q?$MA?0?R?$LG?0?$LJ?G?0?p?$KE?M@ DB 0beH
	DB	0eeH, 0b8H, 0b0H, 0b0H, 0edH, 0b7H, 0e7H, 0b7H, 0e7H, ',VIP', 0bbH
	DB	0ccH, 0b1H, 0e2H, ',', 0d1H, 0c0H, ',', 0d2H, 0b6H, ',', 0b9H, 0c7H
	DB	',', 0f0H, 0a4H, 0cdH, 0c1H, ',1287,30,5.00,33,46,43,35,19,3,1'
	DB	'00,0,0,0,0,0,0,0,0,0,1,2,,,,,,0,3,3,7,130981,1,1,,0,500,,0,50'
	DB	'0,,0,500,,0,500,,0,500,,6', 00H		; `string'
CONST	ENDS
;	COMDAT ??_C@_0JH@FELFMFBF@?$LO?n?$LI?$LA?G?N?$LG?s?$LG?s?0VIP?$LL?L?$LB?b?0?Q?$MA?0?R?$LG?0?$LJ?G?0?p?$KE?M@
CONST	SEGMENT
??_C@_0JH@FELFMFBF@?$LO?n?$LI?$LA?G?N?$LG?s?$LG?s?0VIP?$LL?L?$LB?b?0?Q?$MA?0?R?$LG?0?$LJ?G?0?p?$KE?M@ DB 0beH
	DB	0eeH, 0b8H, 0b0H, 0c7H, 0ceH, 0b6H, 0f3H, 0b6H, 0f3H, ',VIP', 0bbH
	DB	0ccH, 0b1H, 0e2H, ',', 0d1H, 0c0H, ',', 0d2H, 0b6H, ',', 0b9H, 0c7H
	DB	',', 0f0H, 0a4H, 0cdH, 0c1H, ',1286,30,5.00,33,46,43,35,19,3,0'
	DB	',100,0,0,0,0,0,0,0,0,1,2,,,,,,0,3,3,7,130979,1,1,,0,500,,0,50'
	DB	'0,,0,500,,0,500,,0,500,,6', 00H		; `string'
CONST	ENDS
;	COMDAT ??_C@_0JF@PHCKJBLA@?$LO?n?$LI?$LA?$LF?$LJ?$LF?$LJ?0VIP?$LL?L?$LB?b?0?Q?$MA?0?R?$LG?0?$LJ?G?0?p?$KE?M?A?0@
CONST	SEGMENT
??_C@_0JF@PHCKJBLA@?$LO?n?$LI?$LA?$LF?$LJ?$LF?$LJ?0VIP?$LL?L?$LB?b?0?Q?$MA?0?R?$LG?0?$LJ?G?0?p?$KE?M?A?0@ DB 0beH
	DB	0eeH, 0b8H, 0b0H, 0b5H, 0b9H, 0b5H, 0b9H, ',VIP', 0bbH, 0ccH, 0b1H
	DB	0e2H, ',', 0d1H, 0c0H, ',', 0d2H, 0b6H, ',', 0b9H, 0c7H, ',', 0f0H
	DB	0a4H, 0cdH, 0c1H, ',1285,30,5.00,33,46,43,35,19,3,0,100,0,0,0,'
	DB	'0,0,0,0,0,1,2,,,,,,0,3,3,7,130978,1,1,,0,500,,0,500,,0,500,,0'
	DB	',500,,0,500,,6', 00H			; `string'
CONST	ENDS
;	COMDAT ??_C@_0JF@MNAHPJND@?$LO?n?$LI?$LA?$LD?n?$LD?n?0VIP?$LL?L?$LB?b?0?Q?$MA?0?R?$LG?0?$LJ?G?0?p?$KE?M?A?0@
CONST	SEGMENT
??_C@_0JF@MNAHPJND@?$LO?n?$LI?$LA?$LD?n?$LD?n?0VIP?$LL?L?$LB?b?0?Q?$MA?0?R?$LG?0?$LJ?G?0?p?$KE?M?A?0@ DB 0beH
	DB	0eeH, 0b8H, 0b0H, 0b3H, 0eeH, 0b3H, 0eeH, ',VIP', 0bbH, 0ccH, 0b1H
	DB	0e2H, ',', 0d1H, 0c0H, ',', 0d2H, 0b6H, ',', 0b9H, 0c7H, ',', 0f0H
	DB	0a4H, 0cdH, 0c1H, ',1284,30,5.00,33,46,43,35,19,3,0,0,0,100,0,'
	DB	'0,0,0,0,0,1,2,,,,,,0,3,3,7,130977,1,1,,0,500,,0,500,,0,500,,0'
	DB	',500,,0,500,,6', 00H			; `string'
CONST	ENDS
;	COMDAT ??_C@_0JH@FNGLFLAO@C?F?D?$MA?L?$LI?$LG?$LH?g?0?H?$KP?$LL?$PN?F?d?F?$KO?0?Q?$MA?0?R?$LG?0?$LJ?G?0?p?$KE?M@
CONST	SEGMENT
??_C@_0JH@FNGLFLAO@C?F?D?$MA?L?$LI?$LG?$LH?g?0?H?$KP?$LL?$PN?F?d?F?$KO?0?Q?$MA?0?R?$LG?0?$LJ?G?0?p?$KE?M@ DB 'C'
	DB	0c6H, 0c4H, 0c0H, 0ccH, 0b8H, 0b6H, 0b7H, 0e7H, ',', 0c8H, 0afH
	DB	0bbH, 0fdH, 0c6H, 0e4H, 0c6H, 0aeH, ',', 0d1H, 0c0H, ',', 0d2H
	DB	0b6H, ',', 0b9H, 0c7H, ',', 0f0H, 0a4H, 0cdH, 0c1H, ',2272,30,'
	DB	'5.00,27,51,29,56,19,3,0,0,100,0,0,0,0,0,0,0,1,2,,,,,,0,1,1,5,'
	DB	'102224,1,1,,0,500,,0,500,,0,500,,0,500,,0,500,,6', 00H ; `string'
CONST	ENDS
;	COMDAT ??_C@_0JH@BAODKMCP@C?$LK?N?$LH?g?$LI?$LG?$LH?g?0?H?$KP?$LL?$PN?F?d?F?$KO?0?Q?$MA?0?R?$LG?0?$LJ?G?0?p?$KE?M@
CONST	SEGMENT
??_C@_0JH@BAODKMCP@C?$LK?N?$LH?g?$LI?$LG?$LH?g?0?H?$KP?$LL?$PN?F?d?F?$KO?0?Q?$MA?0?R?$LG?0?$LJ?G?0?p?$KE?M@ DB 'C'
	DB	0baH, 0ceH, 0b7H, 0e7H, 0b8H, 0b6H, 0b7H, 0e7H, ',', 0c8H, 0afH
	DB	0bbH, 0fdH, 0c6H, 0e4H, 0c6H, 0aeH, ',', 0d1H, 0c0H, ',', 0d2H
	DB	0b6H, ',', 0b9H, 0c7H, ',', 0f0H, 0a4H, 0cdH, 0c1H, ',2271,30,'
	DB	'5.00,27,51,29,56,19,3,0,30,70,0,0,0,0,0,0,0,1,2,,,,,,0,1,1,2,'
	DB	'105185,1,1,,0,500,,0,500,,0,500,,0,500,,0,500,,6', 00H ; `string'
CONST	ENDS
;	COMDAT ??_C@_0JF@KMHGDDDJ@C?$LP?$KE?E?$KJ?$LH?P?0?H?$KP?$LL?$PN?F?d?F?$KO?0?Q?$MA?0?R?$LG?0?$LJ?G?0?p?$KE?M?A?0@
CONST	SEGMENT
??_C@_0JF@KMHGDDDJ@C?$LP?$KE?E?$KJ?$LH?P?0?H?$KP?$LL?$PN?F?d?F?$KO?0?Q?$MA?0?R?$LG?0?$LJ?G?0?p?$KE?M?A?0@ DB 'C'
	DB	0bfH, 0a4H, 0c5H, 0a9H, 0b7H, 0d0H, ',', 0c8H, 0afH, 0bbH, 0fdH
	DB	0c6H, 0e4H, 0c6H, 0aeH, ',', 0d1H, 0c0H, ',', 0d2H, 0b6H, ',', 0b9H
	DB	0c7H, ',', 0f0H, 0a4H, 0cdH, 0c1H, ',2270,30,5.00,27,51,29,56,'
	DB	'19,3,0,0,0,100,0,0,0,0,0,0,1,2,,,,,,0,3,3,5,130885,1,1,,0,500'
	DB	',,0,500,,0,500,,0,500,,0,500,,6', 00H	; `string'
CONST	ENDS
;	COMDAT ??_C@_0JF@HMAKNHF@?F?D?$MA?L?$LI?$LG?$LH?g?0VIP?F?d?F?$KO?0?Q?$MA?0?R?$LG?0?$LJ?G?0?p?$KE?M?A?0@
CONST	SEGMENT
??_C@_0JF@HMAKNHF@?F?D?$MA?L?$LI?$LG?$LH?g?0VIP?F?d?F?$KO?0?Q?$MA?0?R?$LG?0?$LJ?G?0?p?$KE?M?A?0@ DB 0c6H
	DB	0c4H, 0c0H, 0ccH, 0b8H, 0b6H, 0b7H, 0e7H, ',VIP', 0c6H, 0e4H, 0c6H
	DB	0aeH, ',', 0d1H, 0c0H, ',', 0d2H, 0b6H, ',', 0b9H, 0c7H, ',', 0f0H
	DB	0a4H, 0cdH, 0c1H, ',1272,30,5.00,24,48,26,51,19,3,0,0,100,0,0,'
	DB	'0,0,0,0,0,1,2,,,,,,0,1,1,5,102224,1,1,,0,500,,0,500,,0,500,,0'
	DB	',500,,0,500,,6', 00H			; `string'
CONST	ENDS
;	COMDAT ??_C@_0JF@BFCJHAMK@?$LK?N?$LH?g?$LI?$LG?$LH?g?0VIP?F?d?F?$KO?0?Q?$MA?0?R?$LG?0?$LJ?G?0?p?$KE?M?A?0@
CONST	SEGMENT
??_C@_0JF@BFCJHAMK@?$LK?N?$LH?g?$LI?$LG?$LH?g?0VIP?F?d?F?$KO?0?Q?$MA?0?R?$LG?0?$LJ?G?0?p?$KE?M?A?0@ DB 0baH
	DB	0ceH, 0b7H, 0e7H, 0b8H, 0b6H, 0b7H, 0e7H, ',VIP', 0c6H, 0e4H, 0c6H
	DB	0aeH, ',', 0d1H, 0c0H, ',', 0d2H, 0b6H, ',', 0b9H, 0c7H, ',', 0f0H
	DB	0a4H, 0cdH, 0c1H, ',1271,30,5.00,24,48,26,51,19,3,0,30,70,0,0,'
	DB	'0,0,0,0,0,1,2,,,,,,0,1,1,2,105185,1,1,,0,500,,0,500,,0,500,,0'
	DB	',500,,0,500,,6', 00H			; `string'
CONST	ENDS
;	COMDAT ??_C@_0JD@HNLFJDIA@?$LP?$KE?E?$KJ?$LH?P?0?$LI?$LO?D?m2?B?w?0?Q?$MA?0?R?$LG?0?$LJ?G?0?p?$KE?M?A?012@
CONST	SEGMENT
??_C@_0JD@HNLFJDIA@?$LP?$KE?E?$KJ?$LH?P?0?$LI?$LO?D?m2?B?w?0?Q?$MA?0?R?$LG?0?$LJ?G?0?p?$KE?M?A?012@ DB 0bfH
	DB	0a4H, 0c5H, 0a9H, 0b7H, 0d0H, ',', 0b8H, 0beH, 0c4H, 0edH, '2', 0c2H
	DB	0f7H, ',', 0d1H, 0c0H, ',', 0d2H, 0b6H, ',', 0b9H, 0c7H, ',', 0f0H
	DB	0a4H, 0cdH, 0c1H, ',1270,30,5.00,24,48,26,51,19,3,0,0,0,100,0,'
	DB	'0,0,0,0,0,1,2,,,,,,0,3,3,7,130885,1,1,,0,500,,0,500,,0,500,,0'
	DB	',500,,0,500,,6', 00H			; `string'
CONST	ENDS
;	COMDAT ??_C@_0JH@FLCFEGAO@C?H?f?$LA?$KF?G?$KK?$LN?$LK?0?H?$KP?$LL?$PN?F?d?F?$KO?0?Q?$MA?0?R?$LG?0?$LJ?G?0?p?$KE?M@
CONST	SEGMENT
??_C@_0JH@FLCFEGAO@C?H?f?$LA?$KF?G?$KK?$LN?$LK?0?H?$KP?$LL?$PN?F?d?F?$KO?0?Q?$MA?0?R?$LG?0?$LJ?G?0?p?$KE?M@ DB 'C'
	DB	0c8H, 0e6H, 0b0H, 0a5H, 0c7H, 0aaH, 0bdH, 0baH, ',', 0c8H, 0afH
	DB	0bbH, 0fdH, 0c6H, 0e4H, 0c6H, 0aeH, ',', 0d1H, 0c0H, ',', 0d2H
	DB	0b6H, ',', 0b9H, 0c7H, ',', 0f0H, 0a4H, 0cdH, 0c1H, ',2268,30,'
	DB	'5.00,27,51,29,56,19,3,0,0,30,70,0,0,0,0,0,0,1,2,,,,,,0,1,1,5,'
	DB	'130426,1,1,,0,500,,0,500,,0,500,,0,500,,0,500,,6', 00H ; `string'
CONST	ENDS
;	COMDAT ??_C@_0JH@GMICMNGG@C?$LA?$KB?$LH?P?$LA?m?$LI?$KD?0?H?$KP?$LL?$PN?F?d?F?$KO?0?Q?$MA?0?R?$LG?0?$LJ?G?0?p?$KE?M@
CONST	SEGMENT
??_C@_0JH@GMICMNGG@C?$LA?$KB?$LH?P?$LA?m?$LI?$KD?0?H?$KP?$LL?$PN?F?d?F?$KO?0?Q?$MA?0?R?$LG?0?$LJ?G?0?p?$KE?M@ DB 'C'
	DB	0b0H, 0a1H, 0b7H, 0d0H, 0b0H, 0edH, 0b8H, 0a3H, ',', 0c8H, 0afH
	DB	0bbH, 0fdH, 0c6H, 0e4H, 0c6H, 0aeH, ',', 0d1H, 0c0H, ',', 0d2H
	DB	0b6H, ',', 0b9H, 0c7H, ',', 0f0H, 0a4H, 0cdH, 0c1H, ',2267,30,'
	DB	'5.00,27,51,29,56,19,3,0,20,80,0,0,0,0,0,0,0,1,2,,,,,,0,1,1,5,'
	DB	'130445,1,1,,0,500,,0,500,,0,500,,0,500,,0,500,,6', 00H ; `string'
CONST	ENDS
;	COMDAT ??_C@_0JI@BFFGFAJE@C?$LO?O?H?f?$LA?q?$LH?N?$LN?$LK?0?H?$KP?$LL?$PN?F?d?F?$KO?0?Q?$MA?0?R?$LG?0?$LJ?G?0?p@
CONST	SEGMENT
??_C@_0JI@BFFGFAJE@C?$LO?O?H?f?$LA?q?$LH?N?$LN?$LK?0?H?$KP?$LL?$PN?F?d?F?$KO?0?Q?$MA?0?R?$LG?0?$LJ?G?0?p@ DB 'C'
	DB	0beH, 0cfH, 0c8H, 0e6H, 0b0H, 0f1H, 0b7H, 0ceH, 0bdH, 0baH, ','
	DB	0c8H, 0afH, 0bbH, 0fdH, 0c6H, 0e4H, 0c6H, 0aeH, ',', 0d1H, 0c0H
	DB	',', 0d2H, 0b6H, ',', 0b9H, 0c7H, ',', 0f0H, 0a4H, 0cdH, 0c1H, ','
	DB	'2266,30,5.0046,31,51,56,19,3,50,50,0,0,0,0,0,0,0,0,1,2,,,,,,0'
	DB	',1,1,2,130762,1,1,,0,500,,0,500,,0,500,,0,500,,0,500,,6', 00H ; `string'
CONST	ENDS
;	COMDAT ??_C@_0JH@JGAGMICM@C?$LE?Y?E?$KJ?$LJ?$KL?$MA?L?0?H?$KP?$LL?$PN?F?d?F?$KO?0?Q?$MA?0?R?$LG?0?$LJ?G?0?p?$KE?M@
CONST	SEGMENT
??_C@_0JH@JGAGMICM@C?$LE?Y?E?$KJ?$LJ?$KL?$MA?L?0?H?$KP?$LL?$PN?F?d?F?$KO?0?Q?$MA?0?R?$LG?0?$LJ?G?0?p?$KE?M@ DB 'C'
	DB	0b4H, 0d9H, 0c5H, 0a9H, 0b9H, 0abH, 0c0H, 0ccH, ',', 0c8H, 0afH
	DB	0bbH, 0fdH, 0c6H, 0e4H, 0c6H, 0aeH, ',', 0d1H, 0c0H, ',', 0d2H
	DB	0b6H, ',', 0b9H, 0c7H, ',', 0f0H, 0a4H, 0cdH, 0c1H, ',2265,30,'
	DB	'5.00,46,31,51,56,19,3,0,0,50,50,0,0,0,0,0,0,1,2,,,,,,0,1,1,2,'
	DB	'130904,1,1,,0,500,,0,500,,0,500,,0,500,,0,500,,6', 00H ; `string'
CONST	ENDS
;	COMDAT ??_C@_0JF@OFGKLBCN@?H?f?$LA?$KF?G?$KK?$LN?$LK?0VIP?F?d?F?$KO?0?Q?$MA?0?R?$LG?0?$LJ?G?0?p?$KE?M?A?0@
CONST	SEGMENT
??_C@_0JF@OFGKLBCN@?H?f?$LA?$KF?G?$KK?$LN?$LK?0VIP?F?d?F?$KO?0?Q?$MA?0?R?$LG?0?$LJ?G?0?p?$KE?M?A?0@ DB 0c8H
	DB	0e6H, 0b0H, 0a5H, 0c7H, 0aaH, 0bdH, 0baH, ',VIP', 0c6H, 0e4H, 0c6H
	DB	0aeH, ',', 0d1H, 0c0H, ',', 0d2H, 0b6H, ',', 0b9H, 0c7H, ',', 0f0H
	DB	0a4H, 0cdH, 0c1H, ',1268,30,5.00,24,48,26,51,19,3,0,0,30,70,0,'
	DB	'0,0,0,0,0,1,2,,,,,,0,1,1,7,130426,1,1,,0,500,,0,500,,0,500,,0'
	DB	',500,,0,500,,6', 00H			; `string'
CONST	ENDS
;	COMDAT ??_C@_0JF@DCPFGDIO@?$LA?$KB?$LH?P?$LA?m?$LI?$KD?0VIP?F?d?F?$KO?0?Q?$MA?0?R?$LG?0?$LJ?G?0?p?$KE?M?A?0@
CONST	SEGMENT
??_C@_0JF@DCPFGDIO@?$LA?$KB?$LH?P?$LA?m?$LI?$KD?0VIP?F?d?F?$KO?0?Q?$MA?0?R?$LG?0?$LJ?G?0?p?$KE?M?A?0@ DB 0b0H
	DB	0a1H, 0b7H, 0d0H, 0b0H, 0edH, 0b8H, 0a3H, ',VIP', 0c6H, 0e4H, 0c6H
	DB	0aeH, ',', 0d1H, 0c0H, ',', 0d2H, 0b6H, ',', 0b9H, 0c7H, ',', 0f0H
	DB	0a4H, 0cdH, 0c1H, ',1267,30,5.00,24,48,26,51,19,3,0,20,80,0,0,'
	DB	'0,0,0,0,0,1,2,,,,,,0,1,1,7,130445,1,1,,0,500,,0,500,,0,500,,0'
	DB	',500,,0,500,,6', 00H			; `string'
CONST	ENDS
;	COMDAT ??_C@_0JH@IHMHJMJE@?$LO?O?H?f?$LA?q?$LH?N?$LN?$LK?0VIP?F?d?F?$KO?0?Q?$MA?0?R?$LG?0?$LJ?G?0?p?$KE?M@
CONST	SEGMENT
??_C@_0JH@IHMHJMJE@?$LO?O?H?f?$LA?q?$LH?N?$LN?$LK?0VIP?F?d?F?$KO?0?Q?$MA?0?R?$LG?0?$LJ?G?0?p?$KE?M@ DB 0beH
	DB	0cfH, 0c8H, 0e6H, 0b0H, 0f1H, 0b7H, 0ceH, 0bdH, 0baH, ',VIP', 0c6H
	DB	0e4H, 0c6H, 0aeH, ',', 0d1H, 0c0H, ',', 0d2H, 0b6H, ',', 0b9H, 0c7H
	DB	',', 0f0H, 0a4H, 0cdH, 0c1H, ',1266,30,5.00,42,28,47,52,19,3,5'
	DB	'0,50,0,0,0,0,0,0,0,0,1,2,,,,,,0,1,1,2,130762,1,1,,0,500,,0,50'
	DB	'0,,0,500,,0,500,,0,500,,6', 00H		; `string'
CONST	ENDS
;	COMDAT ??_C@_0JF@ENKKHHPE@?$LE?Y?E?$KJ?$LJ?$KL?$MA?L?0VIP?F?d?F?$KO?0?Q?$MA?0?R?$LG?0?$LJ?G?0?p?$KE?M?A?0@
CONST	SEGMENT
??_C@_0JF@ENKKHHPE@?$LE?Y?E?$KJ?$LJ?$KL?$MA?L?0VIP?F?d?F?$KO?0?Q?$MA?0?R?$LG?0?$LJ?G?0?p?$KE?M?A?0@ DB 0b4H
	DB	0d9H, 0c5H, 0a9H, 0b9H, 0abH, 0c0H, 0ccH, ',VIP', 0c6H, 0e4H, 0c6H
	DB	0aeH, ',', 0d1H, 0c0H, ',', 0d2H, 0b6H, ',', 0b9H, 0c7H, ',', 0f0H
	DB	0a4H, 0cdH, 0c1H, ',1265,30,5.00,42,28,47,52,19,3,0,0,50,50,0,'
	DB	'0,0,0,0,0,1,2,,,,,,0,1,1,2,130904,1,1,,0,500,,0,500,,0,500,,0'
	DB	',500,,0,500,,6', 00H			; `string'
CONST	ENDS
;	COMDAT ??_C@_0JJ@EBBOBMMF@C?$LN?$LK?D?L?$LF?e?$LH?$KB?$LA?o?0?H?$KP?$LL?$PN?F?d?F?$KO?0?Q?$MA?0?R?$LG?0?$LJ?G?0?p@
CONST	SEGMENT
??_C@_0JJ@EBBOBMMF@C?$LN?$LK?D?L?$LF?e?$LH?$KB?$LA?o?0?H?$KP?$LL?$PN?F?d?F?$KO?0?Q?$MA?0?R?$LG?0?$LJ?G?0?p@ DB 'C'
	DB	0bdH, 0baH, 0c4H, 0ccH, 0b5H, 0e5H, 0b7H, 0a1H, 0b0H, 0efH, ','
	DB	0c8H, 0afH, 0bbH, 0fdH, 0c6H, 0e4H, 0c6H, 0aeH, ',', 0d1H, 0c0H
	DB	',', 0d2H, 0b6H, ',', 0b9H, 0c7H, ',', 0f0H, 0a4H, 0cdH, 0c1H, ','
	DB	'2261,30,5.00,27,51,29,56,19,3,0,80,20,0,0,0,0,0,0,0,1,2,,,,,,'
	DB	'0,1,1,5,132601,1,1,,0,500,,0,500,,0,500,,0,500,,0,500,,6', 00H ; `string'
CONST	ENDS
;	COMDAT ??_C@_0JD@CJDKJIGF@C?H?f?$LB?M?0?D?$LO?0?H?$KP?$LL?$PN?F?d?F?$KO?0?R?$LG?0?$LJ?G?0?p?$KE?M?A?022@
CONST	SEGMENT
??_C@_0JD@CJDKJIGF@C?H?f?$LB?M?0?D?$LO?0?H?$KP?$LL?$PN?F?d?F?$KO?0?R?$LG?0?$LJ?G?0?p?$KE?M?A?022@ DB 'C'
	DB	0c8H, 0e6H, 0b1H, 0cdH, ',', 0c4H, 0beH, ',', 0c8H, 0afH, 0bbH
	DB	0fdH, 0c6H, 0e4H, 0c6H, 0aeH, ',', 0d2H, 0b6H, ',', 0b9H, 0c7H
	DB	',', 0f0H, 0a4H, 0cdH, 0c1H, ',2260,30,5.00,27,51,29,56,19,3,6'
	DB	'0,0,0,40,0,0,0,0,0,0,1,2,,,,,,0,1,1,2,102077,1,1,,0,500,,0,50'
	DB	'0,,0,500,,0,500,,0,500,,6', 00H		; `string'
CONST	ENDS
;	COMDAT ??_C@_0JI@DEGBEBKG@?$LN?$LK?D?L?$LF?e?$LH?$KB?$LA?o?0?H?$KL?$LK?$LI?F?d?F?$KO?0?Q?$MA?0?R?$LG?0?$LJ?G?0?p?$KE@
CONST	SEGMENT
??_C@_0JI@DEGBEBKG@?$LN?$LK?D?L?$LF?e?$LH?$KB?$LA?o?0?H?$KL?$LK?$LI?F?d?F?$KO?0?Q?$MA?0?R?$LG?0?$LJ?G?0?p?$KE@ DB 0bdH
	DB	0baH, 0c4H, 0ccH, 0b5H, 0e5H, 0b7H, 0a1H, 0b0H, 0efH, ',', 0c8H
	DB	0abH, 0baH, 0b8H, 0c6H, 0e4H, 0c6H, 0aeH, ',', 0d1H, 0c0H, ',', 0d2H
	DB	0b6H, ',', 0b9H, 0c7H, ',', 0f0H, 0a4H, 0cdH, 0c1H, ',1261,30,'
	DB	'5.00,21,45,23,48,19,3,0,80,20,0,0,0,0,0,0,0,1,2,,,,,,0,1,1,5,'
	DB	'132601,1,1,,0,500,,0,500,,0,500,,0,500,,0,500,,6', 00H ; `string'
CONST	ENDS
;	COMDAT ??_C@_0JC@MOJEOOME@?H?f?$LB?M?0?H?$KL?$LK?$LI?F?d?F?$KO?0?Q?$MA?0?R?$LG?0?$LJ?G?0?p?$KE?M?A?0126@
CONST	SEGMENT
??_C@_0JC@MOJEOOME@?H?f?$LB?M?0?H?$KL?$LK?$LI?F?d?F?$KO?0?Q?$MA?0?R?$LG?0?$LJ?G?0?p?$KE?M?A?0126@ DB 0c8H
	DB	0e6H, 0b1H, 0cdH, ',', 0c8H, 0abH, 0baH, 0b8H, 0c6H, 0e4H, 0c6H
	DB	0aeH, ',', 0d1H, 0c0H, ',', 0d2H, 0b6H, ',', 0b9H, 0c7H, ',', 0f0H
	DB	0a4H, 0cdH, 0c1H, ',1260,30,5.00,21,45,23,48,19,3,60,0,0,40,0,'
	DB	'0,0,0,0,0,1,2,,,,,,0,1,1,2,102077,1,1,,0,500,,0,500,,0,500,,0'
	DB	',500,,0,500,,6', 00H			; `string'
CONST	ENDS
;	COMDAT ??_C@_0JD@MFFCDEDD@C?$LH?g?$LK?q?0?H?$KP?$LL?$PN?F?d?F?$KO?0?Q?$MA?0?R?$LG?0?$LJ?G?0?p?$KE?M?A?023@
CONST	SEGMENT
??_C@_0JD@MFFCDEDD@C?$LH?g?$LK?q?0?H?$KP?$LL?$PN?F?d?F?$KO?0?Q?$MA?0?R?$LG?0?$LJ?G?0?p?$KE?M?A?023@ DB 'C'
	DB	0b7H, 0e7H, 0baH, 0f1H, ',', 0c8H, 0afH, 0bbH, 0fdH, 0c6H, 0e4H
	DB	0c6H, 0aeH, ',', 0d1H, 0c0H, ',', 0d2H, 0b6H, ',', 0b9H, 0c7H, ','
	DB	0f0H, 0a4H, 0cdH, 0c1H, ',2313,30,5.00,27,51,29,56,19,3,0,0,80'
	DB	',20,0,0,0,0,0,0,1,2,,,,,,0,1,1,7,101177,1,1,,0,500,,0,500,,0,'
	DB	'500,,0,500,,0,500,,6', 00H			; `string'
CONST	ENDS
;	COMDAT ??_C@_0JD@MCPJIEEP@C?$LH?Q?G?A?0?H?$KP?$LL?$PN?F?d?F?$KO?0?Q?$MA?0?R?$LG?0?$LJ?G?0?p?$KE?M?A?023@
CONST	SEGMENT
??_C@_0JD@MCPJIEEP@C?$LH?Q?G?A?0?H?$KP?$LL?$PN?F?d?F?$KO?0?Q?$MA?0?R?$LG?0?$LJ?G?0?p?$KE?M?A?023@ DB 'C'
	DB	0b7H, 0d1H, 0c7H, 0c1H, ',', 0c8H, 0afH, 0bbH, 0fdH, 0c6H, 0e4H
	DB	0c6H, 0aeH, ',', 0d1H, 0c0H, ',', 0d2H, 0b6H, ',', 0b9H, 0c7H, ','
	DB	0f0H, 0a4H, 0cdH, 0c1H, ',2312,30,5.00,27,51,29,56,19,3,0,0,80'
	DB	',20,0,0,0,0,0,0,1,2,,,,,,0,1,1,7,102152,1,1,,0,500,,0,500,,0,'
	DB	'500,,0,500,,0,500,,6', 00H			; `string'
CONST	ENDS
;	COMDAT ??_C@_0JD@HKJMGBML@C?H?f?G?$LD?0?H?$KP?$LL?$PN?F?d?F?$KO?0?Q?$MA?0?R?$LG?0?$LJ?G?0?p?$KE?M?A?023@
CONST	SEGMENT
??_C@_0JD@HKJMGBML@C?H?f?G?$LD?0?H?$KP?$LL?$PN?F?d?F?$KO?0?Q?$MA?0?R?$LG?0?$LJ?G?0?p?$KE?M?A?023@ DB 'C'
	DB	0c8H, 0e6H, 0c7H, 0b3H, ',', 0c8H, 0afH, 0bbH, 0fdH, 0c6H, 0e4H
	DB	0c6H, 0aeH, ',', 0d1H, 0c0H, ',', 0d2H, 0b6H, ',', 0b9H, 0c7H, ','
	DB	0f0H, 0a4H, 0cdH, 0c1H, ',2311,30,5.00,27,51,29,56,19,3,70,0,0'
	DB	',30,0,0,0,0,0,0,1,2,,,,,,0,1,1,7,102234,1,1,,0,500,,0,500,,0,'
	DB	'500,,0,500,,0,500,,6', 00H			; `string'
CONST	ENDS
;	COMDAT ??_C@_0JH@EGBFPBOA@C?$LA?$KB?$LI?$KD?$LA?$KB?$LI?$KD?0?H?$KP?$LL?$PN?F?d?F?$KO?0?Q?$MA?0?R?$LG?0?$LJ?G?0?p?$KE?M@
CONST	SEGMENT
??_C@_0JH@EGBFPBOA@C?$LA?$KB?$LI?$KD?$LA?$KB?$LI?$KD?0?H?$KP?$LL?$PN?F?d?F?$KO?0?Q?$MA?0?R?$LG?0?$LJ?G?0?p?$KE?M@ DB 'C'
	DB	0b0H, 0a1H, 0b8H, 0a3H, 0b0H, 0a1H, 0b8H, 0a3H, ',', 0c8H, 0afH
	DB	0bbH, 0fdH, 0c6H, 0e4H, 0c6H, 0aeH, ',', 0d1H, 0c0H, ',', 0d2H
	DB	0b6H, ',', 0b9H, 0c7H, ',', 0f0H, 0a4H, 0cdH, 0c1H, ',2310,30,'
	DB	'5.00,27,51,29,56,19,3,0,50,50,0,0,0,0,0,0,0,1,2,,,,,,0,1,1,7,'
	DB	'130320,1,1,,0,500,,0,500,,0,500,,0,500,,0,500,,6', 00H ; `string'
CONST	ENDS
;	COMDAT ??_C@_0JB@DOFPEEMA@?$LH?g?$LK?q?0VIP?F?d?F?$KO?0?Q?$MA?0?R?$LG?0?$LJ?G?0?p?$KE?M?A?01314@
CONST	SEGMENT
??_C@_0JB@DOFPEEMA@?$LH?g?$LK?q?0VIP?F?d?F?$KO?0?Q?$MA?0?R?$LG?0?$LJ?G?0?p?$KE?M?A?01314@ DB 0b7H
	DB	0e7H, 0baH, 0f1H, ',VIP', 0c6H, 0e4H, 0c6H, 0aeH, ',', 0d1H, 0c0H
	DB	',', 0d2H, 0b6H, ',', 0b9H, 0c7H, ',', 0f0H, 0a4H, 0cdH, 0c1H, ','
	DB	'1314,30,5.00,24,48,26,51,19,3,0,0,80,20,0,0,0,0,0,0,1,2,,,,,,'
	DB	'0,1,1,7,101177,1,1,,0,500,,0,500,,0,500,,0,500,,0,500,,6', 00H ; `string'
CONST	ENDS
;	COMDAT ??_C@_0JB@GFEDOCJB@?$LH?Q?G?A?0VIP?F?d?F?$KO?0?Q?$MA?0?R?$LG?0?$LJ?G?0?p?$KE?M?A?01313@
CONST	SEGMENT
??_C@_0JB@GFEDOCJB@?$LH?Q?G?A?0VIP?F?d?F?$KO?0?Q?$MA?0?R?$LG?0?$LJ?G?0?p?$KE?M?A?01313@ DB 0b7H
	DB	0d1H, 0c7H, 0c1H, ',VIP', 0c6H, 0e4H, 0c6H, 0aeH, ',', 0d1H, 0c0H
	DB	',', 0d2H, 0b6H, ',', 0b9H, 0c7H, ',', 0f0H, 0a4H, 0cdH, 0c1H, ','
	DB	'1313,30,5.00,24,48,26,51,19,3,0,0,80,20,0,0,0,0,0,0,1,2,,,,,,'
	DB	'0,1,1,7,102152,1,1,,0,500,,0,500,,0,500,,0,500,,0,500,,6', 00H ; `string'
CONST	ENDS
;	COMDAT ??_C@_0JB@KGPHACLB@?H?f?G?$LD?0VIP?F?d?F?$KO?0?Q?$MA?0?R?$LG?0?$LJ?G?0?p?$KE?M?A?01312@
CONST	SEGMENT
??_C@_0JB@KGPHACLB@?H?f?G?$LD?0VIP?F?d?F?$KO?0?Q?$MA?0?R?$LG?0?$LJ?G?0?p?$KE?M?A?01312@ DB 0c8H
	DB	0e6H, 0c7H, 0b3H, ',VIP', 0c6H, 0e4H, 0c6H, 0aeH, ',', 0d1H, 0c0H
	DB	',', 0d2H, 0b6H, ',', 0b9H, 0c7H, ',', 0f0H, 0a4H, 0cdH, 0c1H, ','
	DB	'1312,30,5.00,24,48,26,51,19,3,70,0,0,30,0,0,0,0,0,0,1,2,,,,,,'
	DB	'0,1,1,7,102234,1,1,,0,500,,0,500,,0,500,,0,500,,0,500,,6', 00H ; `string'
CONST	ENDS
;	COMDAT ??_C@_0JF@GDGGIOMN@?$LA?$KB?$LI?$KD?$LA?$KB?$LI?$KD?0VIP?F?d?F?$KO?0?Q?$MA?0?R?$LG?0?$LJ?G?0?p?$KE?M?A?0@
CONST	SEGMENT
??_C@_0JF@GDGGIOMN@?$LA?$KB?$LI?$KD?$LA?$KB?$LI?$KD?0VIP?F?d?F?$KO?0?Q?$MA?0?R?$LG?0?$LJ?G?0?p?$KE?M?A?0@ DB 0b0H
	DB	0a1H, 0b8H, 0a3H, 0b0H, 0a1H, 0b8H, 0a3H, ',VIP', 0c6H, 0e4H, 0c6H
	DB	0aeH, ',', 0d1H, 0c0H, ',', 0d2H, 0b6H, ',', 0b9H, 0c7H, ',', 0f0H
	DB	0a4H, 0cdH, 0c1H, ',1311,30,5.00,24,48,26,51,19,3,0,50,50,0,0,'
	DB	'0,0,0,0,0,1,2,,,,,,0,1,1,7,130320,1,1,,0,500,,0,500,,0,500,,0'
	DB	',500,,0,500,,6', 00H			; `string'
CONST	ENDS
;	COMDAT ??_C@_0JD@DLBCOCO@C?G?$LD?$LI?$LG?0?H?$KP?$LL?$PN?F?d?F?$KO?0?Q?$MA?0?R?$LG?0?$LJ?G?0?p?$KE?M?A?023@
CONST	SEGMENT
??_C@_0JD@DLBCOCO@C?G?$LD?$LI?$LG?0?H?$KP?$LL?$PN?F?d?F?$KO?0?Q?$MA?0?R?$LG?0?$LJ?G?0?p?$KE?M?A?023@ DB 'C'
	DB	0c7H, 0b3H, 0b8H, 0b6H, ',', 0c8H, 0afH, 0bbH, 0fdH, 0c6H, 0e4H
	DB	0c6H, 0aeH, ',', 0d1H, 0c0H, ',', 0d2H, 0b6H, ',', 0b9H, 0c7H, ','
	DB	0f0H, 0a4H, 0cdH, 0c1H, ',2304,30,5.00,22,45,23,46,19,3,10,90,'
	DB	'0,0,0,0,0,0,0,0,1,2,,,,,,0,1,1,5,101443,1,1,,0,500,,0,500,,0,'
	DB	'500,,0,500,,0,500,,6', 00H			; `string'
CONST	ENDS
;	COMDAT ??_C@_0JC@HEJOCGCM@?G?$LD?$LI?$LG?0?C?$LF?A?v?F?d?F?$KO?0?Q?$MA?0?R?$LG?0?$LJ?G?0?p?$KE?M?A?0130@
CONST	SEGMENT
??_C@_0JC@HEJOCGCM@?G?$LD?$LI?$LG?0?C?$LF?A?v?F?d?F?$KO?0?Q?$MA?0?R?$LG?0?$LJ?G?0?p?$KE?M?A?0130@ DB 0c7H
	DB	0b3H, 0b8H, 0b6H, ',', 0c3H, 0b5H, 0c1H, 0f6H, 0c6H, 0e4H, 0c6H
	DB	0aeH, ',', 0d1H, 0c0H, ',', 0d2H, 0b6H, ',', 0b9H, 0c7H, ',', 0f0H
	DB	0a4H, 0cdH, 0c1H, ',1307,30,5.00,20,39,19,39,19,3,0,0,0,100,0,'
	DB	'0,0,0,0,0,1,2,,,,,,0,1,1,5,101443,1,1,,0,500,,0,500,,0,500,,0'
	DB	',500,,0,500,,6', 00H			; `string'
CONST	ENDS
;	COMDAT ??_C@_0JF@GEIKBEIB@C?E?W?$LG?s?$LF?$LH?0?H?$KP?$LL?$PN?F?d?F?$KO?0?Q?$MA?0?R?$LG?0?$LJ?G?0?p?$KE?M?A?0@
CONST	SEGMENT
??_C@_0JF@GEIKBEIB@C?E?W?$LG?s?$LF?$LH?0?H?$KP?$LL?$PN?F?d?F?$KO?0?Q?$MA?0?R?$LG?0?$LJ?G?0?p?$KE?M?A?0@ DB 'C'
	DB	0c5H, 0d7H, 0b6H, 0f3H, 0b5H, 0b7H, ',', 0c8H, 0afH, 0bbH, 0fdH
	DB	0c6H, 0e4H, 0c6H, 0aeH, ',', 0d1H, 0c0H, ',', 0d2H, 0b6H, ',', 0b9H
	DB	0c7H, ',', 0f0H, 0a4H, 0cdH, 0c1H, ',2304,30,5.00,22,45,23,46,'
	DB	'19,3,10,90,0,0,0,0,0,0,0,0,1,2,,,,,,0,1,1,2,100901,1,1,,0,500'
	DB	',,0,500,,0,500,,0,500,,0,500,,6', 00H	; `string'
CONST	ENDS
;	COMDAT ??_C@_0JJ@KOBBCMEA@C?$LA?q?$LF?e?E?W?$LG?s?$LA?o?0?H?$KP?$LL?$PN?F?d?F?$KO?0?Q?$MA?0?R?$LG?0?$LJ?G?0?p@
CONST	SEGMENT
??_C@_0JJ@KOBBCMEA@C?$LA?q?$LF?e?E?W?$LG?s?$LA?o?0?H?$KP?$LL?$PN?F?d?F?$KO?0?Q?$MA?0?R?$LG?0?$LJ?G?0?p@ DB 'C'
	DB	0b0H, 0f1H, 0b5H, 0e5H, 0c5H, 0d7H, 0b6H, 0f3H, 0b0H, 0efH, ','
	DB	0c8H, 0afH, 0bbH, 0fdH, 0c6H, 0e4H, 0c6H, 0aeH, ',', 0d1H, 0c0H
	DB	',', 0d2H, 0b6H, ',', 0b9H, 0c7H, ',', 0f0H, 0a4H, 0cdH, 0c1H, ','
	DB	'2303,30,5.00,38,26,44,45,19,3,60,0,0,40,0,0,0,0,0,0,1,2,,,,,,'
	DB	'0,1,1,5,100900,1,1,,0,500,,0,500,,0,500,,0,500,,0,500,,6', 00H ; `string'
CONST	ENDS
;	COMDAT ??_C@_0JF@MBEEKAJI@C?G?$KK?E?W?$LG?s?0?H?$KP?$LL?$PN?F?d?F?$KO?0?Q?$MA?0?R?$LG?0?$LJ?G?0?p?$KE?M?A?0@
CONST	SEGMENT
??_C@_0JF@MBEEKAJI@C?G?$KK?E?W?$LG?s?0?H?$KP?$LL?$PN?F?d?F?$KO?0?Q?$MA?0?R?$LG?0?$LJ?G?0?p?$KE?M?A?0@ DB 'C'
	DB	0c7H, 0aaH, 0c5H, 0d7H, 0b6H, 0f3H, ',', 0c8H, 0afH, 0bbH, 0fdH
	DB	0c6H, 0e4H, 0c6H, 0aeH, ',', 0d1H, 0c0H, ',', 0d2H, 0b6H, ',', 0b9H
	DB	0c7H, ',', 0f0H, 0a4H, 0cdH, 0c1H, ',2302,30,5.00,22,45,23,46,'
	DB	'19,3,0,80,20,0,0,0,0,0,0,0,1,2,,,,,,0,1,1,2,100898,1,1,,0,500'
	DB	',,0,500,,0,500,,0,500,,0,500,,6', 00H	; `string'
CONST	ENDS
;	COMDAT ??_C@_0JH@NACLGOBJ@C?$LN?G?$LJ?v?$LG?s?$LA?o?0?H?$KP?$LL?$PN?F?d?F?$KO?0?Q?$MA?0?R?$LG?0?$LJ?G?0?p?$KE?M@
CONST	SEGMENT
??_C@_0JH@NACLGOBJ@C?$LN?G?$LJ?v?$LG?s?$LA?o?0?H?$KP?$LL?$PN?F?d?F?$KO?0?Q?$MA?0?R?$LG?0?$LJ?G?0?p?$KE?M@ DB 'C'
	DB	0bdH, 0c7H, 0b9H, 0f6H, 0b6H, 0f3H, 0b0H, 0efH, ',', 0c8H, 0afH
	DB	0bbH, 0fdH, 0c6H, 0e4H, 0c6H, 0aeH, ',', 0d1H, 0c0H, ',', 0d2H
	DB	0b6H, ',', 0b9H, 0c7H, ',', 0f0H, 0a4H, 0cdH, 0c1H, ',2301,30,'
	DB	'5.00,27,36,33,27,19,3,50,50,0,0,0,0,0,0,0,0,1,2,,,,,,0,1,1,5,'
	DB	'100899,1,1,,0,500,,0,500,,0,500,,0,500,,0,500,,6', 00H ; `string'
CONST	ENDS
;	COMDAT ??_C@_0JF@HAKCNIIB@C?$LB?b?$LG?s?$LD?k?0?H?$KP?$LL?$PN?F?d?F?$KO?0?Q?$MA?0?R?$LG?0?$LJ?G?0?p?$KE?M?A?0@
CONST	SEGMENT
??_C@_0JF@HAKCNIIB@C?$LB?b?$LG?s?$LD?k?0?H?$KP?$LL?$PN?F?d?F?$KO?0?Q?$MA?0?R?$LG?0?$LJ?G?0?p?$KE?M?A?0@ DB 'C'
	DB	0b1H, 0e2H, 0b6H, 0f3H, 0b3H, 0ebH, ',', 0c8H, 0afH, 0bbH, 0fdH
	DB	0c6H, 0e4H, 0c6H, 0aeH, ',', 0d1H, 0c0H, ',', 0d2H, 0b6H, ',', 0b9H
	DB	0c7H, ',', 0f0H, 0a4H, 0cdH, 0c1H, ',2300,30,5.00,22,45,23,46,'
	DB	'19,3,0,50,50,0,0,0,0,0,0,0,1,2,,,,,,0,1,1,5,100849,1,1,,0,500'
	DB	',,0,500,,0,500,,0,500,,0,500,,6', 00H	; `string'
CONST	ENDS
;	COMDAT ??_C@_0JE@JDINAKIH@?E?W?$LG?s?$LF?$LH?0?H?$KL?$LK?$LI?F?d?F?$KO?0?Q?$MA?0?R?$LG?0?$LJ?G?0?p?$KE?M?A?01@
CONST	SEGMENT
??_C@_0JE@JDINAKIH@?E?W?$LG?s?$LF?$LH?0?H?$KL?$LK?$LI?F?d?F?$KO?0?Q?$MA?0?R?$LG?0?$LJ?G?0?p?$KE?M?A?01@ DB 0c5H
	DB	0d7H, 0b6H, 0f3H, 0b5H, 0b7H, ',', 0c8H, 0abH, 0baH, 0b8H, 0c6H
	DB	0e4H, 0c6H, 0aeH, ',', 0d1H, 0c0H, ',', 0d2H, 0b6H, ',', 0b9H, 0c7H
	DB	',', 0f0H, 0a4H, 0cdH, 0c1H, ',1304,30,5.00,20,39,19,39,19,3,1'
	DB	'0,90,0,0,0,0,0,0,0,0,1,2,,,,,,0,1,1,5,100901,1,1,,0,500,,0,50'
	DB	'0,,0,500,,0,500,,0,500,,6', 00H		; `string'
CONST	ENDS
;	COMDAT ??_C@_0JI@CPLJDDGB@?$LA?q?$LF?e?E?W?$LG?s?$LA?o?0?H?$KL?$LK?$LI?F?d?F?$KO?0?Q?$MA?0?R?$LG?0?$LJ?G?0?p?$KE@
CONST	SEGMENT
??_C@_0JI@CPLJDDGB@?$LA?q?$LF?e?E?W?$LG?s?$LA?o?0?H?$KL?$LK?$LI?F?d?F?$KO?0?Q?$MA?0?R?$LG?0?$LJ?G?0?p?$KE@ DB 0b0H
	DB	0f1H, 0b5H, 0e5H, 0c5H, 0d7H, 0b6H, 0f3H, 0b0H, 0efH, ',', 0c8H
	DB	0abH, 0baH, 0b8H, 0c6H, 0e4H, 0c6H, 0aeH, ',', 0d1H, 0c0H, ',', 0d2H
	DB	0b6H, ',', 0b9H, 0c7H, ',', 0f0H, 0a4H, 0cdH, 0c1H, ',1303,30,'
	DB	'5.00,30,21,39,39,19,3,80,0,0,20,0,0,0,0,0,0,1,2,,,,,,0,1,1,5,'
	DB	'100900,1,1,,0,500,,0,500,,0,500,,0,500,,0,500,,6', 00H ; `string'
CONST	ENDS
;	COMDAT ??_C@_0JE@DGEDLOJO@?G?$KK?E?W?$LG?s?0?H?$KL?$LK?$LI?F?d?F?$KO?0?Q?$MA?0?R?$LG?0?$LJ?G?0?p?$KE?M?A?01@
CONST	SEGMENT
??_C@_0JE@DGEDLOJO@?G?$KK?E?W?$LG?s?0?H?$KL?$LK?$LI?F?d?F?$KO?0?Q?$MA?0?R?$LG?0?$LJ?G?0?p?$KE?M?A?01@ DB 0c7H
	DB	0aaH, 0c5H, 0d7H, 0b6H, 0f3H, ',', 0c8H, 0abH, 0baH, 0b8H, 0c6H
	DB	0e4H, 0c6H, 0aeH, ',', 0d1H, 0c0H, ',', 0d2H, 0b6H, ',', 0b9H, 0c7H
	DB	',', 0f0H, 0a4H, 0cdH, 0c1H, ',1302,30,5.00,20,39,19,39,19,3,0'
	DB	',80,20,0,0,0,0,0,0,0,1,2,,,,,,0,1,1,5,100898,1,1,,0,500,,0,50'
	DB	'0,,0,500,,0,500,,0,500,,6', 00H		; `string'
CONST	ENDS
;	COMDAT ??_C@_0JG@MPEMLKOG@?$LN?G?$LJ?v?$LG?s?$LA?o?0?H?$KL?$LK?$LI?F?d?F?$KO?0?Q?$MA?0?R?$LG?0?$LJ?G?0?p?$KE?M?A@
CONST	SEGMENT
??_C@_0JG@MPEMLKOG@?$LN?G?$LJ?v?$LG?s?$LA?o?0?H?$KL?$LK?$LI?F?d?F?$KO?0?Q?$MA?0?R?$LG?0?$LJ?G?0?p?$KE?M?A@ DB 0bdH
	DB	0c7H, 0b9H, 0f6H, 0b6H, 0f3H, 0b0H, 0efH, ',', 0c8H, 0abH, 0baH
	DB	0b8H, 0c6H, 0e4H, 0c6H, 0aeH, ',', 0d1H, 0c0H, ',', 0d2H, 0b6H
	DB	',', 0b9H, 0c7H, ',', 0f0H, 0a4H, 0cdH, 0c1H, ',1301,30,5.00,2'
	DB	'7,36,33,27,19,3,50,50,0,0,0,0,0,0,0,0,1,2,,,,,,0,1,1,5,100899'
	DB	',1,1,,0,500,,0,500,,0,500,,0,500,,0,500,,6', 00H ; `string'
CONST	ENDS
;	COMDAT ??_C@_0JE@JMIOBGLN@?$LB?b?$LG?s?$LD?k?0?H?$KL?$LK?$LI?F?d?F?$KO?0?Q?$MA?0?R?$LG?0?$LJ?G?0?p?$KE?M?A?01@
CONST	SEGMENT
??_C@_0JE@JMIOBGLN@?$LB?b?$LG?s?$LD?k?0?H?$KL?$LK?$LI?F?d?F?$KO?0?Q?$MA?0?R?$LG?0?$LJ?G?0?p?$KE?M?A?01@ DB 0b1H
	DB	0e2H, 0b6H, 0f3H, 0b3H, 0ebH, ',', 0c8H, 0abH, 0baH, 0b8H, 0c6H
	DB	0e4H, 0c6H, 0aeH, ',', 0d1H, 0c0H, ',', 0d2H, 0b6H, ',', 0b9H, 0c7H
	DB	',', 0f0H, 0a4H, 0cdH, 0c1H, ',1300,30,5.00,20,39,19,39,19,3,0'
	DB	',50,50,0,0,0,0,0,0,0,1,2,,,,,,0,1,1,5,100849,1,1,,0,500,,0,50'
	DB	'0,,0,500,,0,500,,0,500,,6', 00H		; `string'
CONST	ENDS
;	COMDAT ??_C@_0JJ@IIKAJDOE@?$LJ?i?H?$KN?$LG?u?0?$LI?$LO?$LI?p?$LN?$LK?D?m?F?y1?B?w?0?Q?$MA?0?R?$LG?0?$LJ?G?0?p@
CONST	SEGMENT
??_C@_0JJ@IIKAJDOE@?$LJ?i?H?$KN?$LG?u?0?$LI?$LO?$LI?p?$LN?$LK?D?m?F?y1?B?w?0?Q?$MA?0?R?$LG?0?$LJ?G?0?p@ DB 0b9H
	DB	0e9H, 0c8H, 0adH, 0b6H, 0f5H, ',', 0b8H, 0beH, 0b8H, 0f0H, 0bdH
	DB	0baH, 0c4H, 0edH, 0c6H, 0f9H, '1', 0c2H, 0f7H, ',', 0d1H, 0c0H
	DB	',', 0d2H, 0b6H, ',', 0b9H, 0c7H, ',', 0f0H, 0a4H, 0cdH, 0c1H, ','
	DB	'1251,30,5.00,33,46,43,35,19,3,0,100,0,0,0,0,0,0,0,0,1,2,,,,,,'
	DB	'0,3,3,2,130801,1,1,,0,500,,0,500,,0,500,,0,500,,0,500,,6', 00H ; `string'
CONST	ENDS
;	COMDAT ??_C@_0JJ@FHHLLIJP@?$LI?$NO?$LA?$KB?A?R?0?$LI?$LO?$LI?p?$LN?$LK?D?m?F?y1?B?w?0?Q?$MA?0?R?$LG?0?$LJ?G?0?p@
CONST	SEGMENT
??_C@_0JJ@FHHLLIJP@?$LI?$NO?$LA?$KB?A?R?0?$LI?$LO?$LI?p?$LN?$LK?D?m?F?y1?B?w?0?Q?$MA?0?R?$LG?0?$LJ?G?0?p@ DB 0b8H
	DB	0deH, 0b0H, 0a1H, 0c1H, 0d2H, ',', 0b8H, 0beH, 0b8H, 0f0H, 0bdH
	DB	0baH, 0c4H, 0edH, 0c6H, 0f9H, '1', 0c2H, 0f7H, ',', 0d1H, 0c0H
	DB	',', 0d2H, 0b6H, ',', 0b9H, 0c7H, ',', 0f0H, 0a4H, 0cdH, 0c1H, ','
	DB	'1250,30,5.00,24,48,26,51,19,3,0,0,100,0,0,0,0,0,0,0,1,2,,,,,,'
	DB	'0,3,3,7,130442,1,1,,0,500,,0,500,,0,500,,0,500,,0,500,,6', 00H ; `string'
CONST	ENDS
;	COMDAT ??_C@_0JB@FKDIOHFL@C?$LI?$NO?$LA?$KB?A?R?0?H?$KP?$LL?$PN?0?Q?$MA?0?R?$LG?0?$LJ?G?0?p?$KE?M?A?02250@
CONST	SEGMENT
??_C@_0JB@FKDIOHFL@C?$LI?$NO?$LA?$KB?A?R?0?H?$KP?$LL?$PN?0?Q?$MA?0?R?$LG?0?$LJ?G?0?p?$KE?M?A?02250@ DB 'C'
	DB	0b8H, 0deH, 0b0H, 0a1H, 0c1H, 0d2H, ',', 0c8H, 0afH, 0bbH, 0fdH
	DB	',', 0d1H, 0c0H, ',', 0d2H, 0b6H, ',', 0b9H, 0c7H, ',', 0f0H, 0a4H
	DB	0cdH, 0c1H, ',2250,30,5.00,27,51,29,56,19,3,0,0,100,0,0,0,0,0,'
	DB	'0,0,1,2,,,,,,0,3,3,7,130442,1,1,,0,500,,0,500,,0,500,,0,500,,'
	DB	'0,500,,6', 00H				; `string'
CONST	ENDS
;	COMDAT ??_C@_0JD@MHKGCPA@C?$LJ?i?H?$KN?$LG?u?$LN?$LK?0?H?$KP?$LL?$PN?0?Q?$MA?0?R?$LG?0?$LJ?G?0?p?$KE?M?A?022@
CONST	SEGMENT
??_C@_0JD@MHKGCPA@C?$LJ?i?H?$KN?$LG?u?$LN?$LK?0?H?$KP?$LL?$PN?0?Q?$MA?0?R?$LG?0?$LJ?G?0?p?$KE?M?A?022@ DB 'C'
	DB	0b9H, 0e9H, 0c8H, 0adH, 0b6H, 0f5H, 0bdH, 0baH, ',', 0c8H, 0afH
	DB	0bbH, 0fdH, ',', 0d1H, 0c0H, ',', 0d2H, 0b6H, ',', 0b9H, 0c7H, ','
	DB	0f0H, 0a4H, 0cdH, 0c1H, ',2251,30,5.00,36,51,47,38,19,3,0,100,'
	DB	'0,0,0,0,0,0,0,0,1,2,,,,,,0,3,3,2,130802,1,1,,0,500,,0,500,,0,'
	DB	'500,,0,500,,0,500,,6', 00H			; `string'
CONST	ENDS
;	COMDAT ??_C@_0JI@GNMKGAKL@C?H?$KN?$MA?L?E?d?$LN?$LK?0?F?d?F?$KO?5?H?$KP?$LL?$PN?0?Q?$MA?0?R?$LG?0?$LJ?G?0?p?$KE@
CONST	SEGMENT
??_C@_0JI@GNMKGAKL@C?H?$KN?$MA?L?E?d?$LN?$LK?0?F?d?F?$KO?5?H?$KP?$LL?$PN?0?Q?$MA?0?R?$LG?0?$LJ?G?0?p?$KE@ DB 'C'
	DB	0c8H, 0adH, 0c0H, 0ccH, 0c5H, 0e4H, 0bdH, 0baH, ',', 0c6H, 0e4H
	DB	0c6H, 0aeH, ' ', 0c8H, 0afH, 0bbH, 0fdH, ',', 0d1H, 0c0H, ',', 0d2H
	DB	0b6H, ',', 0b9H, 0c7H, ',', 0f0H, 0a4H, 0cdH, 0c1H, ',2247,30,'
	DB	'5.00,46,31,51,56,19,3,0,0,0,100,0,0,0,0,0,0,1,2,,,,,,0,1,1,2,'
	DB	'100000,1,1,,0,500,,0,500,,0,500,,0,500,,0,500,,6', 00H ; `string'
CONST	ENDS
;	COMDAT ??_C@_0JG@HEIHCKF@C?$LL?$PO?$LP?l?F?$KO?0?F?d?F?$KO?5?H?$KP?$LL?$PN?0?Q?$MA?0?R?$LG?0?$LJ?G?0?p?$KE?M?A@
CONST	SEGMENT
??_C@_0JG@HEIHCKF@C?$LL?$PO?$LP?l?F?$KO?0?F?d?F?$KO?5?H?$KP?$LL?$PN?0?Q?$MA?0?R?$LG?0?$LJ?G?0?p?$KE?M?A@ DB 'C'
	DB	0bbH, 0feH, 0bfH, 0ecH, 0c6H, 0aeH, ',', 0c6H, 0e4H, 0c6H, 0aeH
	DB	' ', 0c8H, 0afH, 0bbH, 0fdH, ',', 0d1H, 0c0H, ',', 0d2H, 0b6H, ','
	DB	0b9H, 0c7H, ',', 0f0H, 0a4H, 0cdH, 0c1H, ',2246,30,5.00,46,31,'
	DB	'51,56,19,3,50,0,0,50,0,0,0,0,0,0,1,2,,,,,,0,1,1,2,105165,1,1,'
	DB	',0,500,,0,500,,0,500,,0,500,,0,500,,6', 00H	; `string'
CONST	ENDS
;	COMDAT ??_C@_0JE@CLNOBNJC@C?$LB?b?$LI?$LA?0?F?d?F?$KO?5?H?$KP?$LL?$PN?0?Q?$MA?0?R?$LG?0?$LJ?G?0?p?$KE?M?A?02@
CONST	SEGMENT
??_C@_0JE@CLNOBNJC@C?$LB?b?$LI?$LA?0?F?d?F?$KO?5?H?$KP?$LL?$PN?0?Q?$MA?0?R?$LG?0?$LJ?G?0?p?$KE?M?A?02@ DB 'C'
	DB	0b1H, 0e2H, 0b8H, 0b0H, ',', 0c6H, 0e4H, 0c6H, 0aeH, ' ', 0c8H
	DB	0afH, 0bbH, 0fdH, ',', 0d1H, 0c0H, ',', 0d2H, 0b6H, ',', 0b9H, 0c7H
	DB	',', 0f0H, 0a4H, 0cdH, 0c1H, ',2245,30,5.00,46,31,51,56,19,3,9'
	DB	'0,0,0,10,0,0,0,0,0,0,1,2,,,,,,0,1,1,2,105089,1,1,,0,500,,0,50'
	DB	'0,,0,500,,0,500,,0,500,,6', 00H		; `string'
CONST	ENDS
;	COMDAT ??_C@_0JI@MKPACPPD@C?$LO?F?$LN?$LK?E?$LI?$LH?N?0?F?d?F?$KO?5?H?$KP?$LL?$PN?0?Q?$MA?0?R?$LG?0?$LJ?G?0?p?$KE@
CONST	SEGMENT
??_C@_0JI@MKPACPPD@C?$LO?F?$LN?$LK?E?$LI?$LH?N?0?F?d?F?$KO?5?H?$KP?$LL?$PN?0?Q?$MA?0?R?$LG?0?$LJ?G?0?p?$KE@ DB 'C'
	DB	0beH, 0c6H, 0bdH, 0baH, 0c5H, 0b8H, 0b7H, 0ceH, ',', 0c6H, 0e4H
	DB	0c6H, 0aeH, ' ', 0c8H, 0afH, 0bbH, 0fdH, ',', 0d1H, 0c0H, ',', 0d2H
	DB	0b6H, ',', 0b9H, 0c7H, ',', 0f0H, 0a4H, 0cdH, 0c1H, ',2237,30,'
	DB	'5.00,46,31,51,56,19,3,50,50,0,0,0,0,0,0,0,0,1,2,,,,,,0,1,1,2,'
	DB	'102164,1,1,,0,500,,0,500,,0,500,,0,500,,0,500,,6', 00H ; `string'
CONST	ENDS
;	COMDAT ??_C@_0JG@MAPLBLCA@C?$LF?p?$LO?n?$LH?i?0?F?d?F?$KO?5?H?$KP?$LL?$PN?0?Q?$MA?0?R?$LG?0?$LJ?G?0?p?$KE?M?A@
CONST	SEGMENT
??_C@_0JG@MAPLBLCA@C?$LF?p?$LO?n?$LH?i?0?F?d?F?$KO?5?H?$KP?$LL?$PN?0?Q?$MA?0?R?$LG?0?$LJ?G?0?p?$KE?M?A@ DB 'C'
	DB	0b5H, 0f0H, 0beH, 0eeH, 0b7H, 0e9H, ',', 0c6H, 0e4H, 0c6H, 0aeH
	DB	' ', 0c8H, 0afH, 0bbH, 0fdH, ',', 0d1H, 0c0H, ',', 0d2H, 0b6H, ','
	DB	0b9H, 0c7H, ',', 0f0H, 0a4H, 0cdH, 0c1H, ',2236,30,5.00,46,31,'
	DB	'51,56,19,3,30,70,0,0,0,0,0,0,0,0,1,2,,,,,,0,1,1,2,102162,1,1,'
	DB	',0,500,,0,500,,0,500,,0,500,,0,500,,6', 00H	; `string'
CONST	ENDS
;	COMDAT ??_C@_0JK@IAIFAJLJ@C?$LE?Y?E?$KJ?$LJ?Y?$LH?N?$LN?$LK?0?F?d?F?$KO?5?H?$KP?$LL?$PN?0?Q?$MA?0?R?$LG?0?$LJ?G?0@
CONST	SEGMENT
??_C@_0JK@IAIFAJLJ@C?$LE?Y?E?$KJ?$LJ?Y?$LH?N?$LN?$LK?0?F?d?F?$KO?5?H?$KP?$LL?$PN?0?Q?$MA?0?R?$LG?0?$LJ?G?0@ DB 'C'
	DB	0b4H, 0d9H, 0c5H, 0a9H, 0b9H, 0d9H, 0b7H, 0ceH, 0bdH, 0baH, ','
	DB	0c6H, 0e4H, 0c6H, 0aeH, ' ', 0c8H, 0afH, 0bbH, 0fdH, ',', 0d1H
	DB	0c0H, ',', 0d2H, 0b6H, ',', 0b9H, 0c7H, ',', 0f0H, 0a4H, 0cdH, 0c1H
	DB	',2242,30,5.00,27,51,29,56,19,3,0,100,0,0,0,0,0,0,0,0,1,2,,,,,'
	DB	',0,1,1,2,102216,1,1,,0,500,,0,500,,0,500,,0,500,,0,500,,6', 00H ; `string'
CONST	ENDS
;	COMDAT ??_C@_0JK@OLFJIKDA@C?$LA?q?$LF?e?$LF?e?$LH?$KB?$LA?o?0?F?d?F?$KO?5?H?$KP?$LL?$PN?0?Q?$MA?0?R?$LG?0?$LJ?G?0@
CONST	SEGMENT
??_C@_0JK@OLFJIKDA@C?$LA?q?$LF?e?$LF?e?$LH?$KB?$LA?o?0?F?d?F?$KO?5?H?$KP?$LL?$PN?0?Q?$MA?0?R?$LG?0?$LJ?G?0@ DB 'C'
	DB	0b0H, 0f1H, 0b5H, 0e5H, 0b5H, 0e5H, 0b7H, 0a1H, 0b0H, 0efH, ','
	DB	0c6H, 0e4H, 0c6H, 0aeH, ' ', 0c8H, 0afH, 0bbH, 0fdH, ',', 0d1H
	DB	0c0H, ',', 0d2H, 0b6H, ',', 0b9H, 0c7H, ',', 0f0H, 0a4H, 0cdH, 0c1H
	DB	',2235,30,5.00,27,51,29,56,19,3,0,0,10,90,0,0,0,0,0,0,1,2,,,,,'
	DB	',0,1,1,2,102156,1,1,,0,500,,0,500,,0,500,,0,500,,0,500,,6', 00H ; `string'
CONST	ENDS
;	COMDAT ??_C@_0JI@EIIPPPDM@C?F?d?$LA?$KB?$LM?v?$LN?$LK?0?F?d?F?$KO?5?H?$KP?$LL?$PN?0?Q?$MA?0?R?$LG?0?$LJ?G?0?p?$KE@
CONST	SEGMENT
??_C@_0JI@EIIPPPDM@C?F?d?$LA?$KB?$LM?v?$LN?$LK?0?F?d?F?$KO?5?H?$KP?$LL?$PN?0?Q?$MA?0?R?$LG?0?$LJ?G?0?p?$KE@ DB 'C'
	DB	0c6H, 0e4H, 0b0H, 0a1H, 0bcH, 0f6H, 0bdH, 0baH, ',', 0c6H, 0e4H
	DB	0c6H, 0aeH, ' ', 0c8H, 0afH, 0bbH, 0fdH, ',', 0d1H, 0c0H, ',', 0d2H
	DB	0b6H, ',', 0b9H, 0c7H, ',', 0f0H, 0a4H, 0cdH, 0c1H, ',2231,30,'
	DB	'5.00,27,51,29,56,19,3,0,0,70,30,0,0,0,0,0,0,1,2,,,,,,0,1,1,2,'
	DB	'102060,1,1,,0,500,,0,500,,0,500,,0,500,,0,500,,6', 00H ; `string'
CONST	ENDS
;	COMDAT ??_C@_0JI@JOLKFIFF@C?$LA?q?$LF?e?$LH?N?$LK?q?0?F?d?F?$KO?5?H?$KP?$LL?$PN?0?Q?$MA?0?R?$LG?0?$LJ?G?0?p?$KE@
CONST	SEGMENT
??_C@_0JI@JOLKFIFF@C?$LA?q?$LF?e?$LH?N?$LK?q?0?F?d?F?$KO?5?H?$KP?$LL?$PN?0?Q?$MA?0?R?$LG?0?$LJ?G?0?p?$KE@ DB 'C'
	DB	0b0H, 0f1H, 0b5H, 0e5H, 0b7H, 0ceH, 0baH, 0f1H, ',', 0c6H, 0e4H
	DB	0c6H, 0aeH, ' ', 0c8H, 0afH, 0bbH, 0fdH, ',', 0d1H, 0c0H, ',', 0d2H
	DB	0b6H, ',', 0b9H, 0c7H, ',', 0f0H, 0a4H, 0cdH, 0c1H, ',2230,30,'
	DB	'5.00,27,51,29,56,19,3,0,0,20,80,0,0,0,0,0,0,1,2,,,,,,0,1,1,2,'
	DB	'102057,1,1,,0,500,,0,500,,0,500,,0,500,,0,500,,6', 00H ; `string'
CONST	ENDS
;	COMDAT ??_C@_0JG@MKAMAEGN@C?$LL?$PO?E?$KJ?$LH?P?0?F?d?F?$KO?5?H?$KP?$LL?$PN?0?Q?$MA?0?R?$LG?0?$LJ?G?0?p?$KE?M?A@
CONST	SEGMENT
??_C@_0JG@MKAMAEGN@C?$LL?$PO?E?$KJ?$LH?P?0?F?d?F?$KO?5?H?$KP?$LL?$PN?0?Q?$MA?0?R?$LG?0?$LJ?G?0?p?$KE?M?A@ DB 'C'
	DB	0bbH, 0feH, 0c5H, 0a9H, 0b7H, 0d0H, ',', 0c6H, 0e4H, 0c6H, 0aeH
	DB	' ', 0c8H, 0afH, 0bbH, 0fdH, ',', 0d1H, 0c0H, ',', 0d2H, 0b6H, ','
	DB	0b9H, 0c7H, ',', 0f0H, 0a4H, 0cdH, 0c1H, ',2229,30,5.00,27,51,'
	DB	'29,56,19,3,0,100,0,0,0,0,0,0,0,0,1,2,,,,,,0,1,1,2,102020,1,1,'
	DB	',0,500,,0,500,,0,500,,0,500,,0,500,,6', 00H	; `string'
CONST	ENDS
;	COMDAT ??_C@_0JG@KKDFMGFD@C?$LP?o?G?$KK?$LN?$LK?0?F?d?F?$KO?5?H?$KP?$LL?$PN?0?Q?$MA?0?R?$LG?0?$LJ?G?0?p?$KE?M?A@
CONST	SEGMENT
??_C@_0JG@KKDFMGFD@C?$LP?o?G?$KK?$LN?$LK?0?F?d?F?$KO?5?H?$KP?$LL?$PN?0?Q?$MA?0?R?$LG?0?$LJ?G?0?p?$KE?M?A@ DB 'C'
	DB	0bfH, 0efH, 0c7H, 0aaH, 0bdH, 0baH, ',', 0c6H, 0e4H, 0c6H, 0aeH
	DB	' ', 0c8H, 0afH, 0bbH, 0fdH, ',', 0d1H, 0c0H, ',', 0d2H, 0b6H, ','
	DB	0b9H, 0c7H, ',', 0f0H, 0a4H, 0cdH, 0c1H, ',2227,30,5.00,27,51,'
	DB	'29,56,19,3,0,100,0,0,0,0,0,0,0,0,1,2,,,,,,0,1,1,2,102007,1,1,'
	DB	',0,500,,0,500,,0,500,,0,500,,0,500,,6', 00H	; `string'
CONST	ENDS
;	COMDAT ??_C@_0JG@CPMAJAJG@C?$LA?$KF?G?$KK?$LN?$LK?0?F?d?F?$KO?5?H?$KP?$LL?$PN?0?Q?$MA?0?R?$LG?0?$LJ?G?0?p?$KE?M?A@
CONST	SEGMENT
??_C@_0JG@CPMAJAJG@C?$LA?$KF?G?$KK?$LN?$LK?0?F?d?F?$KO?5?H?$KP?$LL?$PN?0?Q?$MA?0?R?$LG?0?$LJ?G?0?p?$KE?M?A@ DB 'C'
	DB	0b0H, 0a5H, 0c7H, 0aaH, 0bdH, 0baH, ',', 0c6H, 0e4H, 0c6H, 0aeH
	DB	' ', 0c8H, 0afH, 0bbH, 0fdH, ',', 0d1H, 0c0H, ',', 0d2H, 0b6H, ','
	DB	0b9H, 0c7H, ',', 0f0H, 0a4H, 0cdH, 0c1H, ',2226,30,5.00,27,51,'
	DB	'29,56,19,3,0,0,90,10,0,0,0,0,0,0,1,2,,,,,,0,1,1,2,102006,1,1,'
	DB	',0,500,,0,500,,0,500,,0,500,,0,500,,6', 00H	; `string'
CONST	ENDS
;	COMDAT ??_C@_0JG@KFIKHHAC@C?E?$KJ?$LH?N?E?f?0?F?d?F?$KO?5?H?$KP?$LL?$PN?0?Q?$MA?0?R?$LG?0?$LJ?G?0?p?$KE?M?A@
CONST	SEGMENT
??_C@_0JG@KFIKHHAC@C?E?$KJ?$LH?N?E?f?0?F?d?F?$KO?5?H?$KP?$LL?$PN?0?Q?$MA?0?R?$LG?0?$LJ?G?0?p?$KE?M?A@ DB 'C'
	DB	0c5H, 0a9H, 0b7H, 0ceH, 0c5H, 0e6H, ',', 0c6H, 0e4H, 0c6H, 0aeH
	DB	' ', 0c8H, 0afH, 0bbH, 0fdH, ',', 0d1H, 0c0H, ',', 0d2H, 0b6H, ','
	DB	0b9H, 0c7H, ',', 0f0H, 0a4H, 0cdH, 0c1H, ',2244,30,5.00,36,51,'
	DB	'47,38,19,3,0,70,30,0,0,0,0,0,0,0,1,2,,,,,,0,1,1,2,102259,1,1,'
	DB	',0,500,,0,500,,0,500,,0,500,,0,500,,6', 00H	; `string'
CONST	ENDS
;	COMDAT ??_C@_0JI@EHCCFIKA@C?$LG?s?$LB?W?$LD?k?$LN?$LK?0?F?d?F?$KO?5?H?$KP?$LL?$PN?0?Q?$MA?0?R?$LG?0?$LJ?G?0?p?$KE@
CONST	SEGMENT
??_C@_0JI@EHCCFIKA@C?$LG?s?$LB?W?$LD?k?$LN?$LK?0?F?d?F?$KO?5?H?$KP?$LL?$PN?0?Q?$MA?0?R?$LG?0?$LJ?G?0?p?$KE@ DB 'C'
	DB	0b6H, 0f3H, 0b1H, 0d7H, 0b3H, 0ebH, 0bdH, 0baH, ',', 0c6H, 0e4H
	DB	0c6H, 0aeH, ' ', 0c8H, 0afH, 0bbH, 0fdH, ',', 0d1H, 0c0H, ',', 0d2H
	DB	0b6H, ',', 0b9H, 0c7H, ',', 0f0H, 0a4H, 0cdH, 0c1H, ',2243,30,'
	DB	'5.00,36,51,47,38,19,3,80,20,0,0,0,0,0,0,0,0,1,2,,,,,,0,1,1,2,'
	DB	'102258,1,1,,0,500,,0,500,,0,500,,0,500,,0,500,,6', 00H ; `string'
CONST	ENDS
;	COMDAT ??_C@_0JG@DKCIIONN@C?$LJ?Y?$LP?l?F?$KO?0?F?d?F?$KO?5?H?$KP?$LL?$PN?0?Q?$MA?0?R?$LG?0?$LJ?G?0?p?$KE?M?A@
CONST	SEGMENT
??_C@_0JG@DKCIIONN@C?$LJ?Y?$LP?l?F?$KO?0?F?d?F?$KO?5?H?$KP?$LL?$PN?0?Q?$MA?0?R?$LG?0?$LJ?G?0?p?$KE?M?A@ DB 'C'
	DB	0b9H, 0d9H, 0bfH, 0ecH, 0c6H, 0aeH, ',', 0c6H, 0e4H, 0c6H, 0aeH
	DB	' ', 0c8H, 0afH, 0bbH, 0fdH, ',', 0d1H, 0c0H, ',', 0d2H, 0b6H, ','
	DB	0b9H, 0c7H, ',', 0f0H, 0a4H, 0cdH, 0c1H, ',2241,30,5.00,36,51,'
	DB	'47,38,19,3,0,10,90,0,0,0,0,0,0,0,1,2,,,,,,0,1,1,2,102210,1,1,'
	DB	',0,500,,0,500,,0,500,,0,500,,0,500,,6', 00H	; `string'
CONST	ENDS
;	COMDAT ??_C@_0JK@LOBLPIIN@C?$LO?F?$MA?L?$LN?$LK?$LI?$LI?$LI?p?0?F?d?F?$KO?5?H?$KP?$LL?$PN?0?Q?$MA?0?R?$LG?0?$LJ?G?0@
CONST	SEGMENT
??_C@_0JK@LOBLPIIN@C?$LO?F?$MA?L?$LN?$LK?$LI?$LI?$LI?p?0?F?d?F?$KO?5?H?$KP?$LL?$PN?0?Q?$MA?0?R?$LG?0?$LJ?G?0@ DB 'C'
	DB	0beH, 0c6H, 0c0H, 0ccH, 0bdH, 0baH, 0b8H, 0b8H, 0b8H, 0f0H, ','
	DB	0c6H, 0e4H, 0c6H, 0aeH, ' ', 0c8H, 0afH, 0bbH, 0fdH, ',', 0d1H
	DB	0c0H, ',', 0d2H, 0b6H, ',', 0b9H, 0c7H, ',', 0f0H, 0a4H, 0cdH, 0c1H
	DB	',2240,30,5.00,36,51,47,38,19,3,30,70,0,0,0,0,0,0,0,0,1,2,,,,,'
	DB	',0,1,1,2,102174,1,1,,0,500,,0,500,,0,500,,0,500,,0,500,,6', 00H ; `string'
CONST	ENDS
;	COMDAT ??_C@_0JG@BLGMFID@C?E?$KJ?$LH?g?$LA?E?0?F?d?F?$KO?5?H?$KP?$LL?$PN?0?Q?$MA?0?R?$LG?0?$LJ?G?0?p?$KE?M?A@
CONST	SEGMENT
??_C@_0JG@BLGMFID@C?E?$KJ?$LH?g?$LA?E?0?F?d?F?$KO?5?H?$KP?$LL?$PN?0?Q?$MA?0?R?$LG?0?$LJ?G?0?p?$KE?M?A@ DB 'C'
	DB	0c5H, 0a9H, 0b7H, 0e7H, 0b0H, 0c5H, ',', 0c6H, 0e4H, 0c6H, 0aeH
	DB	' ', 0c8H, 0afH, 0bbH, 0fdH, ',', 0d1H, 0c0H, ',', 0d2H, 0b6H, ','
	DB	0b9H, 0c7H, ',', 0f0H, 0a4H, 0cdH, 0c1H, ',2239,30,5.00,36,51,'
	DB	'47,38,19,3,50,50,0,0,0,0,0,0,0,0,1,2,,,,,,0,1,1,2,105321,1,1,'
	DB	',0,500,,0,500,,0,500,,0,500,,0,500,,6', 00H	; `string'
CONST	ENDS
;	COMDAT ??_C@_0JG@JGGIFFGM@C?D?$KL?$LP?l?$LA?E?0?F?d?F?$KO?5?H?$KP?$LL?$PN?0?Q?$MA?0?R?$LG?0?$LJ?G?0?p?$KE?M?A@
CONST	SEGMENT
??_C@_0JG@JGGIFFGM@C?D?$KL?$LP?l?$LA?E?0?F?d?F?$KO?5?H?$KP?$LL?$PN?0?Q?$MA?0?R?$LG?0?$LJ?G?0?p?$KE?M?A@ DB 'C'
	DB	0c4H, 0abH, 0bfH, 0ecH, 0b0H, 0c5H, ',', 0c6H, 0e4H, 0c6H, 0aeH
	DB	' ', 0c8H, 0afH, 0bbH, 0fdH, ',', 0d1H, 0c0H, ',', 0d2H, 0b6H, ','
	DB	0b9H, 0c7H, ',', 0f0H, 0a4H, 0cdH, 0c1H, ',2238,30,5.00,36,51,'
	DB	'47,38,19,3,70,0,0,30,0,0,0,0,0,0,1,2,,,,,,0,1,1,2,102168,1,1,'
	DB	',0,500,,0,500,,0,500,,0,500,,0,500,,6', 00H	; `string'
CONST	ENDS
;	COMDAT ??_C@_0JK@FFJAGLDM@C?$LK?m?$LH?$KC?$LF?e?$LH?$KB?$LA?o?0?F?d?F?$KO?5?H?$KP?$LL?$PN?0?Q?$MA?0?R?$LG?0?$LJ?G?0@
CONST	SEGMENT
??_C@_0JK@FFJAGLDM@C?$LK?m?$LH?$KC?$LF?e?$LH?$KB?$LA?o?0?F?d?F?$KO?5?H?$KP?$LL?$PN?0?Q?$MA?0?R?$LG?0?$LJ?G?0@ DB 'C'
	DB	0baH, 0edH, 0b7H, 0a2H, 0b5H, 0e5H, 0b7H, 0a1H, 0b0H, 0efH, ','
	DB	0c6H, 0e4H, 0c6H, 0aeH, ' ', 0c8H, 0afH, 0bbH, 0fdH, ',', 0d1H
	DB	0c0H, ',', 0d2H, 0b6H, ',', 0b9H, 0c7H, ',', 0f0H, 0a4H, 0cdH, 0c1H
	DB	',2234,30,5.00,36,51,47,38,19,3,0,20,80,0,0,0,0,0,0,0,1,2,,,,,'
	DB	',0,1,1,2,102127,1,1,,0,500,,0,500,,0,500,,0,500,,0,500,,6', 00H ; `string'
CONST	ENDS
;	COMDAT ??_C@_0JG@EMJAADOM@C?F?$LM?$LH?$LK?$LN?$LK?0?F?d?F?$KO?5?H?$KP?$LL?$PN?0?Q?$MA?0?R?$LG?0?$LJ?G?0?p?$KE?M?A@
CONST	SEGMENT
??_C@_0JG@EMJAADOM@C?F?$LM?$LH?$LK?$LN?$LK?0?F?d?F?$KO?5?H?$KP?$LL?$PN?0?Q?$MA?0?R?$LG?0?$LJ?G?0?p?$KE?M?A@ DB 'C'
	DB	0c6H, 0bcH, 0b7H, 0baH, 0bdH, 0baH, ',', 0c6H, 0e4H, 0c6H, 0aeH
	DB	' ', 0c8H, 0afH, 0bbH, 0fdH, ',', 0d1H, 0c0H, ',', 0d2H, 0b6H, ','
	DB	0b9H, 0c7H, ',', 0f0H, 0a4H, 0cdH, 0c1H, ',2233,30,5.00,36,51,'
	DB	'47,38,19,3,90,10,0,0,0,0,0,0,0,0,1,2,,,,,,0,1,1,2,102126,1,1,'
	DB	',0,500,,0,500,,0,500,,0,500,,0,500,,6', 00H	; `string'
CONST	ENDS
;	COMDAT ??_C@_0JG@PADCEPPG@C?$LH?$LJ?G?G?$LP?B?0?F?d?F?$KO?5?H?$KP?$LL?$PN?0?Q?$MA?0?R?$LG?0?$LJ?G?0?p?$KE?M?A@
CONST	SEGMENT
??_C@_0JG@PADCEPPG@C?$LH?$LJ?G?G?$LP?B?0?F?d?F?$KO?5?H?$KP?$LL?$PN?0?Q?$MA?0?R?$LG?0?$LJ?G?0?p?$KE?M?A@ DB 'C'
	DB	0b7H, 0b9H, 0c7H, 0c7H, 0bfH, 0c2H, ',', 0c6H, 0e4H, 0c6H, 0aeH
	DB	' ', 0c8H, 0afH, 0bbH, 0fdH, ',', 0d1H, 0c0H, ',', 0d2H, 0b6H, ','
	DB	0b9H, 0c7H, ',', 0f0H, 0a4H, 0cdH, 0c1H, ',2232,30,5.00,36,51,'
	DB	'47,38,19,3,0,20,80,0,0,0,0,0,0,0,1,2,,,,,,0,1,1,2,102075,1,1,'
	DB	',0,500,,0,500,,0,500,,0,500,,0,500,,6', 00H	; `string'
CONST	ENDS
;	COMDAT ??_C@_0JG@CEKICIDC@C?$LE?Y?E?$KJ?$LH?P?0?F?d?F?$KO?5?H?$KP?$LL?$PN?0?Q?$MA?0?R?$LG?0?$LJ?G?0?p?$KE?M?A@
CONST	SEGMENT
??_C@_0JG@CEKICIDC@C?$LE?Y?E?$KJ?$LH?P?0?F?d?F?$KO?5?H?$KP?$LL?$PN?0?Q?$MA?0?R?$LG?0?$LJ?G?0?p?$KE?M?A@ DB 'C'
	DB	0b4H, 0d9H, 0c5H, 0a9H, 0b7H, 0d0H, ',', 0c6H, 0e4H, 0c6H, 0aeH
	DB	' ', 0c8H, 0afH, 0bbH, 0fdH, ',', 0d1H, 0c0H, ',', 0d2H, 0b6H, ','
	DB	0b9H, 0c7H, ',', 0f0H, 0a4H, 0cdH, 0c1H, ',2228,30,5.00,36,51,'
	DB	'47,38,19,3,0,60,40,0,0,0,0,0,0,0,1,2,,,,,,0,1,1,2,102018,1,1,'
	DB	',0,500,,0,500,,0,500,,0,500,,0,500,,6', 00H	; `string'
CONST	ENDS
;	COMDAT ??_C@_0JE@IPGJJALP@C?G?$LD?$LJ?i?0?F?d?F?$KO?5?H?$KP?$LL?$PN?0?Q?$MA?0?R?$LG?0?$LJ?G?0?p?$KE?M?A?02@
CONST	SEGMENT
??_C@_0JE@IPGJJALP@C?G?$LD?$LJ?i?0?F?d?F?$KO?5?H?$KP?$LL?$PN?0?Q?$MA?0?R?$LG?0?$LJ?G?0?p?$KE?M?A?02@ DB 'C'
	DB	0c7H, 0b3H, 0b9H, 0e9H, ',', 0c6H, 0e4H, 0c6H, 0aeH, ' ', 0c8H
	DB	0afH, 0bbH, 0fdH, ',', 0d1H, 0c0H, ',', 0d2H, 0b6H, ',', 0b9H, 0c7H
	DB	',', 0f0H, 0a4H, 0cdH, 0c1H, ',2225,30,5.00,46,31,51,56,19,3,2'
	DB	'0,0,0,80,0,0,0,0,0,0,1,2,,,,,,0,1,1,7,102133,1,1,,0,500,,0,50'
	DB	'0,,0,500,,0,500,,0,500,,6', 00H		; `string'
CONST	ENDS
;	COMDAT ??_C@_0JO@LOCLPAHE@C?$LI?$NO?E?$LL?$LL?g?$LH?N?$LH?$LJ?$MA?$PM?$LF?e?0?F?d?F?$KO?5?H?$KP?$LL?$PN?0?Q?$MA?0?R?$LG@
CONST	SEGMENT
??_C@_0JO@LOCLPAHE@C?$LI?$NO?E?$LL?$LL?g?$LH?N?$LH?$LJ?$MA?$PM?$LF?e?0?F?d?F?$KO?5?H?$KP?$LL?$PN?0?Q?$MA?0?R?$LG@ DB 'C'
	DB	0b8H, 0deH, 0c5H, 0bbH, 0bbH, 0e7H, 0b7H, 0ceH, 0b7H, 0b9H, 0c0H
	DB	0fcH, 0b5H, 0e5H, ',', 0c6H, 0e4H, 0c6H, 0aeH, ' ', 0c8H, 0afH
	DB	0bbH, 0fdH, ',', 0d1H, 0c0H, ',', 0d2H, 0b6H, ',', 0b9H, 0c7H, ','
	DB	0f0H, 0a4H, 0cdH, 0c1H, ',2223,30,5.00,46,31,51,56,19,3,80,0,0'
	DB	',20,0,0,0,0,0,0,1,2,,,,,,0,1,1,7,102226,1,1,,0,500,,0,500,,0,'
	DB	'500,,0,500,,0,500,,6', 00H			; `string'
CONST	ENDS
;	COMDAT ??_C@_0JE@NJCMHDHA@C?F?f?$LI?$KO?0?F?d?F?$KO?5?H?$KP?$LL?$PN?0?Q?$MA?0?R?$LG?0?$LJ?G?0?p?$KE?M?A?02@
CONST	SEGMENT
??_C@_0JE@NJCMHDHA@C?F?f?$LI?$KO?0?F?d?F?$KO?5?H?$KP?$LL?$PN?0?Q?$MA?0?R?$LG?0?$LJ?G?0?p?$KE?M?A?02@ DB 'C'
	DB	0c6H, 0e6H, 0b8H, 0aeH, ',', 0c6H, 0e4H, 0c6H, 0aeH, ' ', 0c8H
	DB	0afH, 0bbH, 0fdH, ',', 0d1H, 0c0H, ',', 0d2H, 0b6H, ',', 0b9H, 0c7H
	DB	',', 0f0H, 0a4H, 0cdH, 0c1H, ',2214,30,5.00,46,31,51,56,19,3,5'
	DB	'0,0,0,50,0,0,0,0,0,0,1,2,,,,,,0,1,1,7,102095,1,1,,0,500,,0,50'
	DB	'0,,0,500,,0,500,,0,500,,6', 00H		; `string'
CONST	ENDS
;	COMDAT ??_C@_0JI@GEKPFCLP@C?$LB?$LI?$LH?g?$LI?$LG?$LH?g?0?F?d?F?$KO?5?H?$KP?$LL?$PN?0?Q?$MA?0?R?$LG?0?$LJ?G?0?p?$KE@
CONST	SEGMENT
??_C@_0JI@GEKPFCLP@C?$LB?$LI?$LH?g?$LI?$LG?$LH?g?0?F?d?F?$KO?5?H?$KP?$LL?$PN?0?Q?$MA?0?R?$LG?0?$LJ?G?0?p?$KE@ DB 'C'
	DB	0b1H, 0b8H, 0b7H, 0e7H, 0b8H, 0b6H, 0b7H, 0e7H, ',', 0c6H, 0e4H
	DB	0c6H, 0aeH, ' ', 0c8H, 0afH, 0bbH, 0fdH, ',', 0d1H, 0c0H, ',', 0d2H
	DB	0b6H, ',', 0b9H, 0c7H, ',', 0f0H, 0a4H, 0cdH, 0c1H, ',2210,30,'
	DB	'5.00,46,31,51,56,19,3,60,0,0,40,0,0,0,0,0,0,1,2,,,,,,0,1,1,7,'
	DB	'102017,1,1,,0,500,,0,500,,0,500,,0,500,,0,500,,6', 00H ; `string'
CONST	ENDS
;	COMDAT ??_C@_0JI@DNGKJONF@C?$LH?$LJ?$LF?e?$LI?$KO?$LP?B?0?F?d?F?$KO?5?H?$KP?$LL?$PN?0?Q?$MA?0?R?$LG?0?$LJ?G?0?p?$KE@
CONST	SEGMENT
??_C@_0JI@DNGKJONF@C?$LH?$LJ?$LF?e?$LI?$KO?$LP?B?0?F?d?F?$KO?5?H?$KP?$LL?$PN?0?Q?$MA?0?R?$LG?0?$LJ?G?0?p?$KE@ DB 'C'
	DB	0b7H, 0b9H, 0b5H, 0e5H, 0b8H, 0aeH, 0bfH, 0c2H, ',', 0c6H, 0e4H
	DB	0c6H, 0aeH, ' ', 0c8H, 0afH, 0bbH, 0fdH, ',', 0d1H, 0c0H, ',', 0d2H
	DB	0b6H, ',', 0b9H, 0c7H, ',', 0f0H, 0a4H, 0cdH, 0c1H, ',2222,30,'
	DB	'5.00,27,51,29,56,19,3,0,0,70,30,0,0,0,0,0,0,1,2,,,,,,0,1,1,7,'
	DB	'102178,1,1,,0,500,,0,500,,0,500,,0,500,,0,500,,6', 00H ; `string'
CONST	ENDS
;	COMDAT ??_C@_0JE@BJCGMBML@C?G?X?D?$KB?0?F?d?F?$KO?5?H?$KP?$LL?$PN?0?Q?$MA?0?R?$LG?0?$LJ?G?0?p?$KE?M?A?02@
CONST	SEGMENT
??_C@_0JE@BJCGMBML@C?G?X?D?$KB?0?F?d?F?$KO?5?H?$KP?$LL?$PN?0?Q?$MA?0?R?$LG?0?$LJ?G?0?p?$KE?M?A?02@ DB 'C'
	DB	0c7H, 0d8H, 0c4H, 0a1H, ',', 0c6H, 0e4H, 0c6H, 0aeH, ' ', 0c8H
	DB	0afH, 0bbH, 0fdH, ',', 0d1H, 0c0H, ',', 0d2H, 0b6H, ',', 0b9H, 0c7H
	DB	',', 0f0H, 0a4H, 0cdH, 0c1H, ',2221,30,5.00,27,51,29,56,19,3,0'
	DB	',0,80,30,0,0,0,0,0,0,1,2,,,,,,0,1,1,7,102173,1,1,,0,500,,0,50'
	DB	'0,,0,500,,0,500,,0,500,,6', 00H		; `string'
CONST	ENDS
;	COMDAT ??_C@_0JI@PGPGIJOG@C?D?$KL?$LA?$KB?$LH?N?$LN?$LK?0?F?d?F?$KO?5?H?$KP?$LL?$PN?0?Q?$MA?0?R?$LG?0?$LJ?G?0?p?$KE@
CONST	SEGMENT
??_C@_0JI@PGPGIJOG@C?D?$KL?$LA?$KB?$LH?N?$LN?$LK?0?F?d?F?$KO?5?H?$KP?$LL?$PN?0?Q?$MA?0?R?$LG?0?$LJ?G?0?p?$KE@ DB 'C'
	DB	0c4H, 0abH, 0b0H, 0a1H, 0b7H, 0ceH, 0bdH, 0baH, ',', 0c6H, 0e4H
	DB	0c6H, 0aeH, ' ', 0c8H, 0afH, 0bbH, 0fdH, ',', 0d1H, 0c0H, ',', 0d2H
	DB	0b6H, ',', 0b9H, 0c7H, ',', 0f0H, 0a4H, 0cdH, 0c1H, ',2219,30,'
	DB	'5.00,27,51,29,56,19,3,0,0,70,30,0,0,0,0,0,0,1,2,,,,,,0,1,1,7,'
	DB	'102149,1,1,,0,500,,0,500,,0,500,,0,500,,0,500,,6', 00H ; `string'
CONST	ENDS
;	COMDAT ??_C@_0JE@FKNBNJHA@C?$LA?m?$LH?N?0?F?d?F?$KO?5?H?$KP?$LL?$PN?0?Q?$MA?0?R?$LG?0?$LJ?G?0?p?$KE?M?A?02@
CONST	SEGMENT
??_C@_0JE@FKNBNJHA@C?$LA?m?$LH?N?0?F?d?F?$KO?5?H?$KP?$LL?$PN?0?Q?$MA?0?R?$LG?0?$LJ?G?0?p?$KE?M?A?02@ DB 'C'
	DB	0b0H, 0edH, 0b7H, 0ceH, ',', 0c6H, 0e4H, 0c6H, 0aeH, ' ', 0c8H
	DB	0afH, 0bbH, 0fdH, ',', 0d1H, 0c0H, ',', 0d2H, 0b6H, ',', 0b9H, 0c7H
	DB	',', 0f0H, 0a4H, 0cdH, 0c1H, ',2218,30,5.00,27,51,29,56,19,3,0'
	DB	',0,50,50,0,0,0,0,0,0,1,2,,,,,,0,1,1,7,102145,1,1,,0,500,,0,50'
	DB	'0,,0,500,,0,500,,0,500,,6', 00H		; `string'
CONST	ENDS
;	COMDAT ??_C@_0JE@DGKMGGKH@C?A?V?$MA?$NL?0?F?d?F?$KO?5?H?$KP?$LL?$PN?0?Q?$MA?0?R?$LG?0?$LJ?G?0?p?$KE?M?A?02@
CONST	SEGMENT
??_C@_0JE@DGKMGGKH@C?A?V?$MA?$NL?0?F?d?F?$KO?5?H?$KP?$LL?$PN?0?Q?$MA?0?R?$LG?0?$LJ?G?0?p?$KE?M?A?02@ DB 'C'
	DB	0c1H, 0d6H, 0c0H, 0dbH, ',', 0c6H, 0e4H, 0c6H, 0aeH, ' ', 0c8H
	DB	0afH, 0bbH, 0fdH, ',', 0d1H, 0c0H, ',', 0d2H, 0b6H, ',', 0b9H, 0c7H
	DB	',', 0f0H, 0a4H, 0cdH, 0c1H, ',2217,30,5.00,27,51,29,56,19,3,0'
	DB	',0,80,20,0,0,0,0,0,0,1,2,,,,,,0,1,1,7,102131,1,1,,0,500,,0,50'
	DB	'0,,0,500,,0,500,,0,500,,6', 00H		; `string'
CONST	ENDS
;	COMDAT ??_C@_0KA@MBIMPKDF@C?F?D?$MA?L?$LO?n?E?$LH?$LN?$LK?$LF?e?$LH?$KB?$LA?o?0?F?d?F?$KO?5?H?$KP?$LL?$PN?0?Q?$MA?0@
CONST	SEGMENT
??_C@_0KA@MBIMPKDF@C?F?D?$MA?L?$LO?n?E?$LH?$LN?$LK?$LF?e?$LH?$KB?$LA?o?0?F?d?F?$KO?5?H?$KP?$LL?$PN?0?Q?$MA?0@ DB 'C'
	DB	0c6H, 0c4H, 0c0H, 0ccH, 0beH, 0eeH, 0c5H, 0b7H, 0bdH, 0baH, 0b5H
	DB	0e5H, 0b7H, 0a1H, 0b0H, 0efH, ',', 0c6H, 0e4H, 0c6H, 0aeH, ' ', 0c8H
	DB	0afH, 0bbH, 0fdH, ',', 0d1H, 0c0H, ',', 0d2H, 0b6H, ',', 0b9H, 0c7H
	DB	',', 0f0H, 0a4H, 0cdH, 0c1H, ',2216,30,5.00,27,51,29,56,19,3,0'
	DB	',0,90,10,0,0,0,0,0,0,1,2,,,,,,0,1,1,7,102100,1,1,,0,500,,0,50'
	DB	'0,,0,500,,0,500,,0,500,,6', 00H		; `string'
CONST	ENDS
;	COMDAT ??_C@_0JK@FOHKOKFG@C?$LD?$KK?$LK?q?$LF?e?$LH?$KB?$LA?o?0?F?d?F?$KO?5?H?$KP?$LL?$PN?0?Q?$MA?0?R?$LG?0?$LJ?G?0@
CONST	SEGMENT
??_C@_0JK@FOHKOKFG@C?$LD?$KK?$LK?q?$LF?e?$LH?$KB?$LA?o?0?F?d?F?$KO?5?H?$KP?$LL?$PN?0?Q?$MA?0?R?$LG?0?$LJ?G?0@ DB 'C'
	DB	0b3H, 0aaH, 0baH, 0f1H, 0b5H, 0e5H, 0b7H, 0a1H, 0b0H, 0efH, ','
	DB	0c6H, 0e4H, 0c6H, 0aeH, ' ', 0c8H, 0afH, 0bbH, 0fdH, ',', 0d1H
	DB	0c0H, ',', 0d2H, 0b6H, ',', 0b9H, 0c7H, ',', 0f0H, 0a4H, 0cdH, 0c1H
	DB	',2215,30,5.00,27,51,29,56,19,3,0,0,70,30,0,0,0,0,0,0,1,2,,,,,'
	DB	',0,1,1,7,102100,1,1,,0,500,,0,500,,0,500,,0,500,,0,500,,6', 00H ; `string'
CONST	ENDS
;	COMDAT ??_C@_0JG@BKAGKFBI@C?$LN?$LK?G?G?$LD?k?0?F?d?F?$KO?5?H?$KP?$LL?$PN?0?Q?$MA?0?R?$LG?0?$LJ?G?0?p?$KE?M?A@
CONST	SEGMENT
??_C@_0JG@BKAGKFBI@C?$LN?$LK?G?G?$LD?k?0?F?d?F?$KO?5?H?$KP?$LL?$PN?0?Q?$MA?0?R?$LG?0?$LJ?G?0?p?$KE?M?A@ DB 'C'
	DB	0bdH, 0baH, 0c7H, 0c7H, 0b3H, 0ebH, ',', 0c6H, 0e4H, 0c6H, 0aeH
	DB	' ', 0c8H, 0afH, 0bbH, 0fdH, ',', 0d1H, 0c0H, ',', 0d2H, 0b6H, ','
	DB	0b9H, 0c7H, ',', 0f0H, 0a4H, 0cdH, 0c1H, ',2213,30,5.00,27,51,'
	DB	'29,56,19,3,0,0,100,0,0,0,0,0,0,0,1,2,,,,,,0,1,1,7,102093,1,1,'
	DB	',0,500,,0,500,,0,500,,0,500,,0,500,,6', 00H	; `string'
CONST	ENDS
;	COMDAT ??_C@_0JE@MGDFCFLK@C?C?$LL?$LH?f?0?F?d?F?$KO?5?H?$KP?$LL?$PN?0?Q?$MA?0?R?$LG?0?$LJ?G?0?p?$KE?M?A?02@
CONST	SEGMENT
??_C@_0JE@MGDFCFLK@C?C?$LL?$LH?f?0?F?d?F?$KO?5?H?$KP?$LL?$PN?0?Q?$MA?0?R?$LG?0?$LJ?G?0?p?$KE?M?A?02@ DB 'C'
	DB	0c3H, 0bbH, 0b7H, 0e6H, ',', 0c6H, 0e4H, 0c6H, 0aeH, ' ', 0c8H
	DB	0afH, 0bbH, 0fdH, ',', 0d1H, 0c0H, ',', 0d2H, 0b6H, ',', 0b9H, 0c7H
	DB	',', 0f0H, 0a4H, 0cdH, 0c1H, ',2224,30,5.00,36,51,47,38,19,3,0'
	DB	',90,10,0,0,0,0,0,0,0,1,2,,,,,,0,1,1,7,103373,1,1,,0,500,,0,50'
	DB	'0,,0,500,,0,500,,0,500,,6', 00H		; `string'
CONST	ENDS
;	COMDAT ??_C@_0JE@KAOOBALI@C?G?X?E?B?0?F?d?F?$KO?5?H?$KP?$LL?$PN?0?Q?$MA?0?R?$LG?0?$LJ?G?0?p?$KE?M?A?02@
CONST	SEGMENT
??_C@_0JE@KAOOBALI@C?G?X?E?B?0?F?d?F?$KO?5?H?$KP?$LL?$PN?0?Q?$MA?0?R?$LG?0?$LJ?G?0?p?$KE?M?A?02@ DB 'C'
	DB	0c7H, 0d8H, 0c5H, 0c2H, ',', 0c6H, 0e4H, 0c6H, 0aeH, ' ', 0c8H
	DB	0afH, 0bbH, 0fdH, ',', 0d1H, 0c0H, ',', 0d2H, 0b6H, ',', 0b9H, 0c7H
	DB	',', 0f0H, 0a4H, 0cdH, 0c1H, ',2220,30,5.00,36,51,47,38,19,3,5'
	DB	'0,50,0,0,0,0,0,0,0,0,1,2,,,,,,0,1,1,7,102172,1,1,,0,500,,0,50'
	DB	'0,,0,500,,0,500,,0,500,,6', 00H		; `string'
CONST	ENDS
;	COMDAT ??_C@_0JE@DJIOPPDG@C?G?v?$LJ?$KL?0?F?d?F?$KO?5?H?$KP?$LL?$PN?0?Q?$MA?0?R?$LG?0?$LJ?G?0?p?$KE?M?A?02@
CONST	SEGMENT
??_C@_0JE@DJIOPPDG@C?G?v?$LJ?$KL?0?F?d?F?$KO?5?H?$KP?$LL?$PN?0?Q?$MA?0?R?$LG?0?$LJ?G?0?p?$KE?M?A?02@ DB 'C'
	DB	0c7H, 0f6H, 0b9H, 0abH, ',', 0c6H, 0e4H, 0c6H, 0aeH, ' ', 0c8H
	DB	0afH, 0bbH, 0fdH, ',', 0d1H, 0c0H, ',', 0d2H, 0b6H, ',', 0b9H, 0c7H
	DB	',', 0f0H, 0a4H, 0cdH, 0c1H, ',2212,30,5.00,36,51,47,38,19,3,1'
	DB	'0,90,0,0,0,0,0,0,0,0,1,2,,,,,,0,1,1,7,102046,1,1,,0,500,,0,50'
	DB	'0,,0,500,,0,500,,0,500,,6', 00H		; `string'
CONST	ENDS
;	COMDAT ??_C@_0JM@GBPDCLMI@C?$LO?F?$MA?L?$LN?$LK?$LF?e?$LH?$KB?$LA?o?0?F?d?F?$KO?5?H?$KP?$LL?$PN?0?Q?$MA?0?R?$LG?0?$LJ@
CONST	SEGMENT
??_C@_0JM@GBPDCLMI@C?$LO?F?$MA?L?$LN?$LK?$LF?e?$LH?$KB?$LA?o?0?F?d?F?$KO?5?H?$KP?$LL?$PN?0?Q?$MA?0?R?$LG?0?$LJ@ DB 'C'
	DB	0beH, 0c6H, 0c0H, 0ccH, 0bdH, 0baH, 0b5H, 0e5H, 0b7H, 0a1H, 0b0H
	DB	0efH, ',', 0c6H, 0e4H, 0c6H, 0aeH, ' ', 0c8H, 0afH, 0bbH, 0fdH
	DB	',', 0d1H, 0c0H, ',', 0d2H, 0b6H, ',', 0b9H, 0c7H, ',', 0f0H, 0a4H
	DB	0cdH, 0c1H, ',2211,30,5.00,36,51,47,38,19,3,0,80,20,0,0,0,0,0,'
	DB	'0,0,1,2,,,,,,0,1,1,7,102033,1,1,,0,500,,0,500,,0,500,,0,500,,'
	DB	'0,500,,6', 00H				; `string'
CONST	ENDS
;	COMDAT ??_C@_0JD@PEJNOOOJ@C?$LM?$LD?G?$KF?0?H?$KP?$LL?$PN?F?d?F?$KO?0?Q?$MA?0?R?$LG?0?$LJ?G?0?p?$KE?M?A?022@
CONST	SEGMENT
??_C@_0JD@PEJNOOOJ@C?$LM?$LD?G?$KF?0?H?$KP?$LL?$PN?F?d?F?$KO?0?Q?$MA?0?R?$LG?0?$LJ?G?0?p?$KE?M?A?022@ DB 'C'
	DB	0bcH, 0b3H, 0c7H, 0a5H, ',', 0c8H, 0afH, 0bbH, 0fdH, 0c6H, 0e4H
	DB	0c6H, 0aeH, ',', 0d1H, 0c0H, ',', 0d2H, 0b6H, ',', 0b9H, 0c7H, ','
	DB	0f0H, 0a4H, 0cdH, 0c1H, ',2208,30,5.00,25,47,26,52,19,3,70,0,0'
	DB	',30,0,0,0,0,0,0,1,2,,,,,,0,1,1,2,102143,1,1,,0,500,,0,500,,0,'
	DB	'500,,0,500,,0,500,,6', 00H			; `string'
CONST	ENDS
;	COMDAT ??_C@_0JF@LOGCIFKI@C?A?$KG?$LI?$KD?$LA?$KB?0?H?$KP?$LL?$PN?F?d?F?$KO?0?Q?$MA?0?R?$LG?0?$LJ?G?0?p?$KE?M?A?0@
CONST	SEGMENT
??_C@_0JF@LOGCIFKI@C?A?$KG?$LI?$KD?$LA?$KB?0?H?$KP?$LL?$PN?F?d?F?$KO?0?Q?$MA?0?R?$LG?0?$LJ?G?0?p?$KE?M?A?0@ DB 'C'
	DB	0c1H, 0a6H, 0b8H, 0a3H, 0b0H, 0a1H, ',', 0c8H, 0afH, 0bbH, 0fdH
	DB	0c6H, 0e4H, 0c6H, 0aeH, ',', 0d1H, 0c0H, ',', 0d2H, 0b6H, ',', 0b9H
	DB	0c7H, ',', 0f0H, 0a4H, 0cdH, 0c1H, ',2207,30,5.00,25,47,26,52,'
	DB	'19,3,0,0,70,30,0,0,0,0,0,0,1,2,,,,,,0,1,1,2,102079,1,1,,0,500'
	DB	',,0,500,,0,500,,0,500,,0,500,,6', 00H	; `string'
CONST	ENDS
;	COMDAT ??_C@_0JH@FIKPJIHB@C?$LK?$LL?$LF?e?$LH?$KB?$LA?o?0?H?$KP?$LL?$PN?F?d?F?$KO?0?Q?$MA?0?R?$LG?0?$LJ?G?0?p?$KE?M@
CONST	SEGMENT
??_C@_0JH@FIKPJIHB@C?$LK?$LL?$LF?e?$LH?$KB?$LA?o?0?H?$KP?$LL?$PN?F?d?F?$KO?0?Q?$MA?0?R?$LG?0?$LJ?G?0?p?$KE?M@ DB 'C'
	DB	0baH, 0bbH, 0b5H, 0e5H, 0b7H, 0a1H, 0b0H, 0efH, ',', 0c8H, 0afH
	DB	0bbH, 0fdH, 0c6H, 0e4H, 0c6H, 0aeH, ',', 0d1H, 0c0H, ',', 0d2H
	DB	0b6H, ',', 0b9H, 0c7H, ',', 0f0H, 0a4H, 0cdH, 0c1H, ',2209,30,'
	DB	'5.00,34,47,44,33,19,3,40,60,0,0,0,0,0,0,0,0,1,2,,,,,,0,1,1,2,'
	DB	'102158,1,1,,0,500,,0,500,,0,500,,0,500,,0,500,,6', 00H ; `string'
CONST	ENDS
;	COMDAT ??_C@_0JD@KEOHAJKP@C?A?v?$LI?$LG?0?H?$KP?$LL?$PN?F?d?F?$KO?0?Q?$MA?0?R?$LG?0?$LJ?G?0?p?$KE?M?A?023@
CONST	SEGMENT
??_C@_0JD@KEOHAJKP@C?A?v?$LI?$LG?0?H?$KP?$LL?$PN?F?d?F?$KO?0?Q?$MA?0?R?$LG?0?$LJ?G?0?p?$KE?M?A?023@ DB 'C'
	DB	0c1H, 0f6H, 0b8H, 0b6H, ',', 0c8H, 0afH, 0bbH, 0fdH, 0c6H, 0e4H
	DB	0c6H, 0aeH, ',', 0d1H, 0c0H, ',', 0d2H, 0b6H, ',', 0b9H, 0c7H, ','
	DB	0f0H, 0a4H, 0cdH, 0c1H, ',2320,30,5.00,40,28,46,50,19,3,100,0,'
	DB	'0,0,0,0,0,0,0,0,1,2,,,,,,0,1,1,5,101438,1,1,,0,500,,0,500,,0,'
	DB	'500,,0,500,,0,500,,6', 00H			; `string'
CONST	ENDS
;	COMDAT ??_C@_0JJ@ODOBKOMI@C?$LA?q?$LF?e?E?W?$LG?s?$LA?o?0?H?$KP?$LL?$PN?F?d?F?$KO?0?Q?$MA?0?R?$LG?0?$LJ?G?0?p@
CONST	SEGMENT
??_C@_0JJ@ODOBKOMI@C?$LA?q?$LF?e?E?W?$LG?s?$LA?o?0?H?$KP?$LL?$PN?F?d?F?$KO?0?Q?$MA?0?R?$LG?0?$LJ?G?0?p@ DB 'C'
	DB	0b0H, 0f1H, 0b5H, 0e5H, 0c5H, 0d7H, 0b6H, 0f3H, 0b0H, 0efH, ','
	DB	0c8H, 0afH, 0bbH, 0fdH, 0c6H, 0e4H, 0c6H, 0aeH, ',', 0d1H, 0c0H
	DB	',', 0d2H, 0b6H, ',', 0b9H, 0c7H, ',', 0f0H, 0a4H, 0cdH, 0c1H, ','
	DB	'2303,30,5.00,40,28,46,50,19,3,80,0,0,20,0,0,0,0,0,0,1,2,,,,,,'
	DB	'0,1,1,5,100900,1,1,,0,500,,0,500,,0,500,,0,500,,0,500,,6', 00H ; `string'
CONST	ENDS
;	COMDAT ??_C@_0JH@GAIDELPF@C?$LE?Y?$MA?L?G?G?$LD?k?0?H?$KP?$LL?$PN?F?d?F?$KO?0?Q?$MA?0?R?$LG?0?$LJ?G?0?p?$KE?M@
CONST	SEGMENT
??_C@_0JH@GAIDELPF@C?$LE?Y?$MA?L?G?G?$LD?k?0?H?$KP?$LL?$PN?F?d?F?$KO?0?Q?$MA?0?R?$LG?0?$LJ?G?0?p?$KE?M@ DB 'C'
	DB	0b4H, 0d9H, 0c0H, 0ccH, 0c7H, 0c7H, 0b3H, 0ebH, ',', 0c8H, 0afH
	DB	0bbH, 0fdH, 0c6H, 0e4H, 0c6H, 0aeH, ',', 0d1H, 0c0H, ',', 0d2H
	DB	0b6H, ',', 0b9H, 0c7H, ',', 0f0H, 0a4H, 0cdH, 0c1H, ',2205,30,'
	DB	'5.00,40,28,46,50,19,3,60,0,0,40,0,0,0,0,0,0,1,2,,,,,,0,1,1,5,'
	DB	'102236,1,1,,0,500,,0,500,,0,500,,0,500,,0,500,,6', 00H ; `string'
CONST	ENDS
;	COMDAT ??_C@_0JF@OEDHEMAD@C?$LJ?Y?$LH?N?$LN?$LK?0?H?$KP?$LL?$PN?F?d?F?$KO?0?Q?$MA?0?R?$LG?0?$LJ?G?0?p?$KE?M?A?0@
CONST	SEGMENT
??_C@_0JF@OEDHEMAD@C?$LJ?Y?$LH?N?$LN?$LK?0?H?$KP?$LL?$PN?F?d?F?$KO?0?Q?$MA?0?R?$LG?0?$LJ?G?0?p?$KE?M?A?0@ DB 'C'
	DB	0b9H, 0d9H, 0b7H, 0ceH, 0bdH, 0baH, ',', 0c8H, 0afH, 0bbH, 0fdH
	DB	0c6H, 0e4H, 0c6H, 0aeH, ',', 0d1H, 0c0H, ',', 0d2H, 0b6H, ',', 0b9H
	DB	0c7H, ',', 0f0H, 0a4H, 0cdH, 0c1H, ',2204,30,5.00,40,28,46,50,'
	DB	'19,3,40,0,0,60,0,0,0,0,0,0,1,2,,,,,,0,1,1,5,102123,1,1,,0,500'
	DB	',,0,500,,0,500,,0,500,,0,500,,6', 00H	; `string'
CONST	ENDS
;	COMDAT ??_C@_0JF@BLACNEND@C?$LF?$KI?G?$KK?$LN?$LK?0?H?$KP?$LL?$PN?F?d?F?$KO?0?Q?$MA?0?R?$LG?0?$LJ?G?0?p?$KE?M?A?0@
CONST	SEGMENT
??_C@_0JF@BLACNEND@C?$LF?$KI?G?$KK?$LN?$LK?0?H?$KP?$LL?$PN?F?d?F?$KO?0?Q?$MA?0?R?$LG?0?$LJ?G?0?p?$KE?M?A?0@ DB 'C'
	DB	0b5H, 0a8H, 0c7H, 0aaH, 0bdH, 0baH, ',', 0c8H, 0afH, 0bbH, 0fdH
	DB	0c6H, 0e4H, 0c6H, 0aeH, ',', 0d1H, 0c0H, ',', 0d2H, 0b6H, ',', 0b9H
	DB	0c7H, ',', 0f0H, 0a4H, 0cdH, 0c1H, ',2202,30,5.00,40,28,46,50,'
	DB	'19,3,90,10,0,0,0,0,0,0,0,0,1,2,,,,,,0,1,1,5,102005,1,1,,0,500'
	DB	',,0,500,,0,500,,0,500,,0,500,,6', 00H	; `string'
CONST	ENDS
;	COMDAT ??_C@_0JD@NNHLEJFB@C?G?$LD?$LI?$LG?0?H?$KP?$LL?$PN?F?d?F?$KO?0?Q?$MA?0?R?$LG?0?$LJ?G?0?p?$KE?M?A?023@
CONST	SEGMENT
??_C@_0JD@NNHLEJFB@C?G?$LD?$LI?$LG?0?H?$KP?$LL?$PN?F?d?F?$KO?0?Q?$MA?0?R?$LG?0?$LJ?G?0?p?$KE?M?A?023@ DB 'C'
	DB	0c7H, 0b3H, 0b8H, 0b6H, ',', 0c8H, 0afH, 0bbH, 0fdH, 0c6H, 0e4H
	DB	0c6H, 0aeH, ',', 0d1H, 0c0H, ',', 0d2H, 0b6H, ',', 0b9H, 0c7H, ','
	DB	0f0H, 0a4H, 0cdH, 0c1H, ',2304,30,5.00,25,47,26,52,19,3,0,0,0,'
	DB	'100,0,0,0,0,0,0,1,2,,,,,,0,1,1,2,101443,1,1,,0,500,,0,500,,0,'
	DB	'500,,0,500,,0,500,,6', 00H			; `string'
CONST	ENDS
;	COMDAT ??_C@_0JF@CAIPLEE@C?E?W?$LG?s?$LF?$LH?0?H?$KP?$LL?$PN?F?d?F?$KO?0?Q?$MA?0?R?$LG?0?$LJ?G?0?p?$KE?M?A?0@
CONST	SEGMENT
??_C@_0JF@CAIPLEE@C?E?W?$LG?s?$LF?$LH?0?H?$KP?$LL?$PN?F?d?F?$KO?0?Q?$MA?0?R?$LG?0?$LJ?G?0?p?$KE?M?A?0@ DB 'C'
	DB	0c5H, 0d7H, 0b6H, 0f3H, 0b5H, 0b7H, ',', 0c8H, 0afH, 0bbH, 0fdH
	DB	0c6H, 0e4H, 0c6H, 0aeH, ',', 0d1H, 0c0H, ',', 0d2H, 0b6H, ',', 0b9H
	DB	0c7H, ',', 0f0H, 0a4H, 0cdH, 0c1H, ',2304,30,5.00,25,47,26,52,'
	DB	'19,3,10,90,0,0,0,0,0,0,0,0,1,2,,,,,,0,1,1,2,100901,1,1,,0,500'
	DB	',,0,500,,0,500,,0,500,,0,500,,6', 00H	; `string'
CONST	ENDS
;	COMDAT ??_C@_0JF@KHMGEPFN@C?G?$KK?E?W?$LG?s?0?H?$KP?$LL?$PN?F?d?F?$KO?0?Q?$MA?0?R?$LG?0?$LJ?G?0?p?$KE?M?A?0@
CONST	SEGMENT
??_C@_0JF@KHMGEPFN@C?G?$KK?E?W?$LG?s?0?H?$KP?$LL?$PN?F?d?F?$KO?0?Q?$MA?0?R?$LG?0?$LJ?G?0?p?$KE?M?A?0@ DB 'C'
	DB	0c7H, 0aaH, 0c5H, 0d7H, 0b6H, 0f3H, ',', 0c8H, 0afH, 0bbH, 0fdH
	DB	0c6H, 0e4H, 0c6H, 0aeH, ',', 0d1H, 0c0H, ',', 0d2H, 0b6H, ',', 0b9H
	DB	0c7H, ',', 0f0H, 0a4H, 0cdH, 0c1H, ',2302,30,5.00,25,47,26,52,'
	DB	'19,3,0,80,20,0,0,0,0,0,0,0,1,2,,,,,,0,1,1,2,100898,1,1,,0,500'
	DB	',,0,500,,0,500,,0,500,,0,500,,6', 00H	; `string'
CONST	ENDS
;	COMDAT ??_C@_0JF@NALOHHO@C?$LB?b?$LG?s?$LD?k?0?H?$KP?$LL?$PN?F?d?F?$KO?0?Q?$MA?0?R?$LG?0?$LJ?G?0?p?$KE?M?A?0@
CONST	SEGMENT
??_C@_0JF@NALOHHO@C?$LB?b?$LG?s?$LD?k?0?H?$KP?$LL?$PN?F?d?F?$KO?0?Q?$MA?0?R?$LG?0?$LJ?G?0?p?$KE?M?A?0@ DB 'C'
	DB	0b1H, 0e2H, 0b6H, 0f3H, 0b3H, 0ebH, ',', 0c8H, 0afH, 0bbH, 0fdH
	DB	0c6H, 0e4H, 0c6H, 0aeH, ',', 0d1H, 0c0H, ',', 0d2H, 0b6H, ',', 0b9H
	DB	0c7H, ',', 0f0H, 0a4H, 0cdH, 0c1H, ',2300,30,5.00,25,47,26,52,'
	DB	'19,3,0,50,50,0,0,0,0,0,0,0,1,2,,,,,,0,1,1,2,100849,1,1,,0,500'
	DB	',,0,500,,0,500,,0,500,,0,500,,6', 00H	; `string'
CONST	ENDS
;	COMDAT ??_C@_0JF@JCIODNGK@C?$LK?$KD?$LG?s?$LG?s?0?H?$KP?$LL?$PN?F?d?F?$KO?0?Q?$MA?0?R?$LG?0?$LJ?G?0?p?$KE?M?A?0@
CONST	SEGMENT
??_C@_0JF@JCIODNGK@C?$LK?$KD?$LG?s?$LG?s?0?H?$KP?$LL?$PN?F?d?F?$KO?0?Q?$MA?0?R?$LG?0?$LJ?G?0?p?$KE?M?A?0@ DB 'C'
	DB	0baH, 0a3H, 0b6H, 0f3H, 0b6H, 0f3H, ',', 0c8H, 0afH, 0bbH, 0fdH
	DB	0c6H, 0e4H, 0c6H, 0aeH, ',', 0d1H, 0c0H, ',', 0d2H, 0b6H, ',', 0b9H
	DB	0c7H, ',', 0f0H, 0a4H, 0cdH, 0c1H, ',2206,30,5.00,25,47,26,52,'
	DB	'19,3,0,0,40,60,0,0,0,0,0,0,1,2,,,,,,0,1,1,5,102257,1,1,,0,500'
	DB	',,0,500,,0,500,,0,500,,0,500,,6', 00H	; `string'
CONST	ENDS
;	COMDAT ??_C@_0JD@ECLGEOOL@C?$LO?F?$LI?$KO?0?H?$KP?$LL?$PN?F?d?F?$KO?0?Q?$MA?0?R?$LG?0?$LJ?G?0?p?$KE?M?A?022@
CONST	SEGMENT
??_C@_0JD@ECLGEOOL@C?$LO?F?$LI?$KO?0?H?$KP?$LL?$PN?F?d?F?$KO?0?Q?$MA?0?R?$LG?0?$LJ?G?0?p?$KE?M?A?022@ DB 'C'
	DB	0beH, 0c6H, 0b8H, 0aeH, ',', 0c8H, 0afH, 0bbH, 0fdH, 0c6H, 0e4H
	DB	0c6H, 0aeH, ',', 0d1H, 0c0H, ',', 0d2H, 0b6H, ',', 0b9H, 0c7H, ','
	DB	0f0H, 0a4H, 0cdH, 0c1H, ',2203,30,5.00,25,47,26,52,19,3,0,0,10'
	DB	',90,0,0,0,0,0,0,1,2,,,,,,0,1,1,5,102042,1,1,,0,500,,0,500,,0,'
	DB	'500,,0,500,,0,500,,6', 00H			; `string'
CONST	ENDS
;	COMDAT ??_C@_0JF@IMGMCFOB@C?D?$KO?$LH?N?$LN?$LK?0?H?$KP?$LL?$PN?F?d?F?$KO?0?Q?$MA?0?R?$LG?0?$LJ?G?0?p?$KE?M?A?0@
CONST	SEGMENT
??_C@_0JF@IMGMCFOB@C?D?$KO?$LH?N?$LN?$LK?0?H?$KP?$LL?$PN?F?d?F?$KO?0?Q?$MA?0?R?$LG?0?$LJ?G?0?p?$KE?M?A?0@ DB 'C'
	DB	0c4H, 0aeH, 0b7H, 0ceH, 0bdH, 0baH, ',', 0c8H, 0afH, 0bbH, 0fdH
	DB	0c6H, 0e4H, 0c6H, 0aeH, ',', 0d1H, 0c0H, ',', 0d2H, 0b6H, ',', 0b9H
	DB	0c7H, ',', 0f0H, 0a4H, 0cdH, 0c1H, ',2200,30,5.00,25,47,26,52,'
	DB	'19,3,0,60,40,0,0,0,0,0,0,0,1,2,,,,,,0,1,1,5,100906,1,1,,0,500'
	DB	',,0,500,,0,500,,0,500,,0,500,,6', 00H	; `string'
CONST	ENDS
;	COMDAT ??_C@_0JH@NGJCKOCP@C?$LN?G?$LJ?v?$LG?s?$LA?o?0?H?$KP?$LL?$PN?F?d?F?$KO?0?Q?$MA?0?R?$LG?0?$LJ?G?0?p?$KE?M@
CONST	SEGMENT
??_C@_0JH@NGJCKOCP@C?$LN?G?$LJ?v?$LG?s?$LA?o?0?H?$KP?$LL?$PN?F?d?F?$KO?0?Q?$MA?0?R?$LG?0?$LJ?G?0?p?$KE?M@ DB 'C'
	DB	0bdH, 0c7H, 0b9H, 0f6H, 0b6H, 0f3H, 0b0H, 0efH, ',', 0c8H, 0afH
	DB	0bbH, 0fdH, 0c6H, 0e4H, 0c6H, 0aeH, ',', 0d1H, 0c0H, ',', 0d2H
	DB	0b6H, ',', 0b9H, 0c7H, ',', 0f0H, 0a4H, 0cdH, 0c1H, ',2301,30,'
	DB	'5.00,34,47,44,33,19,3,50,50,0,0,0,0,0,0,0,0,1,2,,,,,,0,1,1,5,'
	DB	'100899,1,1,,0,500,,0,500,,0,500,,0,500,,0,500,,6', 00H ; `string'
CONST	ENDS
;	COMDAT ??_C@_0JF@KPDLJGEE@C?F?D?$LI?$KD?$LA?o?0?H?$KP?$LL?$PN?F?d?F?$KO?0?Q?$MA?0?R?$LG?0?$LJ?G?0?p?$KE?M?A?0@
CONST	SEGMENT
??_C@_0JF@KPDLJGEE@C?F?D?$LI?$KD?$LA?o?0?H?$KP?$LL?$PN?F?d?F?$KO?0?Q?$MA?0?R?$LG?0?$LJ?G?0?p?$KE?M?A?0@ DB 'C'
	DB	0c6H, 0c4H, 0b8H, 0a3H, 0b0H, 0efH, ',', 0c8H, 0afH, 0bbH, 0fdH
	DB	0c6H, 0e4H, 0c6H, 0aeH, ',', 0d1H, 0c0H, ',', 0d2H, 0b6H, ',', 0b9H
	DB	0c7H, ',', 0f0H, 0a4H, 0cdH, 0c1H, ',2201,30,5.00,34,47,44,33,'
	DB	'19,3,20,80,0,0,0,0,0,0,0,0,1,2,,,,,,0,1,1,5,100909,1,1,,0,500'
	DB	',,0,500,,0,500,,0,500,,0,500,,6', 00H	; `string'
CONST	ENDS
;	COMDAT ??_C@_0JH@BMDCDHOM@C?$MA?L?$LB?$LI?$LH?N?$LN?$LK?0?H?$KP?$LL?$PN?F?d?F?$KO?0?Q?$MA?0?R?$LG?0?$LJ?G?0?p?$KE?M@
CONST	SEGMENT
??_C@_0JH@BMDCDHOM@C?$MA?L?$LB?$LI?$LH?N?$LN?$LK?0?H?$KP?$LL?$PN?F?d?F?$KO?0?Q?$MA?0?R?$LG?0?$LJ?G?0?p?$KE?M@ DB 'C'
	DB	0c0H, 0ccH, 0b1H, 0b8H, 0b7H, 0ceH, 0bdH, 0baH, ',', 0c8H, 0afH
	DB	0bbH, 0fdH, 0c6H, 0e4H, 0c6H, 0aeH, ',', 0d1H, 0c0H, ',', 0d2H
	DB	0b6H, ',', 0b9H, 0c7H, ',', 0f0H, 0a4H, 0cdH, 0c1H, ',2191,30,'
	DB	'5.00,40,28,46,50,19,3,50,0,0,50,0,0,0,0,0,0,1,2,,,,,,0,1,1,2,'
	DB	'102170,1,1,,0,500,,0,500,,0,500,,0,500,,0,500,,6', 00H ; `string'
CONST	ENDS
;	COMDAT ??_C@_0JH@NCDPPBMA@C?$LI?p?$LA?$KB?$LH?N?$LN?$LK?0?H?$KP?$LL?$PN?F?d?F?$KO?0?Q?$MA?0?R?$LG?0?$LJ?G?0?p?$KE?M@
CONST	SEGMENT
??_C@_0JH@NCDPPBMA@C?$LI?p?$LA?$KB?$LH?N?$LN?$LK?0?H?$KP?$LL?$PN?F?d?F?$KO?0?Q?$MA?0?R?$LG?0?$LJ?G?0?p?$KE?M@ DB 'C'
	DB	0b8H, 0f0H, 0b0H, 0a1H, 0b7H, 0ceH, 0bdH, 0baH, ',', 0c8H, 0afH
	DB	0bbH, 0fdH, 0c6H, 0e4H, 0c6H, 0aeH, ',', 0d1H, 0c0H, ',', 0d2H
	DB	0b6H, ',', 0b9H, 0c7H, ',', 0f0H, 0a4H, 0cdH, 0c1H, ',2190,30,'
	DB	'5.00,25,47,26,52,19,3,0,20,80,0,0,0,0,0,0,0,1,2,,,,,,0,1,1,2,'
	DB	'100373,1,1,,0,500,,0,500,,0,500,,0,500,,0,500,,6', 00H ; `string'
CONST	ENDS
;	COMDAT ??_C@_0JJ@KGMGEBBB@C?$LB?W?$LI?$LA?$LJ?Y?$LH?N?$LN?$LK?0?H?$KP?$LL?$PN?F?d?F?$KO?0?Q?$MA?0?R?$LG?0?$LJ?G?0?p@
CONST	SEGMENT
??_C@_0JJ@KGMGEBBB@C?$LB?W?$LI?$LA?$LJ?Y?$LH?N?$LN?$LK?0?H?$KP?$LL?$PN?F?d?F?$KO?0?Q?$MA?0?R?$LG?0?$LJ?G?0?p@ DB 'C'
	DB	0b1H, 0d7H, 0b8H, 0b0H, 0b9H, 0d9H, 0b7H, 0ceH, 0bdH, 0baH, ','
	DB	0c8H, 0afH, 0bbH, 0fdH, 0c6H, 0e4H, 0c6H, 0aeH, ',', 0d1H, 0c0H
	DB	',', 0d2H, 0b6H, ',', 0b9H, 0c7H, ',', 0f0H, 0a4H, 0cdH, 0c1H, ','
	DB	'2185,30,5.00,40,28,46,50,19,3,100,0,0,0,0,0,0,0,0,0,1,2,,,,,,'
	DB	'0,1,1,5,102124,1,1,,0,500,,0,500,,0,500,,0,500,,0,500,,6', 00H ; `string'
CONST	ENDS
;	COMDAT ??_C@_0JH@DLIKJJGB@C?$LA?m?$LI?$KD?$LA?$KB?$LI?$KD?0?H?$KP?$LL?$PN?F?d?F?$KO?0?Q?$MA?0?R?$LG?0?$LJ?G?0?p?$KE?M@
CONST	SEGMENT
??_C@_0JH@DLIKJJGB@C?$LA?m?$LI?$KD?$LA?$KB?$LI?$KD?0?H?$KP?$LL?$PN?F?d?F?$KO?0?Q?$MA?0?R?$LG?0?$LJ?G?0?p?$KE?M@ DB 'C'
	DB	0b0H, 0edH, 0b8H, 0a3H, 0b0H, 0a1H, 0b8H, 0a3H, ',', 0c8H, 0afH
	DB	0bbH, 0fdH, 0c6H, 0e4H, 0c6H, 0aeH, ',', 0d1H, 0c0H, ',', 0d2H
	DB	0b6H, ',', 0b9H, 0c7H, ',', 0f0H, 0a4H, 0cdH, 0c1H, ',2189,30,'
	DB	'5.00,25,47,26,52,19,3,0,0,70,30,0,0,0,0,0,0,1,2,,,,,,0,1,1,5,'
	DB	'103034,1,1,,0,500,,0,500,,0,500,,0,500,,0,500,,6', 00H ; `string'
CONST	ENDS
;	COMDAT ??_C@_0JH@CFIOOCO@C?$LK?$KD?$LH?g?$LA?$KB?$LI?$KD?0?H?$KP?$LL?$PN?F?d?F?$KO?0?Q?$MA?0?R?$LG?0?$LJ?G?0?p?$KE?M@
CONST	SEGMENT
??_C@_0JH@CFIOOCO@C?$LK?$KD?$LH?g?$LA?$KB?$LI?$KD?0?H?$KP?$LL?$PN?F?d?F?$KO?0?Q?$MA?0?R?$LG?0?$LJ?G?0?p?$KE?M@ DB 'C'
	DB	0baH, 0a3H, 0b7H, 0e7H, 0b0H, 0a1H, 0b8H, 0a3H, ',', 0c8H, 0afH
	DB	0bbH, 0fdH, 0c6H, 0e4H, 0c6H, 0aeH, ',', 0d1H, 0c0H, ',', 0d2H
	DB	0b6H, ',', 0b9H, 0c7H, ',', 0f0H, 0a4H, 0cdH, 0c1H, ',2188,30,'
	DB	'5.00,25,47,26,52,19,3,0,0,40,60,0,0,0,0,0,0,1,2,,,,,,0,1,1,5,'
	DB	'103033,1,1,,0,500,,0,500,,0,500,,0,500,,0,500,,6', 00H ; `string'
CONST	ENDS
;	COMDAT ??_C@_0JH@PCLJBLKA@C?$LK?$KD?$LI?$KD?$LA?$KB?$LI?$KD?0?H?$KP?$LL?$PN?F?d?F?$KO?0?Q?$MA?0?R?$LG?0?$LJ?G?0?p?$KE?M@
CONST	SEGMENT
??_C@_0JH@PCLJBLKA@C?$LK?$KD?$LI?$KD?$LA?$KB?$LI?$KD?0?H?$KP?$LL?$PN?F?d?F?$KO?0?Q?$MA?0?R?$LG?0?$LJ?G?0?p?$KE?M@ DB 'C'
	DB	0baH, 0a3H, 0b8H, 0a3H, 0b0H, 0a1H, 0b8H, 0a3H, ',', 0c8H, 0afH
	DB	0bbH, 0fdH, 0c6H, 0e4H, 0c6H, 0aeH, ',', 0d1H, 0c0H, ',', 0d2H
	DB	0b6H, ',', 0b9H, 0c7H, ',', 0f0H, 0a4H, 0cdH, 0c1H, ',2187,30,'
	DB	'5.00,25,47,26,52,19,3,70,30,0,0,0,0,0,0,0,0,1,2,,,,,,0,1,1,5,'
	DB	'103032,1,1,,0,500,,0,500,,0,500,,0,500,,0,500,,6', 00H ; `string'
CONST	ENDS
;	COMDAT ??_C@_0JH@LHBDBPLD@C?$LD?k?$LI?$KD?$LA?$KB?$LI?$KD?0?H?$KP?$LL?$PN?F?d?F?$KO?0?Q?$MA?0?R?$LG?0?$LJ?G?0?p?$KE?M@
CONST	SEGMENT
??_C@_0JH@LHBDBPLD@C?$LD?k?$LI?$KD?$LA?$KB?$LI?$KD?0?H?$KP?$LL?$PN?F?d?F?$KO?0?Q?$MA?0?R?$LG?0?$LJ?G?0?p?$KE?M@ DB 'C'
	DB	0b3H, 0ebH, 0b8H, 0a3H, 0b0H, 0a1H, 0b8H, 0a3H, ',', 0c8H, 0afH
	DB	0bbH, 0fdH, 0c6H, 0e4H, 0c6H, 0aeH, ',', 0d1H, 0c0H, ',', 0d2H
	DB	0b6H, ',', 0b9H, 0c7H, ',', 0f0H, 0a4H, 0cdH, 0c1H, ',2186,30,'
	DB	'5.00,25,47,26,52,19,3,20,0,0,80,0,0,0,0,0,0,1,2,,,,,,0,1,1,5,'
	DB	'102194,1,1,,0,500,,0,500,,0,500,,0,500,,0,500,,6', 00H ; `string'
CONST	ENDS
;	COMDAT ??_C@_0JF@CCDLOPAN@C?$LK?m?$LH?$KC?F?$NO?0?H?$KP?$LL?$PN?F?d?F?$KO?0?Q?$MA?0?R?$LG?0?$LJ?G?0?p?$KE?M?A?0@
CONST	SEGMENT
??_C@_0JF@CCDLOPAN@C?$LK?m?$LH?$KC?F?$NO?0?H?$KP?$LL?$PN?F?d?F?$KO?0?Q?$MA?0?R?$LG?0?$LJ?G?0?p?$KE?M?A?0@ DB 'C'
	DB	0baH, 0edH, 0b7H, 0a2H, 0c6H, 0deH, ',', 0c8H, 0afH, 0bbH, 0fdH
	DB	0c6H, 0e4H, 0c6H, 0aeH, ',', 0d1H, 0c0H, ',', 0d2H, 0b6H, ',', 0b9H
	DB	0c7H, ',', 0f0H, 0a4H, 0cdH, 0c1H, ',2184,30,5.00,25,47,26,52,'
	DB	'19,3,0,0,50,50,0,0,0,0,0,0,1,2,,,,,,0,1,1,5,102016,1,1,,0,500'
	DB	',,0,500,,0,500,,0,500,,0,500,,6', 00H	; `string'
CONST	ENDS
;	COMDAT ??_C@_0JF@BHNKONDD@C?$LF?$LJ?$LK?O?$MA?L?0?H?$KP?$LL?$PN?F?d?F?$KO?0?Q?$MA?0?R?$LG?0?$LJ?G?0?p?$KE?M?A?0@
CONST	SEGMENT
??_C@_0JF@BHNKONDD@C?$LF?$LJ?$LK?O?$MA?L?0?H?$KP?$LL?$PN?F?d?F?$KO?0?Q?$MA?0?R?$LG?0?$LJ?G?0?p?$KE?M?A?0@ DB 'C'
	DB	0b5H, 0b9H, 0baH, 0cfH, 0c0H, 0ccH, ',', 0c8H, 0afH, 0bbH, 0fdH
	DB	0c6H, 0e4H, 0c6H, 0aeH, ',', 0d1H, 0c0H, ',', 0d2H, 0b6H, ',', 0b9H
	DB	0c7H, ',', 0f0H, 0a4H, 0cdH, 0c1H, ',2183,30,5.00,34,47,44,33,'
	DB	'19,3,90,0,0,0,10,0,0,0,0,0,1,2,,,,,,0,1,1,5,100274,1,1,,0,500'
	DB	',,0,500,,0,500,,0,500,,0,500,,6', 00H	; `string'
CONST	ENDS
;	COMDAT ??_C@_0JF@CLPJJCHG@C?$LB?x?$LK?O?$MA?L?0?H?$KP?$LL?$PN?F?d?F?$KO?0?Q?$MA?0?R?$LG?0?$LJ?G?0?p?$KE?M?A?0@
CONST	SEGMENT
??_C@_0JF@CLPJJCHG@C?$LB?x?$LK?O?$MA?L?0?H?$KP?$LL?$PN?F?d?F?$KO?0?Q?$MA?0?R?$LG?0?$LJ?G?0?p?$KE?M?A?0@ DB 'C'
	DB	0b1H, 0f8H, 0baH, 0cfH, 0c0H, 0ccH, ',', 0c8H, 0afH, 0bbH, 0fdH
	DB	0c6H, 0e4H, 0c6H, 0aeH, ',', 0d1H, 0c0H, ',', 0d2H, 0b6H, ',', 0b9H
	DB	0c7H, ',', 0f0H, 0a4H, 0cdH, 0c1H, ',2182,30,5.00,34,47,44,33,'
	DB	'19,3,0,0,80,20,0,0,0,0,0,0,1,2,,,,,,0,1,1,5,100273,1,1,,0,500'
	DB	',,0,500,,0,500,,0,500,,0,500,,6', 00H	; `string'
CONST	ENDS
;	COMDAT ??_C@_0JD@HLMJBJGF@C?$LK?O?$MA?L?0?H?$KP?$LL?$PN?F?d?F?$KO?0?Q?$MA?0?R?$LG?0?$LJ?G?0?p?$KE?M?A?021@
CONST	SEGMENT
??_C@_0JD@HLMJBJGF@C?$LK?O?$MA?L?0?H?$KP?$LL?$PN?F?d?F?$KO?0?Q?$MA?0?R?$LG?0?$LJ?G?0?p?$KE?M?A?021@ DB 'C'
	DB	0baH, 0cfH, 0c0H, 0ccH, ',', 0c8H, 0afH, 0bbH, 0fdH, 0c6H, 0e4H
	DB	0c6H, 0aeH, ',', 0d1H, 0c0H, ',', 0d2H, 0b6H, ',', 0b9H, 0c7H, ','
	DB	0f0H, 0a4H, 0cdH, 0c1H, ',2181,30,5.00,34,47,44,33,19,3,60,0,0'
	DB	',40,0,0,0,0,0,0,1,2,,,,,,0,1,1,5,100272,1,1,,0,500,,0,500,,0,'
	DB	'500,,0,500,,0,500,,6', 00H			; `string'
CONST	ENDS
;	COMDAT ??_C@_0JF@DDIOEJGF@C?$LD?k?$LK?O?$MA?L?0?H?$KP?$LL?$PN?F?d?F?$KO?0?Q?$MA?0?R?$LG?0?$LJ?G?0?p?$KE?M?A?0@
CONST	SEGMENT
??_C@_0JF@DDIOEJGF@C?$LD?k?$LK?O?$MA?L?0?H?$KP?$LL?$PN?F?d?F?$KO?0?Q?$MA?0?R?$LG?0?$LJ?G?0?p?$KE?M?A?0@ DB 'C'
	DB	0b3H, 0ebH, 0baH, 0cfH, 0c0H, 0ccH, ',', 0c8H, 0afH, 0bbH, 0fdH
	DB	0c6H, 0e4H, 0c6H, 0aeH, ',', 0d1H, 0c0H, ',', 0d2H, 0b6H, ',', 0b9H
	DB	0c7H, ',', 0f0H, 0a4H, 0cdH, 0c1H, ',2180,30,5.00,34,47,44,33,'
	DB	'19,3,70,0,0,30,0,0,0,0,0,0,1,2,,,,,,0,1,1,5,100271,1,1,,0,500'
	DB	',,0,500,,0,500,,0,500,,0,500,,6', 00H	; `string'
CONST	ENDS
;	COMDAT ??_C@_0JD@LICPDLCA@C?$LJ?i?H?$KD?0?H?$KP?$LL?$PN?F?d?F?$KO?0?Q?$MA?0?R?$LG?0?$LJ?G?0?p?$KE?M?A?021@
CONST	SEGMENT
??_C@_0JD@LICPDLCA@C?$LJ?i?H?$KD?0?H?$KP?$LL?$PN?F?d?F?$KO?0?Q?$MA?0?R?$LG?0?$LJ?G?0?p?$KE?M?A?021@ DB 'C'
	DB	0b9H, 0e9H, 0c8H, 0a3H, ',', 0c8H, 0afH, 0bbH, 0fdH, 0c6H, 0e4H
	DB	0c6H, 0aeH, ',', 0d1H, 0c0H, ',', 0d2H, 0b6H, ',', 0b9H, 0c7H, ','
	DB	0f0H, 0a4H, 0cdH, 0c1H, ',2118,30,5.00,40,28,46,50,19,3,70,30,'
	DB	'0,0,0,0,0,0,0,0,1,2,,,,,,0,1,1,2,102137,1,1,,0,500,,0,500,,0,'
	DB	'500,,0,500,,0,500,,6', 00H			; `string'
CONST	ENDS
;	COMDAT ??_C@_0JH@CKNELHAC@C?G?N?$LA?$KB?$LH?N?$LN?$LK?0?H?$KP?$LL?$PN?F?d?F?$KO?0?Q?$MA?0?R?$LG?0?$LJ?G?0?p?$KE?M@
CONST	SEGMENT
??_C@_0JH@CKNELHAC@C?G?N?$LA?$KB?$LH?N?$LN?$LK?0?H?$KP?$LL?$PN?F?d?F?$KO?0?Q?$MA?0?R?$LG?0?$LJ?G?0?p?$KE?M@ DB 'C'
	DB	0c7H, 0ceH, 0b0H, 0a1H, 0b7H, 0ceH, 0bdH, 0baH, ',', 0c8H, 0afH
	DB	0bbH, 0fdH, 0c6H, 0e4H, 0c6H, 0aeH, ',', 0d1H, 0c0H, ',', 0d2H
	DB	0b6H, ',', 0b9H, 0c7H, ',', 0f0H, 0a4H, 0cdH, 0c1H, ',2119,30,'
	DB	'5.00,25,47,26,52,19,3,0,0,80,20,0,0,0,0,0,0,1,2,,,,,,0,1,1,2,'
	DB	'103080,1,1,,0,500,,0,500,,0,500,,0,500,,0,500,,6', 00H ; `string'
CONST	ENDS
;	COMDAT ??_C@_0JF@JCEFDAGG@C?$LH?N?$LF?$KF?$LP?$MA?0?H?$KP?$LL?$PN?F?d?F?$KO?0?Q?$MA?0?R?$LG?0?$LJ?G?0?p?$KE?M?A?0@
CONST	SEGMENT
??_C@_0JF@JCEFDAGG@C?$LH?N?$LF?$KF?$LP?$MA?0?H?$KP?$LL?$PN?F?d?F?$KO?0?Q?$MA?0?R?$LG?0?$LJ?G?0?p?$KE?M?A?0@ DB 'C'
	DB	0b7H, 0ceH, 0b5H, 0a5H, 0bfH, 0c0H, ',', 0c8H, 0afH, 0bbH, 0fdH
	DB	0c6H, 0e4H, 0c6H, 0aeH, ',', 0d1H, 0c0H, ',', 0d2H, 0b6H, ',', 0b9H
	DB	0c7H, ',', 0f0H, 0a4H, 0cdH, 0c1H, ',2117,30,5.00,25,47,26,52,'
	DB	'19,3,0,0,70,30,0,0,0,0,0,0,1,2,,,,,,0,1,1,2,102135,1,1,,0,500'
	DB	',,0,500,,0,500,,0,500,,0,500,,6', 00H	; `string'
CONST	ENDS
;	COMDAT ??_C@_0JH@ODACJIOM@C?$LK?$KD?$LI?$KD?G?$KK?$LN?$LK?0?H?$KP?$LL?$PN?F?d?F?$KO?0?Q?$MA?0?R?$LG?0?$LJ?G?0?p?$KE?M@
CONST	SEGMENT
??_C@_0JH@ODACJIOM@C?$LK?$KD?$LI?$KD?G?$KK?$LN?$LK?0?H?$KP?$LL?$PN?F?d?F?$KO?0?Q?$MA?0?R?$LG?0?$LJ?G?0?p?$KE?M@ DB 'C'
	DB	0baH, 0a3H, 0b8H, 0a3H, 0c7H, 0aaH, 0bdH, 0baH, ',', 0c8H, 0afH
	DB	0bbH, 0fdH, 0c6H, 0e4H, 0c6H, 0aeH, ',', 0d1H, 0c0H, ',', 0d2H
	DB	0b6H, ',', 0b9H, 0c7H, ',', 0f0H, 0a4H, 0cdH, 0c1H, ',2115,30,'
	DB	'5.00,25,47,26,52,19,3,0,0,0,100,0,0,0,0,0,0,1,2,,,,,,0,1,1,2,'
	DB	'102008,1,1,,0,500,,0,500,,0,500,,0,500,,0,500,,6', 00H ; `string'
CONST	ENDS
;	COMDAT ??_C@_0JF@CEAMBMBP@C?$LD?k?$LI?$KD?$LA?o?0?H?$KP?$LL?$PN?F?d?F?$KO?0?Q?$MA?0?R?$LG?0?$LJ?G?0?p?$KE?M?A?0@
CONST	SEGMENT
??_C@_0JF@CEAMBMBP@C?$LD?k?$LI?$KD?$LA?o?0?H?$KP?$LL?$PN?F?d?F?$KO?0?Q?$MA?0?R?$LG?0?$LJ?G?0?p?$KE?M?A?0@ DB 'C'
	DB	0b3H, 0ebH, 0b8H, 0a3H, 0b0H, 0efH, ',', 0c8H, 0afH, 0bbH, 0fdH
	DB	0c6H, 0e4H, 0c6H, 0aeH, ',', 0d1H, 0c0H, ',', 0d2H, 0b6H, ',', 0b9H
	DB	0c7H, ',', 0f0H, 0a4H, 0cdH, 0c1H, ',2114,30,5.00,25,47,26,52,'
	DB	'19,3,0,0,40,60,0,0,0,0,0,0,1,2,,,,,,0,1,1,2,100907,1,1,,0,500'
	DB	',,0,500,,0,500,,0,500,,0,500,,6', 00H	; `string'
CONST	ENDS
;	COMDAT ??_C@_0JH@KEOPHAME@C?$LO?F?$LI?$KD?$LI?$LG?$LH?g?0?H?$KP?$LL?$PN?F?d?F?$KO?0?Q?$MA?0?R?$LG?0?$LJ?G?0?p?$KE?M@
CONST	SEGMENT
??_C@_0JH@KEOPHAME@C?$LO?F?$LI?$KD?$LI?$LG?$LH?g?0?H?$KP?$LL?$PN?F?d?F?$KO?0?Q?$MA?0?R?$LG?0?$LJ?G?0?p?$KE?M@ DB 'C'
	DB	0beH, 0c6H, 0b8H, 0a3H, 0b8H, 0b6H, 0b7H, 0e7H, ',', 0c8H, 0afH
	DB	0bbH, 0fdH, 0c6H, 0e4H, 0c6H, 0aeH, ',', 0d1H, 0c0H, ',', 0d2H
	DB	0b6H, ',', 0b9H, 0c7H, ',', 0f0H, 0a4H, 0cdH, 0c1H, ',2120,30,'
	DB	'5.00,34,47,44,33,19,3,50,50,0,0,0,0,0,0,0,0,1,2,,,,,,0,1,1,2,'
	DB	'105205,1,1,,0,500,,0,500,,0,500,,0,500,,0,500,,6', 00H ; `string'
CONST	ENDS
;	COMDAT ??_C@_0JF@BIJBMNLI@C?H?f?$LB?b?$LI?$LA?0?H?$KP?$LL?$PN?F?d?F?$KO?0?Q?$MA?0?R?$LG?0?$LJ?G?0?p?$KE?M?A?0@
CONST	SEGMENT
??_C@_0JF@BIJBMNLI@C?H?f?$LB?b?$LI?$LA?0?H?$KP?$LL?$PN?F?d?F?$KO?0?Q?$MA?0?R?$LG?0?$LJ?G?0?p?$KE?M?A?0@ DB 'C'
	DB	0c8H, 0e6H, 0b1H, 0e2H, 0b8H, 0b0H, ',', 0c8H, 0afH, 0bbH, 0fdH
	DB	0c6H, 0e4H, 0c6H, 0aeH, ',', 0d1H, 0c0H, ',', 0d2H, 0b6H, ',', 0b9H
	DB	0c7H, ',', 0f0H, 0a4H, 0cdH, 0c1H, ',2116,30,5.00,34,47,44,33,'
	DB	'19,3,0,10,90,0,0,0,0,0,0,0,1,2,,,,,,0,1,1,2,105349,1,1,,0,500'
	DB	',,0,500,,0,500,,0,500,,0,500,,6', 00H	; `string'
CONST	ENDS
;	COMDAT ??_C@_0JF@EBLCAMEB@C?$LP?$MA?$LI?$KD?$LA?o?0?H?$KP?$LL?$PN?F?d?F?$KO?0?Q?$MA?0?R?$LG?0?$LJ?G?0?p?$KE?M?A?0@
CONST	SEGMENT
??_C@_0JF@EBLCAMEB@C?$LP?$MA?$LI?$KD?$LA?o?0?H?$KP?$LL?$PN?F?d?F?$KO?0?Q?$MA?0?R?$LG?0?$LJ?G?0?p?$KE?M?A?0@ DB 'C'
	DB	0bfH, 0c0H, 0b8H, 0a3H, 0b0H, 0efH, ',', 0c8H, 0afH, 0bbH, 0fdH
	DB	0c6H, 0e4H, 0c6H, 0aeH, ',', 0d1H, 0c0H, ',', 0d2H, 0b6H, ',', 0b9H
	DB	0c7H, ',', 0f0H, 0a4H, 0cdH, 0c1H, ',2113,30,5.00,34,47,44,33,'
	DB	'19,3,0,80,20,0,0,0,0,0,0,0,1,2,,,,,,0,1,1,2,100372,1,1,,0,500'
	DB	',,0,500,,0,500,,0,500,,0,500,,6', 00H	; `string'
CONST	ENDS
;	COMDAT ??_C@_0JH@FHJBIPIA@C?$LP?$MA?$LA?$KB?$LH?N?$LN?$LK?0?H?$KP?$LL?$PN?F?d?F?$KO?0?Q?$MA?0?R?$LG?0?$LJ?G?0?p?$KE?M@
CONST	SEGMENT
??_C@_0JH@FHJBIPIA@C?$LP?$MA?$LA?$KB?$LH?N?$LN?$LK?0?H?$KP?$LL?$PN?F?d?F?$KO?0?Q?$MA?0?R?$LG?0?$LJ?G?0?p?$KE?M@ DB 'C'
	DB	0bfH, 0c0H, 0b0H, 0a1H, 0b7H, 0ceH, 0bdH, 0baH, ',', 0c8H, 0afH
	DB	0bbH, 0fdH, 0c6H, 0e4H, 0c6H, 0aeH, ',', 0d1H, 0c0H, ',', 0d2H
	DB	0b6H, ',', 0b9H, 0c7H, ',', 0f0H, 0a4H, 0cdH, 0c1H, ',2112,30,'
	DB	'5.00,34,47,44,33,19,3,60,40,0,0,0,0,0,0,0,0,1,2,,,,,,0,1,1,2,'
	DB	'100371,1,1,,0,500,,0,500,,0,500,,0,500,,0,500,,6', 00H ; `string'
CONST	ENDS
;	COMDAT ??_C@_0JF@BACCLALL@C?E?$LH?$LG?s?D?m?0?H?$KP?$LL?$PN?F?d?F?$KO?0?Q?$MA?0?R?$LG?0?$LJ?G?0?p?$KE?M?A?0@
CONST	SEGMENT
??_C@_0JF@BACCLALL@C?E?$LH?$LG?s?D?m?0?H?$KP?$LL?$PN?F?d?F?$KO?0?Q?$MA?0?R?$LG?0?$LJ?G?0?p?$KE?M?A?0@ DB 'C'
	DB	0c5H, 0b7H, 0b6H, 0f3H, 0c4H, 0edH, ',', 0c8H, 0afH, 0bbH, 0fdH
	DB	0c6H, 0e4H, 0c6H, 0aeH, ',', 0d1H, 0c0H, ',', 0d2H, 0b6H, ',', 0b9H
	DB	0c7H, ',', 0f0H, 0a4H, 0cdH, 0c1H, ',2108,30,5.00,40,28,46,50,'
	DB	'19,3,60,0,0,40,0,0,0,0,0,0,1,2,,,,,,0,1,1,5,102197,1,1,,0,500'
	DB	',,0,500,,0,500,,0,500,,0,500,,6', 00H	; `string'
CONST	ENDS
;	COMDAT ??_C@_0JD@PNDPFJJO@C?H?f?$LH?f?0?H?$KP?$LL?$PN?F?d?F?$KO?0?Q?$MA?0?R?$LG?0?$LJ?G?0?p?$KE?M?A?021@
CONST	SEGMENT
??_C@_0JD@PNDPFJJO@C?H?f?$LH?f?0?H?$KP?$LL?$PN?F?d?F?$KO?0?Q?$MA?0?R?$LG?0?$LJ?G?0?p?$KE?M?A?021@ DB 'C'
	DB	0c8H, 0e6H, 0b7H, 0e6H, ',', 0c8H, 0afH, 0bbH, 0fdH, 0c6H, 0e4H
	DB	0c6H, 0aeH, ',', 0d1H, 0c0H, ',', 0d2H, 0b6H, ',', 0b9H, 0c7H, ','
	DB	0f0H, 0a4H, 0cdH, 0c1H, ',2106,30,5.00,40,28,46,50,19,3,50,0,0'
	DB	',50,0,0,0,0,0,0,1,2,,,,,,0,1,1,5,102160,1,1,,0,500,,0,500,,0,'
	DB	'500,,0,500,,0,500,,6', 00H			; `string'
CONST	ENDS
;	COMDAT ??_C@_0JF@DPJBNGDA@C?$LP?U?E?d?$LD?$KC?0?H?$KP?$LL?$PN?F?d?F?$KO?0?Q?$MA?0?R?$LG?0?$LJ?G?0?p?$KE?M?A?0@
CONST	SEGMENT
??_C@_0JF@DPJBNGDA@C?$LP?U?E?d?$LD?$KC?0?H?$KP?$LL?$PN?F?d?F?$KO?0?Q?$MA?0?R?$LG?0?$LJ?G?0?p?$KE?M?A?0@ DB 'C'
	DB	0bfH, 0d5H, 0c5H, 0e4H, 0b3H, 0a2H, ',', 0c8H, 0afH, 0bbH, 0fdH
	DB	0c6H, 0e4H, 0c6H, 0aeH, ',', 0d1H, 0c0H, ',', 0d2H, 0b6H, ',', 0b9H
	DB	0c7H, ',', 0f0H, 0a4H, 0cdH, 0c1H, ',2103,30,5.00,40,28,46,50,'
	DB	'19,3,50,0,0,50,0,0,0,0,0,0,1,2,,,,,,0,1,1,5,102117,1,1,,0,500'
	DB	',,0,500,,0,500,,0,500,,0,500,,6', 00H	; `string'
CONST	ENDS
;	COMDAT ??_C@_0JH@ONOCFNEJ@C?$LN?N?$MA?L?E?$KM?$LH?P?0?H?$KP?$LL?$PN?F?d?F?$KO?0?Q?$MA?0?R?$LG?0?$LJ?G?0?p?$KE?M@
CONST	SEGMENT
??_C@_0JH@ONOCFNEJ@C?$LN?N?$MA?L?E?$KM?$LH?P?0?H?$KP?$LL?$PN?F?d?F?$KO?0?Q?$MA?0?R?$LG?0?$LJ?G?0?p?$KE?M@ DB 'C'
	DB	0bdH, 0ceH, 0c0H, 0ccH, 0c5H, 0acH, 0b7H, 0d0H, ',', 0c8H, 0afH
	DB	0bbH, 0fdH, 0c6H, 0e4H, 0c6H, 0aeH, ',', 0d1H, 0c0H, ',', 0d2H
	DB	0b6H, ',', 0b9H, 0c7H, ',', 0f0H, 0a4H, 0cdH, 0c1H, ',2101,30,'
	DB	'5.00,40,28,46,50,19,3,70,0,0,30,0,0,0,0,0,0,1,2,,,,,,0,1,1,5,'
	DB	'102015,1,1,,0,500,,0,500,,0,500,,0,500,,0,500,,6', 00H ; `string'
CONST	ENDS
;	COMDAT ??_C@_0JF@MNPKKPAE@C?G?$KK?$LP?l?$LI?$KO?0?H?$KP?$LL?$PN?F?d?F?$KO?0?Q?$MA?0?R?$LG?0?$LJ?G?0?p?$KE?M?A?0@
CONST	SEGMENT
??_C@_0JF@MNPKKPAE@C?G?$KK?$LP?l?$LI?$KO?0?H?$KP?$LL?$PN?F?d?F?$KO?0?Q?$MA?0?R?$LG?0?$LJ?G?0?p?$KE?M?A?0@ DB 'C'
	DB	0c7H, 0aaH, 0bfH, 0ecH, 0b8H, 0aeH, ',', 0c8H, 0afH, 0bbH, 0fdH
	DB	0c6H, 0e4H, 0c6H, 0aeH, ',', 0d1H, 0c0H, ',', 0d2H, 0b6H, ',', 0b9H
	DB	0c7H, ',', 0f0H, 0a4H, 0cdH, 0c1H, ',2100,30,5.00,40,28,46,50,'
	DB	'19,3,70,0,0,30,0,0,0,0,0,0,1,2,,,,,,0,1,1,5,100821,1,1,,0,500'
	DB	',,0,500,,0,500,,0,500,,0,500,,6', 00H	; `string'
CONST	ENDS
;	COMDAT ??_C@_0JH@INFMOJCI@C?F?D?$MA?L?$LD?k?$LF?$LH?0?H?$KP?$LL?$PN?F?d?F?$KO?0?Q?$MA?0?R?$LG?0?$LJ?G?0?p?$KE?M@
CONST	SEGMENT
??_C@_0JH@INFMOJCI@C?F?D?$MA?L?$LD?k?$LF?$LH?0?H?$KP?$LL?$PN?F?d?F?$KO?0?Q?$MA?0?R?$LG?0?$LJ?G?0?p?$KE?M@ DB 'C'
	DB	0c6H, 0c4H, 0c0H, 0ccH, 0b3H, 0ebH, 0b5H, 0b7H, ',', 0c8H, 0afH
	DB	0bbH, 0fdH, 0c6H, 0e4H, 0c6H, 0aeH, ',', 0d1H, 0c0H, ',', 0d2H
	DB	0b6H, ',', 0b9H, 0c7H, ',', 0f0H, 0a4H, 0cdH, 0c1H, ',2109,30,'
	DB	'5.00,25,47,26,52,19,3,0,0,100,0,0,0,0,0,0,0,1,2,,,,,,0,1,1,5,'
	DB	'102219,1,1,,0,500,,0,500,,0,500,,0,500,,0,500,,6', 00H ; `string'
CONST	ENDS
;	COMDAT ??_C@_0JD@KBNKIKFC@C?H?$KN?$LH?f?0?H?$KP?$LL?$PN?F?d?F?$KO?0?Q?$MA?0?R?$LG?0?$LJ?G?0?p?$KE?M?A?021@
CONST	SEGMENT
??_C@_0JD@KBNKIKFC@C?H?$KN?$LH?f?0?H?$KP?$LL?$PN?F?d?F?$KO?0?Q?$MA?0?R?$LG?0?$LJ?G?0?p?$KE?M?A?021@ DB 'C'
	DB	0c8H, 0adH, 0b7H, 0e6H, ',', 0c8H, 0afH, 0bbH, 0fdH, 0c6H, 0e4H
	DB	0c6H, 0aeH, ',', 0d1H, 0c0H, ',', 0d2H, 0b6H, ',', 0b9H, 0c7H, ','
	DB	0f0H, 0a4H, 0cdH, 0c1H, ',2105,30,5.00,25,47,26,52,19,3,0,0,80'
	DB	',20,0,0,0,0,0,0,1,2,,,,,,0,1,1,5,102141,1,1,,0,500,,0,500,,0,'
	DB	'500,,0,500,,0,500,,6', 00H			; `string'
CONST	ENDS
;	COMDAT ??_C@_0JF@FMCMFHMI@C?G?$KK?$LH?N?$LK?q?0?H?$KP?$LL?$PN?F?d?F?$KO?0?Q?$MA?0?R?$LG?0?$LJ?G?0?p?$KE?M?A?0@
CONST	SEGMENT
??_C@_0JF@FMCMFHMI@C?G?$KK?$LH?N?$LK?q?0?H?$KP?$LL?$PN?F?d?F?$KO?0?Q?$MA?0?R?$LG?0?$LJ?G?0?p?$KE?M?A?0@ DB 'C'
	DB	0c7H, 0aaH, 0b7H, 0ceH, 0baH, 0f1H, ',', 0c8H, 0afH, 0bbH, 0fdH
	DB	0c6H, 0e4H, 0c6H, 0aeH, ',', 0d1H, 0c0H, ',', 0d2H, 0b6H, ',', 0b9H
	DB	0c7H, ',', 0f0H, 0a4H, 0cdH, 0c1H, ',2111,30,5.00,34,47,44,33,'
	DB	'19,3,10,90,0,0,0,0,0,0,0,0,1,2,,,,,,0,1,1,5,105134,1,1,,0,500'
	DB	',,0,500,,0,500,,0,500,,0,500,,6', 00H	; `string'
CONST	ENDS
;	COMDAT ??_C@_0JH@DJCLDBNF@C?$LO?F?D?Z?$LH?N?$LK?q?0?H?$KP?$LL?$PN?F?d?F?$KO?0?Q?$MA?0?R?$LG?0?$LJ?G?0?p?$KE?M@
CONST	SEGMENT
??_C@_0JH@DJCLDBNF@C?$LO?F?D?Z?$LH?N?$LK?q?0?H?$KP?$LL?$PN?F?d?F?$KO?0?Q?$MA?0?R?$LG?0?$LJ?G?0?p?$KE?M@ DB 'C'
	DB	0beH, 0c6H, 0c4H, 0daH, 0b7H, 0ceH, 0baH, 0f1H, ',', 0c8H, 0afH
	DB	0bbH, 0fdH, 0c6H, 0e4H, 0c6H, 0aeH, ',', 0d1H, 0c0H, ',', 0d2H
	DB	0b6H, ',', 0b9H, 0c7H, ',', 0f0H, 0a4H, 0cdH, 0c1H, ',2110,30,'
	DB	'5.00,34,47,44,33,19,3,10,90,0,0,0,0,0,0,0,0,1,2,,,,,,0,1,1,5,'
	DB	'105133,1,1,,0,500,,0,500,,0,500,,0,500,,0,500,,6', 00H ; `string'
CONST	ENDS
;	COMDAT ??_C@_0JF@CNPLGKOL@C?E?$LH?$LP?l?$LI?$KO?0?H?$KP?$LL?$PN?F?d?F?$KO?0?Q?$MA?0?R?$LG?0?$LJ?G?0?p?$KE?M?A?0@
CONST	SEGMENT
??_C@_0JF@CNPLGKOL@C?E?$LH?$LP?l?$LI?$KO?0?H?$KP?$LL?$PN?F?d?F?$KO?0?Q?$MA?0?R?$LG?0?$LJ?G?0?p?$KE?M?A?0@ DB 'C'
	DB	0c5H, 0b7H, 0bfH, 0ecH, 0b8H, 0aeH, ',', 0c8H, 0afH, 0bbH, 0fdH
	DB	0c6H, 0e4H, 0c6H, 0aeH, ',', 0d1H, 0c0H, ',', 0d2H, 0b6H, ',', 0b9H
	DB	0c7H, ',', 0f0H, 0a4H, 0cdH, 0c1H, ',2107,30,5.00,34,47,44,33,'
	DB	'19,3,0,30,70,0,0,0,0,0,0,0,1,2,,,,,,0,1,1,5,102181,1,1,,0,500'
	DB	',,0,500,,0,500,,0,500,,0,500,,6', 00H	; `string'
CONST	ENDS
;	COMDAT ??_C@_0JF@OPDDOLA@C?$LJ?i?$LP?$KJ?$LP?l?0?H?$KP?$LL?$PN?F?d?F?$KO?0?Q?$MA?0?R?$LG?0?$LJ?G?0?p?$KE?M?A?0@
CONST	SEGMENT
??_C@_0JF@OPDDOLA@C?$LJ?i?$LP?$KJ?$LP?l?0?H?$KP?$LL?$PN?F?d?F?$KO?0?Q?$MA?0?R?$LG?0?$LJ?G?0?p?$KE?M?A?0@ DB 'C'
	DB	0b9H, 0e9H, 0bfH, 0a9H, 0bfH, 0ecH, ',', 0c8H, 0afH, 0bbH, 0fdH
	DB	0c6H, 0e4H, 0c6H, 0aeH, ',', 0d1H, 0c0H, ',', 0d2H, 0b6H, ',', 0b9H
	DB	0c7H, ',', 0f0H, 0a4H, 0cdH, 0c1H, ',2104,30,5.00,34,47,44,33,'
	DB	'19,3,0,70,30,0,0,0,0,0,0,0,1,2,,,,,,0,1,1,5,102120,1,1,,0,500'
	DB	',,0,500,,0,500,,0,500,,0,500,,6', 00H	; `string'
CONST	ENDS
;	COMDAT ??_C@_0JF@NHGNALFJ@C?F?D?$LO?F?$LG?u?0?H?$KP?$LL?$PN?F?d?F?$KO?0?Q?$MA?0?R?$LG?0?$LJ?G?0?p?$KE?M?A?0@
CONST	SEGMENT
??_C@_0JF@NHGNALFJ@C?F?D?$LO?F?$LG?u?0?H?$KP?$LL?$PN?F?d?F?$KO?0?Q?$MA?0?R?$LG?0?$LJ?G?0?p?$KE?M?A?0@ DB 'C'
	DB	0c6H, 0c4H, 0beH, 0c6H, 0b6H, 0f5H, ',', 0c8H, 0afH, 0bbH, 0fdH
	DB	0c6H, 0e4H, 0c6H, 0aeH, ',', 0d1H, 0c0H, ',', 0d2H, 0b6H, ',', 0b9H
	DB	0c7H, ',', 0f0H, 0a4H, 0cdH, 0c1H, ',2102,30,5.00,34,47,44,33,'
	DB	'19,3,0,0,80,20,0,0,0,0,0,0,1,2,,,,,,0,1,1,5,102051,1,1,,0,500'
	DB	',,0,500,,0,500,,0,500,,0,500,,6', 00H	; `string'
CONST	ENDS
;	COMDAT ??_C@_0JJ@DOAALKHH@C?$LO?n?$LN?$LK?$LF?e?$LH?$KB?$LA?o?0?H?$KP?$LL?$PN?F?d?F?$KO?0?Q?$MA?0?R?$LG?0?$LJ?G?0?p@
CONST	SEGMENT
??_C@_0JJ@DOAALKHH@C?$LO?n?$LN?$LK?$LF?e?$LH?$KB?$LA?o?0?H?$KP?$LL?$PN?F?d?F?$KO?0?Q?$MA?0?R?$LG?0?$LJ?G?0?p@ DB 'C'
	DB	0beH, 0eeH, 0bdH, 0baH, 0b5H, 0e5H, 0b7H, 0a1H, 0b0H, 0efH, ','
	DB	0c8H, 0afH, 0bbH, 0fdH, 0c6H, 0e4H, 0c6H, 0aeH, ',', 0d1H, 0c0H
	DB	',', 0d2H, 0b6H, ',', 0b9H, 0c7H, ',', 0f0H, 0a4H, 0cdH, 0c1H, ','
	DB	'2097,30,5.00,40,28,46,50,19,3,80,0,0,20,0,0,0,0,0,0,1,2,,,,,,'
	DB	'0,1,1,2,102208,1,1,,0,500,,0,500,,0,500,,0,500,,0,500,,6', 00H ; `string'
CONST	ENDS
;	COMDAT ??_C@_0JF@OGKOCMEN@C?$LN?$LE?$LJ?$NP?$LI?$KO?0?H?$KP?$LL?$PN?F?d?F?$KO?0?Q?$MA?0?R?$LG?0?$LJ?G?0?p?$KE?M?A?0@
CONST	SEGMENT
??_C@_0JF@OGKOCMEN@C?$LN?$LE?$LJ?$NP?$LI?$KO?0?H?$KP?$LL?$PN?F?d?F?$KO?0?Q?$MA?0?R?$LG?0?$LJ?G?0?p?$KE?M?A?0@ DB 'C'
	DB	0bdH, 0b4H, 0b9H, 0dfH, 0b8H, 0aeH, ',', 0c8H, 0afH, 0bbH, 0fdH
	DB	0c6H, 0e4H, 0c6H, 0aeH, ',', 0d1H, 0c0H, ',', 0d2H, 0b6H, ',', 0b9H
	DB	0c7H, ',', 0f0H, 0a4H, 0cdH, 0c1H, ',2096,30,5.00,25,47,26,52,'
	DB	'19,3,0,0,20,80,0,0,0,0,0,0,1,2,,,,,,0,1,1,2,102107,1,1,,0,500'
	DB	',,0,500,,0,500,,0,500,,0,500,,6', 00H	; `string'
CONST	ENDS
;	COMDAT ??_C@_0JF@NMLKMNBD@C?$LL?$PO?$LI?$KD?C?$LM?0?H?$KP?$LL?$PN?F?d?F?$KO?0?Q?$MA?0?R?$LG?0?$LJ?G?0?p?$KE?M?A?0@
CONST	SEGMENT
??_C@_0JF@NMLKMNBD@C?$LL?$PO?$LI?$KD?C?$LM?0?H?$KP?$LL?$PN?F?d?F?$KO?0?Q?$MA?0?R?$LG?0?$LJ?G?0?p?$KE?M?A?0@ DB 'C'
	DB	0bbH, 0feH, 0b8H, 0a3H, 0c3H, 0bcH, ',', 0c8H, 0afH, 0bbH, 0fdH
	DB	0c6H, 0e4H, 0c6H, 0aeH, ',', 0d1H, 0c0H, ',', 0d2H, 0b6H, ',', 0b9H
	DB	0c7H, ',', 0f0H, 0a4H, 0cdH, 0c1H, ',2095,30,5.00,25,47,26,52,'
	DB	'19,3,0,0,70,30,0,0,0,0,0,0,1,2,,,,,,0,1,1,2,102105,1,1,,0,500'
	DB	',,0,500,,0,500,,0,500,,0,500,,6', 00H	; `string'
CONST	ENDS
;	COMDAT ??_C@_0JF@NAGENHOB@C?$LA?q?$LH?N?$LN?$LK?0?H?$KP?$LL?$PN?F?d?F?$KO?0?Q?$MA?0?R?$LG?0?$LJ?G?0?p?$KE?M?A?0@
CONST	SEGMENT
??_C@_0JF@NAGENHOB@C?$LA?q?$LH?N?$LN?$LK?0?H?$KP?$LL?$PN?F?d?F?$KO?0?Q?$MA?0?R?$LG?0?$LJ?G?0?p?$KE?M?A?0@ DB 'C'
	DB	0b0H, 0f1H, 0b7H, 0ceH, 0bdH, 0baH, ',', 0c8H, 0afH, 0bbH, 0fdH
	DB	0c6H, 0e4H, 0c6H, 0aeH, ',', 0d1H, 0c0H, ',', 0d2H, 0b6H, ',', 0b9H
	DB	0c7H, ',', 0f0H, 0a4H, 0cdH, 0c1H, ',2092,30,5.00,25,47,26,52,'
	DB	'19,3,0,0,50,50,0,0,0,0,0,0,1,2,,,,,,0,1,1,2,100374,1,1,,0,500'
	DB	',,0,500,,0,500,,0,500,,0,500,,6', 00H	; `string'
CONST	ENDS
;	COMDAT ??_C@_0JF@JBKHOBFC@C?F?D?$LI?$KD?C?$LM?0?H?$KP?$LL?$PN?F?d?F?$KO?0?Q?$MA?0?R?$LG?0?$LJ?G?0?p?$KE?M?A?0@
CONST	SEGMENT
??_C@_0JF@JBKHOBFC@C?F?D?$LI?$KD?C?$LM?0?H?$KP?$LL?$PN?F?d?F?$KO?0?Q?$MA?0?R?$LG?0?$LJ?G?0?p?$KE?M?A?0@ DB 'C'
	DB	0c6H, 0c4H, 0b8H, 0a3H, 0c3H, 0bcH, ',', 0c8H, 0afH, 0bbH, 0fdH
	DB	0c6H, 0e4H, 0c6H, 0aeH, ',', 0d1H, 0c0H, ',', 0d2H, 0b6H, ',', 0b9H
	DB	0c7H, ',', 0f0H, 0a4H, 0cdH, 0c1H, ',2094,30,5.00,34,47,44,33,'
	DB	'19,3,0,80,20,0,0,0,0,0,0,0,1,2,,,,,,0,1,1,2,102103,1,1,,0,500'
	DB	',,0,500,,0,500,,0,500,,0,500,,6', 00H	; `string'
CONST	ENDS
;	COMDAT ??_C@_0JF@NKGNDLBI@C?A?v?$LJ?$NP?$LI?$KO?0?H?$KP?$LL?$PN?F?d?F?$KO?0?Q?$MA?0?R?$LG?0?$LJ?G?0?p?$KE?M?A?0@
CONST	SEGMENT
??_C@_0JF@NKGNDLBI@C?A?v?$LJ?$NP?$LI?$KO?0?H?$KP?$LL?$PN?F?d?F?$KO?0?Q?$MA?0?R?$LG?0?$LJ?G?0?p?$KE?M?A?0@ DB 'C'
	DB	0c1H, 0f6H, 0b9H, 0dfH, 0b8H, 0aeH, ',', 0c8H, 0afH, 0bbH, 0fdH
	DB	0c6H, 0e4H, 0c6H, 0aeH, ',', 0d1H, 0c0H, ',', 0d2H, 0b6H, ',', 0b9H
	DB	0c7H, ',', 0f0H, 0a4H, 0cdH, 0c1H, ',2093,30,5.00,34,47,44,33,'
	DB	'19,3,70,30,0,0,0,0,0,0,0,0,1,2,,,,,,0,1,1,2,102101,1,1,,0,500'
	DB	',,0,500,,0,500,,0,500,,0,500,,6', 00H	; `string'
CONST	ENDS
;	COMDAT ??_C@_0JJ@IENNICFI@C?$LF?$KF?$LK?t?$LJ?Y?$LH?N?$LN?$LK?0?H?$KP?$LL?$PN?F?d?F?$KO?0?Q?$MA?0?R?$LG?0?$LJ?G?0?p@
CONST	SEGMENT
??_C@_0JJ@IENNICFI@C?$LF?$KF?$LK?t?$LJ?Y?$LH?N?$LN?$LK?0?H?$KP?$LL?$PN?F?d?F?$KO?0?Q?$MA?0?R?$LG?0?$LJ?G?0?p@ DB 'C'
	DB	0b5H, 0a5H, 0baH, 0f4H, 0b9H, 0d9H, 0b7H, 0ceH, 0bdH, 0baH, ','
	DB	0c8H, 0afH, 0bbH, 0fdH, 0c6H, 0e4H, 0c6H, 0aeH, ',', 0d1H, 0c0H
	DB	',', 0d2H, 0b6H, ',', 0b9H, 0c7H, ',', 0f0H, 0a4H, 0cdH, 0c1H, ','
	DB	'2091,30,5.00,31,42,39,32,19,3,0,30,70,0,0,0,0,0,0,0,1,2,,,,,,'
	DB	'0,1,1,5,102125,1,1,,0,500,,0,500,,0,500,,0,500,,0,500,,6', 00H ; `string'
CONST	ENDS
;	COMDAT ??_C@_0JF@NOKOGBID@C?$LI?p?$LD?$KK?E?d?0?H?$KP?$LL?$PN?F?d?F?$KO?0?Q?$MA?0?R?$LG?0?$LJ?G?0?p?$KE?M?A?0@
CONST	SEGMENT
??_C@_0JF@NOKOGBID@C?$LI?p?$LD?$KK?E?d?0?H?$KP?$LL?$PN?F?d?F?$KO?0?Q?$MA?0?R?$LG?0?$LJ?G?0?p?$KE?M?A?0@ DB 'C'
	DB	0b8H, 0f0H, 0b3H, 0aaH, 0c5H, 0e4H, ',', 0c8H, 0afH, 0bbH, 0fdH
	DB	0c6H, 0e4H, 0c6H, 0aeH, ',', 0d1H, 0c0H, ',', 0d2H, 0b6H, ',', 0b9H
	DB	0c7H, ',', 0f0H, 0a4H, 0cdH, 0c1H, ',2090,30,5.00,31,42,39,32,'
	DB	'19,3,0,40,60,0,0,0,0,0,0,0,1,2,,,,,,0,1,1,5,101886,1,1,,0,500'
	DB	',,0,500,,0,500,,0,500,,0,500,,6', 00H	; `string'
CONST	ENDS
;	COMDAT ??_C@_0JD@OEACOBAH@C?$LJ?$KL?$MA?L?0?H?$KP?$LL?$PN?F?d?F?$KO?0?Q?$MA?0?R?$LG?0?$LJ?G?0?p?$KE?M?A?020@
CONST	SEGMENT
??_C@_0JD@OEACOBAH@C?$LJ?$KL?$MA?L?0?H?$KP?$LL?$PN?F?d?F?$KO?0?Q?$MA?0?R?$LG?0?$LJ?G?0?p?$KE?M?A?020@ DB 'C'
	DB	0b9H, 0abH, 0c0H, 0ccH, ',', 0c8H, 0afH, 0bbH, 0fdH, 0c6H, 0e4H
	DB	0c6H, 0aeH, ',', 0d1H, 0c0H, ',', 0d2H, 0b6H, ',', 0b9H, 0c7H, ','
	DB	0f0H, 0a4H, 0cdH, 0c1H, ',2082,30,5.00,39,27,45,49,19,3,0,100,'
	DB	'0,0,0,0,0,0,0,0,1,2,,,,,,0,1,1,5,100348,1,1,,0,500,,0,500,,0,'
	DB	'500,,0,500,,0,500,,6', 00H			; `string'
CONST	ENDS
;	COMDAT ??_C@_0JH@KIICBPAC@C?A?x?$LK?N?$LI?$KD?$LF?$LH?0?H?$KP?$LL?$PN?F?d?F?$KO?0?Q?$MA?0?R?$LG?0?$LJ?G?0?p?$KE?M@
CONST	SEGMENT
??_C@_0JH@KIICBPAC@C?A?x?$LK?N?$LI?$KD?$LF?$LH?0?H?$KP?$LL?$PN?F?d?F?$KO?0?Q?$MA?0?R?$LG?0?$LJ?G?0?p?$KE?M@ DB 'C'
	DB	0c1H, 0f8H, 0baH, 0ceH, 0b8H, 0a3H, 0b5H, 0b7H, ',', 0c8H, 0afH
	DB	0bbH, 0fdH, 0c6H, 0e4H, 0c6H, 0aeH, ',', 0d1H, 0c0H, ',', 0d2H
	DB	0b6H, ',', 0b9H, 0c7H, ',', 0f0H, 0a4H, 0cdH, 0c1H, ',2073,30,'
	DB	'5.00,39,27,45,49,19,3,0,0,20,80,0,0,0,0,0,0,1,2,,,,,,0,1,1,5,'
	DB	'102066,1,1,,0,500,,0,500,,0,500,,0,500,,0,500,,6', 00H ; `string'
CONST	ENDS
;	COMDAT ??_C@_0JD@CPKILOKP@C?$LK?$LM?D?I?0?H?$KP?$LL?$PN?F?d?F?$KO?0?Q?$MA?0?R?$LG?0?$LJ?G?0?p?$KE?M?A?020@
CONST	SEGMENT
??_C@_0JD@CPKILOKP@C?$LK?$LM?D?I?0?H?$KP?$LL?$PN?F?d?F?$KO?0?Q?$MA?0?R?$LG?0?$LJ?G?0?p?$KE?M?A?020@ DB 'C'
	DB	0baH, 0bcH, 0c4H, 0c9H, ',', 0c8H, 0afH, 0bbH, 0fdH, 0c6H, 0e4H
	DB	0c6H, 0aeH, ',', 0d1H, 0c0H, ',', 0d2H, 0b6H, ',', 0b9H, 0c7H, ','
	DB	0f0H, 0a4H, 0cdH, 0c1H, ',2081,30,5.00,24,46,25,51,19,3,0,0,10'
	DB	'0,0,0,0,0,0,0,0,1,2,,,,,,0,1,1,5,102091,1,1,,0,500,,0,500,,0,'
	DB	'500,,0,500,,0,500,,6', 00H			; `string'
CONST	ENDS
;	COMDAT ??_C@_0JH@IJILMKLC@C?$LF?$LF?$LG?s?$LK?q?$LN?$LK?0?H?$KP?$LL?$PN?F?d?F?$KO?0?Q?$MA?0?R?$LG?0?$LJ?G?0?p?$KE?M@
CONST	SEGMENT
??_C@_0JH@IJILMKLC@C?$LF?$LF?$LG?s?$LK?q?$LN?$LK?0?H?$KP?$LL?$PN?F?d?F?$KO?0?Q?$MA?0?R?$LG?0?$LJ?G?0?p?$KE?M@ DB 'C'
	DB	0b5H, 0b5H, 0b6H, 0f3H, 0baH, 0f1H, 0bdH, 0baH, ',', 0c8H, 0afH
	DB	0bbH, 0fdH, 0c6H, 0e4H, 0c6H, 0aeH, ',', 0d1H, 0c0H, ',', 0d2H
	DB	0b6H, ',', 0b9H, 0c7H, ',', 0f0H, 0a4H, 0cdH, 0c1H, ',2080,30,'
	DB	'5.00,24,46,25,51,19,3,0,0,0,100,0,0,0,0,0,0,1,2,,,,,,0,1,1,5,'
	DB	'100362,1,1,,0,500,,0,500,,0,500,,0,500,,0,500,,6', 00H ; `string'
CONST	ENDS
;	COMDAT ??_C@_0JH@BGKMGAMN@C?A?x?$LJ?$NN?$LK?$LI?$LH?N?0?H?$KP?$LL?$PN?F?d?F?$KO?0?Q?$MA?0?R?$LG?0?$LJ?G?0?p?$KE?M@
CONST	SEGMENT
??_C@_0JH@BGKMGAMN@C?A?x?$LJ?$NN?$LK?$LI?$LH?N?0?H?$KP?$LL?$PN?F?d?F?$KO?0?Q?$MA?0?R?$LG?0?$LJ?G?0?p?$KE?M@ DB 'C'
	DB	0c1H, 0f8H, 0b9H, 0ddH, 0baH, 0b8H, 0b7H, 0ceH, ',', 0c8H, 0afH
	DB	0bbH, 0fdH, 0c6H, 0e4H, 0c6H, 0aeH, ',', 0d1H, 0c0H, ',', 0d2H
	DB	0b6H, ',', 0b9H, 0c7H, ',', 0f0H, 0a4H, 0cdH, 0c1H, ',2079,30,'
	DB	'5.00,24,46,25,51,19,3,0,0,50,50,0,0,0,0,0,0,1,2,,,,,,0,1,1,5,'
	DB	'102064,1,1,,0,500,,0,500,,0,500,,0,500,,0,500,,6', 00H ; `string'
CONST	ENDS
;	COMDAT ??_C@_0JH@DJDFDNN@C?A?x?$LO?a?$LB?b?$LH?N?0?H?$KP?$LL?$PN?F?d?F?$KO?0?Q?$MA?0?R?$LG?0?$LJ?G?0?p?$KE?M@
CONST	SEGMENT
??_C@_0JH@DJDFDNN@C?A?x?$LO?a?$LB?b?$LH?N?0?H?$KP?$LL?$PN?F?d?F?$KO?0?Q?$MA?0?R?$LG?0?$LJ?G?0?p?$KE?M@ DB 'C'
	DB	0c1H, 0f8H, 0beH, 0e1H, 0b1H, 0e2H, 0b7H, 0ceH, ',', 0c8H, 0afH
	DB	0bbH, 0fdH, 0c6H, 0e4H, 0c6H, 0aeH, ',', 0d1H, 0c0H, ',', 0d2H
	DB	0b6H, ',', 0b9H, 0c7H, ',', 0f0H, 0a4H, 0cdH, 0c1H, ',2078,30,'
	DB	'5.00,24,46,25,51,19,3,0,30,70,0,0,0,0,0,0,0,1,2,,,,,,0,1,1,5,'
	DB	'102062,1,1,,0,500,,0,500,,0,500,,0,500,,0,500,,6', 00H ; `string'
CONST	ENDS
;	COMDAT ??_C@_0JF@IBGDCGIP@C?$LG?s?$LA?m?$LA?m?0?H?$KP?$LL?$PN?F?d?F?$KO?0?Q?$MA?0?R?$LG?0?$LJ?G?0?p?$KE?M?A?0@
CONST	SEGMENT
??_C@_0JF@IBGDCGIP@C?$LG?s?$LA?m?$LA?m?0?H?$KP?$LL?$PN?F?d?F?$KO?0?Q?$MA?0?R?$LG?0?$LJ?G?0?p?$KE?M?A?0@ DB 'C'
	DB	0b6H, 0f3H, 0b0H, 0edH, 0b0H, 0edH, ',', 0c8H, 0afH, 0bbH, 0fdH
	DB	0c6H, 0e4H, 0c6H, 0aeH, ',', 0d1H, 0c0H, ',', 0d2H, 0b6H, ',', 0b9H
	DB	0c7H, ',', 0f0H, 0a4H, 0cdH, 0c1H, ',2077,30,5.00,24,46,25,51,'
	DB	'19,3,0,0,100,0,0,0,0,0,0,0,1,2,,,,,,0,1,1,5,100279,1,1,,0,500'
	DB	',,0,500,,0,500,,0,500,,0,500,,6', 00H	; `string'
CONST	ENDS
;	COMDAT ??_C@_0JH@GCLFNHFL@C?$LF?$KF?$LK?m?$LH?N?$LN?$LK?0?H?$KP?$LL?$PN?F?d?F?$KO?0?Q?$MA?0?R?$LG?0?$LJ?G?0?p?$KE?M@
CONST	SEGMENT
??_C@_0JH@GCLFNHFL@C?$LF?$KF?$LK?m?$LH?N?$LN?$LK?0?H?$KP?$LL?$PN?F?d?F?$KO?0?Q?$MA?0?R?$LG?0?$LJ?G?0?p?$KE?M@ DB 'C'
	DB	0b5H, 0a5H, 0baH, 0edH, 0b7H, 0ceH, 0bdH, 0baH, ',', 0c8H, 0afH
	DB	0bbH, 0fdH, 0c6H, 0e4H, 0c6H, 0aeH, ',', 0d1H, 0c0H, ',', 0d2H
	DB	0b6H, ',', 0b9H, 0c7H, ',', 0f0H, 0a4H, 0cdH, 0c1H, ',2076,30,'
	DB	'5.00,33,45,42,31,19,3,0,10,90,0,0,0,0,0,0,0,1,2,,,,,,0,1,1,5,'
	DB	'105100,1,1,,0,500,,0,500,,0,500,,0,500,,0,500,,6', 00H ; `string'
CONST	ENDS
;	COMDAT ??_C@_0JH@BDEOHDKM@C?A?x?$LJ?$NN?$LB?b?$LD?k?0?H?$KP?$LL?$PN?F?d?F?$KO?0?Q?$MA?0?R?$LG?0?$LJ?G?0?p?$KE?M@
CONST	SEGMENT
??_C@_0JH@BDEOHDKM@C?A?x?$LJ?$NN?$LB?b?$LD?k?0?H?$KP?$LL?$PN?F?d?F?$KO?0?Q?$MA?0?R?$LG?0?$LJ?G?0?p?$KE?M@ DB 'C'
	DB	0c1H, 0f8H, 0b9H, 0ddH, 0b1H, 0e2H, 0b3H, 0ebH, ',', 0c8H, 0afH
	DB	0bbH, 0fdH, 0c6H, 0e4H, 0c6H, 0aeH, ',', 0d1H, 0c0H, ',', 0d2H
	DB	0b6H, ',', 0b9H, 0c7H, ',', 0f0H, 0a4H, 0cdH, 0c1H, ',2075,30,'
	DB	'5.00,33,45,42,31,19,3,0,0,100,0,0,0,0,0,0,0,1,2,,,,,,0,1,1,5,'
	DB	'102063,1,1,,0,500,,0,500,,0,500,,0,500,,0,500,,6', 00H ; `string'
CONST	ENDS
;	COMDAT ??_C@_0JH@IHIIGOOG@C?A?x?$LI?$KO?$LK?q?$LD?k?0?H?$KP?$LL?$PN?F?d?F?$KO?0?Q?$MA?0?R?$LG?0?$LJ?G?0?p?$KE?M@
CONST	SEGMENT
??_C@_0JH@IHIIGOOG@C?A?x?$LI?$KO?$LK?q?$LD?k?0?H?$KP?$LL?$PN?F?d?F?$KO?0?Q?$MA?0?R?$LG?0?$LJ?G?0?p?$KE?M@ DB 'C'
	DB	0c1H, 0f8H, 0b8H, 0aeH, 0baH, 0f1H, 0b3H, 0ebH, ',', 0c8H, 0afH
	DB	0bbH, 0fdH, 0c6H, 0e4H, 0c6H, 0aeH, ',', 0d1H, 0c0H, ',', 0d2H
	DB	0b6H, ',', 0b9H, 0c7H, ',', 0f0H, 0a4H, 0cdH, 0c1H, ',2074,30,'
	DB	'5.00,33,45,42,31,19,3,100,0,0,0,0,0,0,0,0,0,1,2,,,,,,0,1,1,5,'
	DB	'102065,1,1,,0,500,,0,500,,0,500,,0,500,,0,500,,6', 00H ; `string'
CONST	ENDS
;	COMDAT ??_C@_0JF@CGEFCAMC@C?$LA?m?$LI?$KD?$LF?$LH?0?H?$KP?$LL?$PN?F?d?F?$KO?0?Q?$MA?0?R?$LG?0?$LJ?G?0?p?$KE?M?A?0@
CONST	SEGMENT
??_C@_0JF@CGEFCAMC@C?$LA?m?$LI?$KD?$LF?$LH?0?H?$KP?$LL?$PN?F?d?F?$KO?0?Q?$MA?0?R?$LG?0?$LJ?G?0?p?$KE?M?A?0@ DB 'C'
	DB	0b0H, 0edH, 0b8H, 0a3H, 0b5H, 0b7H, ',', 0c8H, 0afH, 0bbH, 0fdH
	DB	0c6H, 0e4H, 0c6H, 0aeH, ',', 0d1H, 0c0H, ',', 0d2H, 0b6H, ',', 0b9H
	DB	0c7H, ',', 0f0H, 0a4H, 0cdH, 0c1H, ',2072,30,5.00,33,45,42,31,'
	DB	'19,3,100,0,0,0,0,0,0,0,0,0,1,2,,,,,,0,1,1,5,100307,1,1,,0,500'
	DB	',,0,500,,0,500,,0,500,,0,500,,6', 00H	; `string'
CONST	ENDS
;	COMDAT ??_C@_0JH@PLMPPEMP@C?E?d?$LG?s?F?$LM?$LN?$LK?0?H?$KP?$LL?$PN?F?d?F?$KO?0?Q?$MA?0?R?$LG?0?$LJ?G?0?p?$KE?M@
CONST	SEGMENT
??_C@_0JH@PLMPPEMP@C?E?d?$LG?s?F?$LM?$LN?$LK?0?H?$KP?$LL?$PN?F?d?F?$KO?0?Q?$MA?0?R?$LG?0?$LJ?G?0?p?$KE?M@ DB 'C'
	DB	0c5H, 0e4H, 0b6H, 0f3H, 0c6H, 0bcH, 0bdH, 0baH, ',', 0c8H, 0afH
	DB	0bbH, 0fdH, 0c6H, 0e4H, 0c6H, 0aeH, ',', 0d1H, 0c0H, ',', 0d2H
	DB	0b6H, ',', 0b9H, 0c7H, ',', 0f0H, 0a4H, 0cdH, 0c1H, ',2071,30,'
	DB	'5.00,39,27,45,49,19,3,90,0,0,10,0,0,0,0,0,0,1,2,,,,,,0,1,1,5,'
	DB	'100250,1,1,,0,500,,0,500,,0,500,,0,500,,0,500,,6', 00H ; `string'
CONST	ENDS
;	COMDAT ??_C@_0JF@CFLCCIDI@C?$LN?$LK?G?G?$LP?B?0?H?$KP?$LL?$PN?F?d?F?$KO?0?Q?$MA?0?R?$LG?0?$LJ?G?0?p?$KE?M?A?0@
CONST	SEGMENT
??_C@_0JF@CFLCCIDI@C?$LN?$LK?G?G?$LP?B?0?H?$KP?$LL?$PN?F?d?F?$KO?0?Q?$MA?0?R?$LG?0?$LJ?G?0?p?$KE?M?A?0@ DB 'C'
	DB	0bdH, 0baH, 0c7H, 0c7H, 0bfH, 0c2H, ',', 0c8H, 0afH, 0bbH, 0fdH
	DB	0c6H, 0e4H, 0c6H, 0aeH, ',', 0d1H, 0c0H, ',', 0d2H, 0b6H, ',', 0b9H
	DB	0c7H, ',', 0f0H, 0a4H, 0cdH, 0c1H, ',2070,30,5.00,39,27,45,49,'
	DB	'19,3,30,0,0,70,0,0,0,0,0,0,1,2,,,,,,0,1,1,5,102196,1,1,,0,500'
	DB	',,0,500,,0,500,,0,500,,0,500,,6', 00H	; `string'
CONST	ENDS
;	COMDAT ??_C@_0JF@KMJNHDBO@C?$LA?$KB?$LA?m?$MA?O?0?H?$KP?$LL?$PN?F?d?F?$KO?0?Q?$MA?0?R?$LG?0?$LJ?G?0?p?$KE?M?A?0@
CONST	SEGMENT
??_C@_0JF@KMJNHDBO@C?$LA?$KB?$LA?m?$MA?O?0?H?$KP?$LL?$PN?F?d?F?$KO?0?Q?$MA?0?R?$LG?0?$LJ?G?0?p?$KE?M?A?0@ DB 'C'
	DB	0b0H, 0a1H, 0b0H, 0edH, 0c0H, 0cfH, ',', 0c8H, 0afH, 0bbH, 0fdH
	DB	0c6H, 0e4H, 0c6H, 0aeH, ',', 0d1H, 0c0H, ',', 0d2H, 0b6H, ',', 0b9H
	DB	0c7H, ',', 0f0H, 0a4H, 0cdH, 0c1H, ',2069,30,5.00,39,27,45,49,'
	DB	'19,3,0,0,40,60,0,0,0,0,0,0,1,2,,,,,,0,1,1,5,102193,1,1,,0,500'
	DB	',,0,500,,0,500,,0,500,,0,500,,6', 00H	; `string'
CONST	ENDS
;	COMDAT ??_C@_0JD@BEPDFK@C?$LJ?Y?D?q?0?H?$KP?$LL?$PN?F?d?F?$KO?0?Q?$MA?0?R?$LG?0?$LJ?G?0?p?$KE?M?A?020@
CONST	SEGMENT
??_C@_0JD@BEPDFK@C?$LJ?Y?D?q?0?H?$KP?$LL?$PN?F?d?F?$KO?0?Q?$MA?0?R?$LG?0?$LJ?G?0?p?$KE?M?A?020@ DB 'C'
	DB	0b9H, 0d9H, 0c4H, 0f1H, ',', 0c8H, 0afH, 0bbH, 0fdH, 0c6H, 0e4H
	DB	0c6H, 0aeH, ',', 0d1H, 0c0H, ',', 0d2H, 0b6H, ',', 0b9H, 0c7H, ','
	DB	0f0H, 0a4H, 0cdH, 0c1H, ',2068,30,5.00,39,27,45,49,19,3,40,60,'
	DB	'0,0,0,0,0,0,0,0,1,2,,,,,,0,1,1,5,102147,1,1,,0,500,,0,500,,0,'
	DB	'500,,0,500,,0,500,,6', 00H			; `string'
CONST	ENDS
;	COMDAT ??_C@_0JF@PLFJLGMM@C?E?$LI?$MA?L?H?$KF?0?H?$KP?$LL?$PN?F?d?F?$KO?0?Q?$MA?0?R?$LG?0?$LJ?G?0?p?$KE?M?A?0@
CONST	SEGMENT
??_C@_0JF@PLFJLGMM@C?E?$LI?$MA?L?H?$KF?0?H?$KP?$LL?$PN?F?d?F?$KO?0?Q?$MA?0?R?$LG?0?$LJ?G?0?p?$KE?M?A?0@ DB 'C'
	DB	0c5H, 0b8H, 0c0H, 0ccH, 0c8H, 0a5H, ',', 0c8H, 0afH, 0bbH, 0fdH
	DB	0c6H, 0e4H, 0c6H, 0aeH, ',', 0d1H, 0c0H, ',', 0d2H, 0b6H, ',', 0b9H
	DB	0c7H, ',', 0f0H, 0a4H, 0cdH, 0c1H, ',2067,30,5.00,39,27,45,49,'
	DB	'19,3,0,0,50,50,0,0,0,0,0,0,1,2,,,,,,0,1,1,5,100430,1,1,,0,500'
	DB	',,0,500,,0,500,,0,500,,0,500,,6', 00H	; `string'
CONST	ENDS
;	COMDAT ??_C@_0JF@MDCEMJPK@C?$LG?s?$MA?L?H?$KF?0?H?$KP?$LL?$PN?F?d?F?$KO?0?Q?$MA?0?R?$LG?0?$LJ?G?0?p?$KE?M?A?0@
CONST	SEGMENT
??_C@_0JF@MDCEMJPK@C?$LG?s?$MA?L?H?$KF?0?H?$KP?$LL?$PN?F?d?F?$KO?0?Q?$MA?0?R?$LG?0?$LJ?G?0?p?$KE?M?A?0@ DB 'C'
	DB	0b6H, 0f3H, 0c0H, 0ccH, 0c8H, 0a5H, ',', 0c8H, 0afH, 0bbH, 0fdH
	DB	0c6H, 0e4H, 0c6H, 0aeH, ',', 0d1H, 0c0H, ',', 0d2H, 0b6H, ',', 0b9H
	DB	0c7H, ',', 0f0H, 0a4H, 0cdH, 0c1H, ',2066,30,5.00,39,27,45,49,'
	DB	'19,3,50,50,0,0,0,0,0,0,0,0,1,2,,,,,,0,1,1,5,100378,1,1,,0,500'
	DB	',,0,500,,0,500,,0,500,,0,500,,6', 00H	; `string'
CONST	ENDS
;	COMDAT ??_C@_0JF@MHIFDFBL@C?$LG?s?$LD?$KK?G?A?0?H?$KP?$LL?$PN?F?d?F?$KO?0?Q?$MA?0?R?$LG?0?$LJ?G?0?p?$KE?M?A?0@
CONST	SEGMENT
??_C@_0JF@MHIFDFBL@C?$LG?s?$LD?$KK?G?A?0?H?$KP?$LL?$PN?F?d?F?$KO?0?Q?$MA?0?R?$LG?0?$LJ?G?0?p?$KE?M?A?0@ DB 'C'
	DB	0b6H, 0f3H, 0b3H, 0aaH, 0c7H, 0c1H, ',', 0c8H, 0afH, 0bbH, 0fdH
	DB	0c6H, 0e4H, 0c6H, 0aeH, ',', 0d1H, 0c0H, ',', 0d2H, 0b6H, ',', 0b9H
	DB	0c7H, ',', 0f0H, 0a4H, 0cdH, 0c1H, ',2065,30,5.00,39,27,45,49,'
	DB	'19,3,0,0,80,20,0,0,0,0,0,0,1,2,,,,,,0,1,1,5,100377,1,1,,0,500'
	DB	',,0,500,,0,500,,0,500,,0,500,,6', 00H	; `string'
CONST	ENDS
;	COMDAT ??_C@_0JH@PAPIHGJG@C?$LI?p?$LD?$KK?$LN?C?G?A?0?H?$KP?$LL?$PN?F?d?F?$KO?0?Q?$MA?0?R?$LG?0?$LJ?G?0?p?$KE?M@
CONST	SEGMENT
??_C@_0JH@PAPIHGJG@C?$LI?p?$LD?$KK?$LN?C?G?A?0?H?$KP?$LL?$PN?F?d?F?$KO?0?Q?$MA?0?R?$LG?0?$LJ?G?0?p?$KE?M@ DB 'C'
	DB	0b8H, 0f0H, 0b3H, 0aaH, 0bdH, 0c3H, 0c7H, 0c1H, ',', 0c8H, 0afH
	DB	0bbH, 0fdH, 0c6H, 0e4H, 0c6H, 0aeH, ',', 0d1H, 0c0H, ',', 0d2H
	DB	0b6H, ',', 0b9H, 0c7H, ',', 0f0H, 0a4H, 0cdH, 0c1H, ',2064,30,'
	DB	'5.00,39,27,45,49,19,3,0,0,0,100,0,0,0,0,0,0,1,2,,,,,,0,1,1,5,'
	DB	'100376,1,1,,0,500,,0,500,,0,500,,0,500,,0,500,,6', 00H ; `string'
CONST	ENDS
;	COMDAT ??_C@_0JF@ECOFDIBO@C?G?A?$MA?L?E?d?0?H?$KP?$LL?$PN?F?d?F?$KO?0?Q?$MA?0?R?$LG?0?$LJ?G?0?p?$KE?M?A?0@
CONST	SEGMENT
??_C@_0JF@ECOFDIBO@C?G?A?$MA?L?E?d?0?H?$KP?$LL?$PN?F?d?F?$KO?0?Q?$MA?0?R?$LG?0?$LJ?G?0?p?$KE?M?A?0@ DB 'C'
	DB	0c7H, 0c1H, 0c0H, 0ccH, 0c5H, 0e4H, ',', 0c8H, 0afH, 0bbH, 0fdH
	DB	0c6H, 0e4H, 0c6H, 0aeH, ',', 0d1H, 0c0H, ',', 0d2H, 0b6H, ',', 0b9H
	DB	0c7H, ',', 0f0H, 0a4H, 0cdH, 0c1H, ',2063,30,5.00,39,27,45,49,'
	DB	'19,3,20,0,0,80,0,0,0,0,0,0,1,2,,,,,,0,1,1,5,100375,1,1,,0,500'
	DB	',,0,500,,0,500,,0,500,,0,500,,6', 00H	; `string'
CONST	ENDS
;	COMDAT ??_C@_0JF@PMDPEKEI@C?A?x?E?u?E?u?0?H?$KP?$LL?$PN?F?d?F?$KO?0?Q?$MA?0?R?$LG?0?$LJ?G?0?p?$KE?M?A?0@
CONST	SEGMENT
??_C@_0JF@PMDPEKEI@C?A?x?E?u?E?u?0?H?$KP?$LL?$PN?F?d?F?$KO?0?Q?$MA?0?R?$LG?0?$LJ?G?0?p?$KE?M?A?0@ DB 'C'
	DB	0c1H, 0f8H, 0c5H, 0f5H, 0c5H, 0f5H, ',', 0c8H, 0afH, 0bbH, 0fdH
	DB	0c6H, 0e4H, 0c6H, 0aeH, ',', 0d1H, 0c0H, ',', 0d2H, 0b6H, ',', 0b9H
	DB	0c7H, ',', 0f0H, 0a4H, 0cdH, 0c1H, ',2062,30,5.00,39,27,45,49,'
	DB	'19,3,30,70,0,0,0,0,0,0,0,0,1,2,,,,,,0,1,1,5,102037,1,1,,0,500'
	DB	',,0,500,,0,500,,0,500,,0,500,,6', 00H	; `string'
CONST	ENDS
;	COMDAT ??_C@_0JF@LOIMOCLM@C?A?x?G?$KK?G?$KK?0?H?$KP?$LL?$PN?F?d?F?$KO?0?Q?$MA?0?R?$LG?0?$LJ?G?0?p?$KE?M?A?0@
CONST	SEGMENT
??_C@_0JF@LOIMOCLM@C?A?x?G?$KK?G?$KK?0?H?$KP?$LL?$PN?F?d?F?$KO?0?Q?$MA?0?R?$LG?0?$LJ?G?0?p?$KE?M?A?0@ DB 'C'
	DB	0c1H, 0f8H, 0c7H, 0aaH, 0c7H, 0aaH, ',', 0c8H, 0afH, 0bbH, 0fdH
	DB	0c6H, 0e4H, 0c6H, 0aeH, ',', 0d1H, 0c0H, ',', 0d2H, 0b6H, ',', 0b9H
	DB	0c7H, ',', 0f0H, 0a4H, 0cdH, 0c1H, ',2061,30,5.00,39,27,45,49,'
	DB	'19,3,30,0,0,70,0,0,0,0,0,0,1,2,,,,,,0,1,1,5,102038,1,1,,0,500'
	DB	',,0,500,,0,500,,0,500,,0,500,,6', 00H	; `string'
CONST	ENDS
;	COMDAT ??_C@_0JF@GEBPCHNP@C?$LC?$LP?$LK?q?$LP?$MA?0?H?$KP?$LL?$PN?F?d?F?$KO?0?Q?$MA?0?R?$LG?0?$LJ?G?0?p?$KE?M?A?0@
CONST	SEGMENT
??_C@_0JF@GEBPCHNP@C?$LC?$LP?$LK?q?$LP?$MA?0?H?$KP?$LL?$PN?F?d?F?$KO?0?Q?$MA?0?R?$LG?0?$LJ?G?0?p?$KE?M?A?0@ DB 'C'
	DB	0b2H, 0bfH, 0baH, 0f1H, 0bfH, 0c0H, ',', 0c8H, 0afH, 0bbH, 0fdH
	DB	0c6H, 0e4H, 0c6H, 0aeH, ',', 0d1H, 0c0H, ',', 0d2H, 0b6H, ',', 0b9H
	DB	0c7H, ',', 0f0H, 0a4H, 0cdH, 0c1H, ',2051,30,5.00,39,27,45,49,'
	DB	'19,3,0,0,0,100,0,0,0,0,0,0,1,2,,,,,,0,1,1,5,100261,1,1,,0,500'
	DB	',,0,500,,0,500,,0,500,,0,500,,6', 00H	; `string'
CONST	ENDS
;	COMDAT ??_C@_0JH@KPONEFFH@C?$LO?F?$LI?$KD?$LI?$LG?$LF?t?0?H?$KP?$LL?$PN?F?d?F?$KO?0?Q?$MA?0?R?$LG?0?$LJ?G?0?p?$KE?M@
CONST	SEGMENT
??_C@_0JH@KPONEFFH@C?$LO?F?$LI?$KD?$LI?$LG?$LF?t?0?H?$KP?$LL?$PN?F?d?F?$KO?0?Q?$MA?0?R?$LG?0?$LJ?G?0?p?$KE?M@ DB 'C'
	DB	0beH, 0c6H, 0b8H, 0a3H, 0b8H, 0b6H, 0b5H, 0f4H, ',', 0c8H, 0afH
	DB	0bbH, 0fdH, 0c6H, 0e4H, 0c6H, 0aeH, ',', 0d1H, 0c0H, ',', 0d2H
	DB	0b6H, ',', 0b9H, 0c7H, ',', 0f0H, 0a4H, 0cdH, 0c1H, ',2044,30,'
	DB	'5.00,39,27,45,49,19,3,40,0,0,60,0,0,0,0,0,0,1,2,,,,,,0,1,1,5,'
	DB	'102190,1,1,,0,500,,0,500,,0,500,,0,500,,0,500,,6', 00H ; `string'
CONST	ENDS
;	COMDAT ??_C@_0JF@KMGPGCLE@C?E?$LI?$LH?N?$LA?o?0?H?$KP?$LL?$PN?F?d?F?$KO?0?Q?$MA?0?R?$LG?0?$LJ?G?0?p?$KE?M?A?0@
CONST	SEGMENT
??_C@_0JF@KMGPGCLE@C?E?$LI?$LH?N?$LA?o?0?H?$KP?$LL?$PN?F?d?F?$KO?0?Q?$MA?0?R?$LG?0?$LJ?G?0?p?$KE?M?A?0@ DB 'C'
	DB	0c5H, 0b8H, 0b7H, 0ceH, 0b0H, 0efH, ',', 0c8H, 0afH, 0bbH, 0fdH
	DB	0c6H, 0e4H, 0c6H, 0aeH, ',', 0d1H, 0c0H, ',', 0d2H, 0b6H, ',', 0b9H
	DB	0c7H, ',', 0f0H, 0a4H, 0cdH, 0c1H, ',2042,30,5.00,39,27,45,49,'
	DB	'19,3,70,0,0,30,0,0,0,0,0,0,1,2,,,,,,0,1,1,5,100277,1,1,,0,500'
	DB	',,0,500,,0,500,,0,500,,0,500,,6', 00H	; `string'
CONST	ENDS
;	COMDAT ??_C@_0JD@PFFNHGOG@C?$LC?$LP?$LK?q?0?H?$KP?$LL?$PN?F?d?F?$KO?0?Q?$MA?0?R?$LG?0?$LJ?G?0?p?$KE?M?A?020@
CONST	SEGMENT
??_C@_0JD@PFFNHGOG@C?$LC?$LP?$LK?q?0?H?$KP?$LL?$PN?F?d?F?$KO?0?Q?$MA?0?R?$LG?0?$LJ?G?0?p?$KE?M?A?020@ DB 'C'
	DB	0b2H, 0bfH, 0baH, 0f1H, ',', 0c8H, 0afH, 0bbH, 0fdH, 0c6H, 0e4H
	DB	0c6H, 0aeH, ',', 0d1H, 0c0H, ',', 0d2H, 0b6H, ',', 0b9H, 0c7H, ','
	DB	0f0H, 0a4H, 0cdH, 0c1H, ',2040,30,5.00,39,27,45,49,19,3,50,0,0'
	DB	',50,0,0,0,0,0,0,1,2,,,,,,0,1,1,5,100260,1,1,,0,500,,0,500,,0,'
	DB	'500,,0,500,,0,500,,6', 00H			; `string'
CONST	ENDS
;	COMDAT ??_C@_0JF@COCKBLIB@C?B?w?E?$KJ?$LH?P?0?H?$KP?$LL?$PN?F?d?F?$KO?0?Q?$MA?0?R?$LG?0?$LJ?G?0?p?$KE?M?A?0@
CONST	SEGMENT
??_C@_0JF@COCKBLIB@C?B?w?E?$KJ?$LH?P?0?H?$KP?$LL?$PN?F?d?F?$KO?0?Q?$MA?0?R?$LG?0?$LJ?G?0?p?$KE?M?A?0@ DB 'C'
	DB	0c2H, 0f7H, 0c5H, 0a9H, 0b7H, 0d0H, ',', 0c8H, 0afH, 0bbH, 0fdH
	DB	0c6H, 0e4H, 0c6H, 0aeH, ',', 0d1H, 0c0H, ',', 0d2H, 0b6H, ',', 0b9H
	DB	0c7H, ',', 0f0H, 0a4H, 0cdH, 0c1H, ',2060,30,5.00,24,46,25,51,'
	DB	'19,3,30,70,0,0,0,0,0,0,0,0,1,2,,,,,,0,1,1,5,105216,1,1,,0,500'
	DB	',,0,500,,0,500,,0,500,,0,500,,6', 00H	; `string'
CONST	ENDS
;	COMDAT ??_C@_0JH@GLJJFHMB@C?$LP?$KM?$LI?$KD?$LP?$KM?$LI?$KD?0?H?$KP?$LL?$PN?F?d?F?$KO?0?Q?$MA?0?R?$LG?0?$LJ?G?0?p?$KE?M@
CONST	SEGMENT
??_C@_0JH@GLJJFHMB@C?$LP?$KM?$LI?$KD?$LP?$KM?$LI?$KD?0?H?$KP?$LL?$PN?F?d?F?$KO?0?Q?$MA?0?R?$LG?0?$LJ?G?0?p?$KE?M@ DB 'C'
	DB	0bfH, 0acH, 0b8H, 0a3H, 0bfH, 0acH, 0b8H, 0a3H, ',', 0c8H, 0afH
	DB	0bbH, 0fdH, 0c6H, 0e4H, 0c6H, 0aeH, ',', 0d1H, 0c0H, ',', 0d2H
	DB	0b6H, ',', 0b9H, 0c7H, ',', 0f0H, 0a4H, 0cdH, 0c1H, ',2059,30,'
	DB	'5.00,24,46,25,51,19,3,80,0,0,20,0,0,0,0,0,0,1,2,,,,,,0,1,1,5,'
	DB	'103097,1,1,,0,500,,0,500,,0,500,,0,500,,0,500,,6', 00H ; `string'
CONST	ENDS
;	COMDAT ??_C@_0JJ@JLEHNALB@C?D?$KL?$LI?$KD?D?$KL?$LH?N?$LF?$LH?0?H?$KP?$LL?$PN?F?d?F?$KO?0?Q?$MA?0?R?$LG?0?$LJ?G?0?p@
CONST	SEGMENT
??_C@_0JJ@JLEHNALB@C?D?$KL?$LI?$KD?D?$KL?$LH?N?$LF?$LH?0?H?$KP?$LL?$PN?F?d?F?$KO?0?Q?$MA?0?R?$LG?0?$LJ?G?0?p@ DB 'C'
	DB	0c4H, 0abH, 0b8H, 0a3H, 0c4H, 0abH, 0b7H, 0ceH, 0b5H, 0b7H, ','
	DB	0c8H, 0afH, 0bbH, 0fdH, 0c6H, 0e4H, 0c6H, 0aeH, ',', 0d1H, 0c0H
	DB	',', 0d2H, 0b6H, ',', 0b9H, 0c7H, ',', 0f0H, 0a4H, 0cdH, 0c1H, ','
	DB	'2058,30,5.00,24,46,25,51,19,3,10,0,0,90,0,0,0,0,0,0,1,2,,,,,,'
	DB	'0,1,1,5,102192,1,1,,0,500,,0,500,,0,500,,0,500,,0,500,,6', 00H ; `string'
CONST	ENDS
;	COMDAT ??_C@_0JH@MDAMKENI@C?G?$KK?E?$LI?G?$KK?E?$LI?0?H?$KP?$LL?$PN?F?d?F?$KO?0?Q?$MA?0?R?$LG?0?$LJ?G?0?p?$KE?M@
CONST	SEGMENT
??_C@_0JH@MDAMKENI@C?G?$KK?E?$LI?G?$KK?E?$LI?0?H?$KP?$LL?$PN?F?d?F?$KO?0?Q?$MA?0?R?$LG?0?$LJ?G?0?p?$KE?M@ DB 'C'
	DB	0c7H, 0aaH, 0c5H, 0b8H, 0c7H, 0aaH, 0c5H, 0b8H, ',', 0c8H, 0afH
	DB	0bbH, 0fdH, 0c6H, 0e4H, 0c6H, 0aeH, ',', 0d1H, 0c0H, ',', 0d2H
	DB	0b6H, ',', 0b9H, 0c7H, ',', 0f0H, 0a4H, 0cdH, 0c1H, ',2057,30,'
	DB	'5.00,24,46,25,51,19,3,60,0,0,40,0,0,0,0,0,0,1,2,,,,,,0,1,1,5,'
	DB	'102191,1,1,,0,500,,0,500,,0,500,,0,500,,0,500,,6', 00H ; `string'
CONST	ENDS
;	COMDAT ??_C@_0JD@CDHCJHCA@C?$LI?$LF?D?Z?0?H?$KP?$LL?$PN?F?d?F?$KO?0?Q?$MA?0?R?$LG?0?$LJ?G?0?p?$KE?M?A?020@
CONST	SEGMENT
??_C@_0JD@CDHCJHCA@C?$LI?$LF?D?Z?0?H?$KP?$LL?$PN?F?d?F?$KO?0?Q?$MA?0?R?$LG?0?$LJ?G?0?p?$KE?M?A?020@ DB 'C'
	DB	0b8H, 0b5H, 0c4H, 0daH, ',', 0c8H, 0afH, 0bbH, 0fdH, 0c6H, 0e4H
	DB	0c6H, 0aeH, ',', 0d1H, 0c0H, ',', 0d2H, 0b6H, ',', 0b9H, 0c7H, ','
	DB	0f0H, 0a4H, 0cdH, 0c1H, ',2056,30,5.00,24,46,25,51,19,3,0,0,50'
	DB	',50,0,0,0,0,0,0,1,2,,,,,,0,1,1,5,102074,1,1,,0,500,,0,500,,0,'
	DB	'500,,0,500,,0,500,,6', 00H			; `string'
CONST	ENDS
;	COMDAT ??_C@_0JF@DDLEEPOC@C?$LP?$KM?$LB?b?$LD?k?0?H?$KP?$LL?$PN?F?d?F?$KO?0?Q?$MA?0?R?$LG?0?$LJ?G?0?p?$KE?M?A?0@
CONST	SEGMENT
??_C@_0JF@DDLEEPOC@C?$LP?$KM?$LB?b?$LD?k?0?H?$KP?$LL?$PN?F?d?F?$KO?0?Q?$MA?0?R?$LG?0?$LJ?G?0?p?$KE?M?A?0@ DB 'C'
	DB	0bfH, 0acH, 0b1H, 0e2H, 0b3H, 0ebH, ',', 0c8H, 0afH, 0bbH, 0fdH
	DB	0c6H, 0e4H, 0c6H, 0aeH, ',', 0d1H, 0c0H, ',', 0d2H, 0b6H, ',', 0b9H
	DB	0c7H, ',', 0f0H, 0a4H, 0cdH, 0c1H, ',2055,30,5.00,24,46,25,51,'
	DB	'19,3,0,100,0,0,0,0,0,0,0,0,1,2,,,,,,0,1,1,5,102067,1,1,,0,500'
	DB	',,0,500,,0,500,,0,500,,0,500,,6', 00H	; `string'
CONST	ENDS
;	COMDAT ??_C@_0JH@FEJNJEMA@C?$LN?$LK?$LD?k?$LJ?V?E?$KJ?0?H?$KP?$LL?$PN?F?d?F?$KO?0?Q?$MA?0?R?$LG?0?$LJ?G?0?p?$KE?M@
CONST	SEGMENT
??_C@_0JH@FEJNJEMA@C?$LN?$LK?$LD?k?$LJ?V?E?$KJ?0?H?$KP?$LL?$PN?F?d?F?$KO?0?Q?$MA?0?R?$LG?0?$LJ?G?0?p?$KE?M@ DB 'C'
	DB	0bdH, 0baH, 0b3H, 0ebH, 0b9H, 0d6H, 0c5H, 0a9H, ',', 0c8H, 0afH
	DB	0bbH, 0fdH, 0c6H, 0e4H, 0c6H, 0aeH, ',', 0d1H, 0c0H, ',', 0d2H
	DB	0b6H, ',', 0b9H, 0c7H, ',', 0f0H, 0a4H, 0cdH, 0c1H, ',2054,30,'
	DB	'5.00,24,46,25,51,19,3,30,0,0,70,0,0,0,0,0,0,1,2,,,,,,0,1,1,5,'
	DB	'102056,1,1,,0,500,,0,500,,0,500,,0,500,,0,500,,6', 00H ; `string'
CONST	ENDS
;	COMDAT ??_C@_0JH@OIKGAKAL@C?$LK?$LI?$LI?$KD?$LK?q?$LN?$LK?0?H?$KP?$LL?$PN?F?d?F?$KO?0?Q?$MA?0?R?$LG?0?$LJ?G?0?p?$KE?M@
CONST	SEGMENT
??_C@_0JH@OIKGAKAL@C?$LK?$LI?$LI?$KD?$LK?q?$LN?$LK?0?H?$KP?$LL?$PN?F?d?F?$KO?0?Q?$MA?0?R?$LG?0?$LJ?G?0?p?$KE?M@ DB 'C'
	DB	0baH, 0b8H, 0b8H, 0a3H, 0baH, 0f1H, 0bdH, 0baH, ',', 0c8H, 0afH
	DB	0bbH, 0fdH, 0c6H, 0e4H, 0c6H, 0aeH, ',', 0d1H, 0c0H, ',', 0d2H
	DB	0b6H, ',', 0b9H, 0c7H, ',', 0f0H, 0a4H, 0cdH, 0c1H, ',2053,30,'
	DB	'5.00,24,46,25,51,19,3,30,70,0,0,0,0,0,0,0,0,1,2,,,,,,0,1,1,5,'
	DB	'102040,1,1,,0,500,,0,500,,0,500,,0,500,,0,500,,6', 00H ; `string'
CONST	ENDS
;	COMDAT ??_C@_0JD@JFGLIIDB@C?$LC?$LP?$LJ?L?0?H?$KP?$LL?$PN?F?d?F?$KO?0?Q?$MA?0?R?$LG?0?$LJ?G?0?p?$KE?M?A?020@
CONST	SEGMENT
??_C@_0JD@JFGLIIDB@C?$LC?$LP?$LJ?L?0?H?$KP?$LL?$PN?F?d?F?$KO?0?Q?$MA?0?R?$LG?0?$LJ?G?0?p?$KE?M?A?020@ DB 'C'
	DB	0b2H, 0bfH, 0b9H, 0ccH, ',', 0c8H, 0afH, 0bbH, 0fdH, 0c6H, 0e4H
	DB	0c6H, 0aeH, ',', 0d1H, 0c0H, ',', 0d2H, 0b6H, ',', 0b9H, 0c7H, ','
	DB	0f0H, 0a4H, 0cdH, 0c1H, ',2050,30,5.00,24,46,25,51,19,3,0,0,60'
	DB	',40,0,0,0,0,0,0,1,2,,,,,,0,1,1,5,100259,1,1,,0,500,,0,500,,0,'
	DB	'500,,0,500,,0,500,,6', 00H			; `string'
CONST	ENDS
;	COMDAT ??_C@_0JH@HPEBFHBL@C?G?N?$LI?$KD?G?N?$LI?$KD?0?H?$KP?$LL?$PN?F?d?F?$KO?0?Q?$MA?0?R?$LG?0?$LJ?G?0?p?$KE?M@
CONST	SEGMENT
??_C@_0JH@HPEBFHBL@C?G?N?$LI?$KD?G?N?$LI?$KD?0?H?$KP?$LL?$PN?F?d?F?$KO?0?Q?$MA?0?R?$LG?0?$LJ?G?0?p?$KE?M@ DB 'C'
	DB	0c7H, 0ceH, 0b8H, 0a3H, 0c7H, 0ceH, 0b8H, 0a3H, ',', 0c8H, 0afH
	DB	0bbH, 0fdH, 0c6H, 0e4H, 0c6H, 0aeH, ',', 0d1H, 0c0H, ',', 0d2H
	DB	0b6H, ',', 0b9H, 0c7H, ',', 0f0H, 0a4H, 0cdH, 0c1H, ',2049,30,'
	DB	'5.00,24,46,25,51,19,3,0,0,80,20,0,0,0,0,0,0,1,2,,,,,,0,1,1,5,'
	DB	'103096,1,1,,0,500,,0,500,,0,500,,0,500,,0,500,,6', 00H ; `string'
CONST	ENDS
;	COMDAT ??_C@_0JF@BNKCCHFF@C?F?d?$LH?g?$LH?g?0?H?$KP?$LL?$PN?F?d?F?$KO?0?Q?$MA?0?R?$LG?0?$LJ?G?0?p?$KE?M?A?0@
CONST	SEGMENT
??_C@_0JF@BNKCCHFF@C?F?d?$LH?g?$LH?g?0?H?$KP?$LL?$PN?F?d?F?$KO?0?Q?$MA?0?R?$LG?0?$LJ?G?0?p?$KE?M?A?0@ DB 'C'
	DB	0c6H, 0e4H, 0b7H, 0e7H, 0b7H, 0e7H, ',', 0c8H, 0afH, 0bbH, 0fdH
	DB	0c6H, 0e4H, 0c6H, 0aeH, ',', 0d1H, 0c0H, ',', 0d2H, 0b6H, ',', 0b9H
	DB	0c7H, ',', 0f0H, 0a4H, 0cdH, 0c1H, ',2048,30,5.00,24,46,25,51,'
	DB	'19,3,0,0,50,50,0,0,0,0,0,0,1,2,,,,,,0,1,1,5,100874,1,1,,0,500'
	DB	',,0,500,,0,500,,0,500,,0,500,,6', 00H	; `string'
CONST	ENDS
;	COMDAT ??_C@_0JF@HBJDDECB@C?A?x?$LP?l?G?$KK?0?H?$KP?$LL?$PN?F?d?F?$KO?0?Q?$MA?0?R?$LG?0?$LJ?G?0?p?$KE?M?A?0@
CONST	SEGMENT
??_C@_0JF@HBJDDECB@C?A?x?$LP?l?G?$KK?0?H?$KP?$LL?$PN?F?d?F?$KO?0?Q?$MA?0?R?$LG?0?$LJ?G?0?p?$KE?M?A?0@ DB 'C'
	DB	0c1H, 0f8H, 0bfH, 0ecH, 0c7H, 0aaH, ',', 0c8H, 0afH, 0bbH, 0fdH
	DB	0c6H, 0e4H, 0c6H, 0aeH, ',', 0d1H, 0c0H, ',', 0d2H, 0b6H, ',', 0b9H
	DB	0c7H, ',', 0f0H, 0a4H, 0cdH, 0c1H, ',2047,30,5.00,24,46,25,51,'
	DB	'19,3,0,0,60,40,0,0,0,0,0,0,1,2,,,,,,0,1,1,5,102039,1,1,,0,500'
	DB	',,0,500,,0,500,,0,500,,0,500,,6', 00H	; `string'
CONST	ENDS
;	COMDAT ??_C@_0JF@LNGMOLEC@C?$LC?$LP?$LC?$LP?$LK?q?0?H?$KP?$LL?$PN?F?d?F?$KO?0?Q?$MA?0?R?$LG?0?$LJ?G?0?p?$KE?M?A?0@
CONST	SEGMENT
??_C@_0JF@LNGMOLEC@C?$LC?$LP?$LC?$LP?$LK?q?0?H?$KP?$LL?$PN?F?d?F?$KO?0?Q?$MA?0?R?$LG?0?$LJ?G?0?p?$KE?M?A?0@ DB 'C'
	DB	0b2H, 0bfH, 0b2H, 0bfH, 0baH, 0f1H, ',', 0c8H, 0afH, 0bbH, 0fdH
	DB	0c6H, 0e4H, 0c6H, 0aeH, ',', 0d1H, 0c0H, ',', 0d2H, 0b6H, ',', 0b9H
	DB	0c7H, ',', 0f0H, 0a4H, 0cdH, 0c1H, ',2041,30,5.00,24,46,25,51,'
	DB	'19,3,0,0,30,70,0,0,0,0,0,0,1,2,,,,,,0,1,1,5,100262,1,1,,0,500'
	DB	',,0,500,,0,500,,0,500,,0,500,,6', 00H	; `string'
CONST	ENDS
;	COMDAT ??_C@_0JF@ILAHMACN@C?$LJ?$KO?$LP?o?G?A?0?H?$KP?$LL?$PN?F?d?F?$KO?0?Q?$MA?0?R?$LG?0?$LJ?G?0?p?$KE?M?A?0@
CONST	SEGMENT
??_C@_0JF@ILAHMACN@C?$LJ?$KO?$LP?o?G?A?0?H?$KP?$LL?$PN?F?d?F?$KO?0?Q?$MA?0?R?$LG?0?$LJ?G?0?p?$KE?M?A?0@ DB 'C'
	DB	0b9H, 0aeH, 0bfH, 0efH, 0c7H, 0c1H, ',', 0c8H, 0afH, 0bbH, 0fdH
	DB	0c6H, 0e4H, 0c6H, 0aeH, ',', 0d1H, 0c0H, ',', 0d2H, 0b6H, ',', 0b9H
	DB	0c7H, ',', 0f0H, 0a4H, 0cdH, 0c1H, ',2052,30,5.00,33,46,43,32,'
	DB	'19,3,0,40,60,0,0,0,0,0,0,0,1,2,,,,,,0,1,1,5,101875,1,1,,0,500'
	DB	',,0,500,,0,500,,0,500,,0,500,,6', 00H	; `string'
CONST	ENDS
;	COMDAT ??_C@_0JH@EEKOGHLB@C?$LK?m?$LI?$KD?$LK?m?$LI?$KD?0?H?$KP?$LL?$PN?F?d?F?$KO?0?Q?$MA?0?R?$LG?0?$LJ?G?0?p?$KE?M@
CONST	SEGMENT
??_C@_0JH@EEKOGHLB@C?$LK?m?$LI?$KD?$LK?m?$LI?$KD?0?H?$KP?$LL?$PN?F?d?F?$KO?0?Q?$MA?0?R?$LG?0?$LJ?G?0?p?$KE?M@ DB 'C'
	DB	0baH, 0edH, 0b8H, 0a3H, 0baH, 0edH, 0b8H, 0a3H, ',', 0c8H, 0afH
	DB	0bbH, 0fdH, 0c6H, 0e4H, 0c6H, 0aeH, ',', 0d1H, 0c0H, ',', 0d2H
	DB	0b6H, ',', 0b9H, 0c7H, ',', 0f0H, 0a4H, 0cdH, 0c1H, ',2046,30,'
	DB	'5.00,33,46,43,32,19,3,0,100,0,0,0,0,0,0,0,0,1,2,,,,,,0,1,1,5,'
	DB	'103098,1,1,,0,500,,0,500,,0,500,,0,500,,0,500,,6', 00H ; `string'
CONST	ENDS
;	COMDAT ??_C@_0JH@NMOONDJI@C?A?$KG?$LI?$KD?A?$KG?$LI?$KD?0?H?$KP?$LL?$PN?F?d?F?$KO?0?Q?$MA?0?R?$LG?0?$LJ?G?0?p?$KE?M@
CONST	SEGMENT
??_C@_0JH@NMOONDJI@C?A?$KG?$LI?$KD?A?$KG?$LI?$KD?0?H?$KP?$LL?$PN?F?d?F?$KO?0?Q?$MA?0?R?$LG?0?$LJ?G?0?p?$KE?M@ DB 'C'
	DB	0c1H, 0a6H, 0b8H, 0a3H, 0c1H, 0a6H, 0b8H, 0a3H, ',', 0c8H, 0afH
	DB	0bbH, 0fdH, 0c6H, 0e4H, 0c6H, 0aeH, ',', 0d1H, 0c0H, ',', 0d2H
	DB	0b6H, ',', 0b9H, 0c7H, ',', 0f0H, 0a4H, 0cdH, 0c1H, ',2045,30,'
	DB	'5.00,33,46,43,32,19,3,0,0,80,20,0,0,0,0,0,0,1,2,,,,,,0,1,1,5,'
	DB	'103095,1,1,,0,500,,0,500,,0,500,,0,500,,0,500,,6', 00H ; `string'
CONST	ENDS
;	COMDAT ??_C@_0JH@PDLOJHCO@C?$LB?W?$LI?$LA?$LA?m?$LI?$KD?0?H?$KP?$LL?$PN?F?d?F?$KO?0?Q?$MA?0?R?$LG?0?$LJ?G?0?p?$KE?M@
CONST	SEGMENT
??_C@_0JH@PDLOJHCO@C?$LB?W?$LI?$LA?$LA?m?$LI?$KD?0?H?$KP?$LL?$PN?F?d?F?$KO?0?Q?$MA?0?R?$LG?0?$LJ?G?0?p?$KE?M@ DB 'C'
	DB	0b1H, 0d7H, 0b8H, 0b0H, 0b0H, 0edH, 0b8H, 0a3H, ',', 0c8H, 0afH
	DB	0bbH, 0fdH, 0c6H, 0e4H, 0c6H, 0aeH, ',', 0d1H, 0c0H, ',', 0d2H
	DB	0b6H, ',', 0b9H, 0c7H, ',', 0f0H, 0a4H, 0cdH, 0c1H, ',2043,30,'
	DB	'5.00,33,46,43,32,19,3,100,0,0,0,0,0,0,0,0,0,1,2,,,,,,0,1,1,5,'
	DB	'102041,1,1,,0,500,,0,500,,0,500,,0,500,,0,500,,6', 00H ; `string'
CONST	ENDS
;	COMDAT ??_C@_0JH@JMICEOII@C?A?x?$LK?$KD?$LI?$KD?$LA?$KB?0?H?$KP?$LL?$PN?F?d?F?$KO?0?Q?$MA?0?R?$LG?0?$LJ?G?0?p?$KE?M@
CONST	SEGMENT
??_C@_0JH@JMICEOII@C?A?x?$LK?$KD?$LI?$KD?$LA?$KB?0?H?$KP?$LL?$PN?F?d?F?$KO?0?Q?$MA?0?R?$LG?0?$LJ?G?0?p?$KE?M@ DB 'C'
	DB	0c1H, 0f8H, 0baH, 0a3H, 0b8H, 0a3H, 0b0H, 0a1H, ',', 0c8H, 0afH
	DB	0bbH, 0fdH, 0c6H, 0e4H, 0c6H, 0aeH, ',', 0d1H, 0c0H, ',', 0d2H
	DB	0b6H, ',', 0b9H, 0c7H, ',', 0f0H, 0a4H, 0cdH, 0c1H, ',2029,30,'
	DB	'5.00,24,45,24,50,19,3,60,40,0,0,0,0,0,0,0,0,1,2,,,,,,0,1,1,2,'
	DB	'110000,1,1,,0,500,,0,500,,0,500,,0,500,,0,500,,6', 00H ; `string'
CONST	ENDS
;	COMDAT ??_C@_0JJ@DGOPIJLC@C?A?x?$LD?k?$LI?$KD?$LD?k?$LI?$KD?0?H?$KP?$LL?$PN?F?d?F?$KO?0?Q?$MA?0?R?$LG?0?$LJ?G?0?p@
CONST	SEGMENT
??_C@_0JJ@DGOPIJLC@C?A?x?$LD?k?$LI?$KD?$LD?k?$LI?$KD?0?H?$KP?$LL?$PN?F?d?F?$KO?0?Q?$MA?0?R?$LG?0?$LJ?G?0?p@ DB 'C'
	DB	0c1H, 0f8H, 0b3H, 0ebH, 0b8H, 0a3H, 0b3H, 0ebH, 0b8H, 0a3H, ','
	DB	0c8H, 0afH, 0bbH, 0fdH, 0c6H, 0e4H, 0c6H, 0aeH, ',', 0d1H, 0c0H
	DB	',', 0d2H, 0b6H, ',', 0b9H, 0c7H, ',', 0f0H, 0a4H, 0cdH, 0c1H, ','
	DB	'2032,30,5.00,24,45,24,50,19,3,70,0,0,30,0,0,0,0,0,0,1,2,,,,,,'
	DB	'0,1,1,2,110003,1,1,,0,500,,0,500,,0,500,,0,500,,0,500,,6', 00H ; `string'
CONST	ENDS
;	COMDAT ??_C@_0JH@IDADMBJP@C?A?x?$LK?$KD?$LH?g?$LH?g?0?H?$KP?$LL?$PN?F?d?F?$KO?0?Q?$MA?0?R?$LG?0?$LJ?G?0?p?$KE?M@
CONST	SEGMENT
??_C@_0JH@IDADMBJP@C?A?x?$LK?$KD?$LH?g?$LH?g?0?H?$KP?$LL?$PN?F?d?F?$KO?0?Q?$MA?0?R?$LG?0?$LJ?G?0?p?$KE?M@ DB 'C'
	DB	0c1H, 0f8H, 0baH, 0a3H, 0b7H, 0e7H, 0b7H, 0e7H, ',', 0c8H, 0afH
	DB	0bbH, 0fdH, 0c6H, 0e4H, 0c6H, 0aeH, ',', 0d1H, 0c0H, ',', 0d2H
	DB	0b6H, ',', 0b9H, 0c7H, ',', 0f0H, 0a4H, 0cdH, 0c1H, ',2030,30,'
	DB	'5.00,24,45,24,50,19,3,0,0,30,70,0,0,0,0,0,0,1,2,,,,,,0,1,1,2,'
	DB	'110001,1,1,,0,500,,0,500,,0,500,,0,500,,0,500,,6', 00H ; `string'
CONST	ENDS
;	COMDAT ??_C@_0JJ@KLENGDCC@C?A?x?$LA?m?$LI?$KD?$LA?m?$LI?$KD?0?H?$KP?$LL?$PN?F?d?F?$KO?0?Q?$MA?0?R?$LG?0?$LJ?G?0?p@
CONST	SEGMENT
??_C@_0JJ@KLENGDCC@C?A?x?$LA?m?$LI?$KD?$LA?m?$LI?$KD?0?H?$KP?$LL?$PN?F?d?F?$KO?0?Q?$MA?0?R?$LG?0?$LJ?G?0?p@ DB 'C'
	DB	0c1H, 0f8H, 0b0H, 0edH, 0b8H, 0a3H, 0b0H, 0edH, 0b8H, 0a3H, ','
	DB	0c8H, 0afH, 0bbH, 0fdH, 0c6H, 0e4H, 0c6H, 0aeH, ',', 0d1H, 0c0H
	DB	',', 0d2H, 0b6H, ',', 0b9H, 0c7H, ',', 0f0H, 0a4H, 0cdH, 0c1H, ','
	DB	'2031,30,5.00,24,45,24,50,19,3,0,80,20,0,0,0,0,0,0,0,1,2,,,,,,'
	DB	'0,1,1,2,110002,1,1,,0,500,,0,500,,0,500,,0,500,,0,500,,6', 00H ; `string'
CONST	ENDS
;	COMDAT ??_C@_0JF@FNHHDHEJ@C?H?D?$LJ?Y?F?$LM?0?H?$KP?$LL?$PN?F?d?F?$KO?0?Q?$MA?0?R?$LG?0?$LJ?G?0?p?$KE?M?A?0@
CONST	SEGMENT
??_C@_0JF@FNHHDHEJ@C?H?D?$LJ?Y?F?$LM?0?H?$KP?$LL?$PN?F?d?F?$KO?0?Q?$MA?0?R?$LG?0?$LJ?G?0?p?$KE?M?A?0@ DB 'C'
	DB	0c8H, 0c4H, 0b9H, 0d9H, 0c6H, 0bcH, ',', 0c8H, 0afH, 0bbH, 0fdH
	DB	0c6H, 0e4H, 0c6H, 0aeH, ',', 0d1H, 0c0H, ',', 0d2H, 0b6H, ',', 0b9H
	DB	0c7H, ',', 0f0H, 0a4H, 0cdH, 0c1H, ',2036,30,5.00,33,45,42,31,'
	DB	'19,3,0,100,0,0,0,0,0,0,0,0,1,2,,,,,,0,1,1,2,101532,1,1,,0,500'
	DB	',,0,500,,0,500,,0,500,,0,500,,6', 00H	; `string'
CONST	ENDS
;	COMDAT ??_C@_0JH@MKOEPDLF@C?$LN?$LK?E?Y?E?d?$LN?$LK?0?H?$KP?$LL?$PN?F?d?F?$KO?0?Q?$MA?0?R?$LG?0?$LJ?G?0?p?$KE?M@
CONST	SEGMENT
??_C@_0JH@MKOEPDLF@C?$LN?$LK?E?Y?E?d?$LN?$LK?0?H?$KP?$LL?$PN?F?d?F?$KO?0?Q?$MA?0?R?$LG?0?$LJ?G?0?p?$KE?M@ DB 'C'
	DB	0bdH, 0baH, 0c5H, 0d9H, 0c5H, 0e4H, 0bdH, 0baH, ',', 0c8H, 0afH
	DB	0bbH, 0fdH, 0c6H, 0e4H, 0c6H, 0aeH, ',', 0d1H, 0c0H, ',', 0d2H
	DB	0b6H, ',', 0b9H, 0c7H, ',', 0f0H, 0a4H, 0cdH, 0c1H, ',2035,30,'
	DB	'5.00,33,45,42,31,19,3,50,50,0,0,0,0,0,0,0,0,1,2,,,,,,0,1,1,2,'
	DB	'100354,1,1,,0,500,,0,500,,0,500,,0,500,,0,500,,6', 00H ; `string'
CONST	ENDS
;	COMDAT ??_C@_0JJ@HGPCLPGO@C?G?A?$LG?s?E?$LA?E?d?$LN?$LK?0?H?$KP?$LL?$PN?F?d?F?$KO?0?Q?$MA?0?R?$LG?0?$LJ?G?0?p@
CONST	SEGMENT
??_C@_0JJ@HGPCLPGO@C?G?A?$LG?s?E?$LA?E?d?$LN?$LK?0?H?$KP?$LL?$PN?F?d?F?$KO?0?Q?$MA?0?R?$LG?0?$LJ?G?0?p@ DB 'C'
	DB	0c7H, 0c1H, 0b6H, 0f3H, 0c5H, 0b0H, 0c5H, 0e4H, 0bdH, 0baH, ','
	DB	0c8H, 0afH, 0bbH, 0fdH, 0c6H, 0e4H, 0c6H, 0aeH, ',', 0d1H, 0c0H
	DB	',', 0d2H, 0b6H, ',', 0b9H, 0c7H, ',', 0f0H, 0a4H, 0cdH, 0c1H, ','
	DB	'2034,30,5.00,33,45,42,31,19,3,0,20,80,0,0,0,0,0,0,0,1,2,,,,,,'
	DB	'0,1,1,2,100353,1,1,,0,500,,0,500,,0,500,,0,500,,0,500,,6', 00H ; `string'
CONST	ENDS
;	COMDAT ??_C@_0JF@BNPKDFBP@C?$LE?Y?$MA?L?$LD?k?0?H?$KP?$LL?$PN?F?d?F?$KO?0?Q?$MA?0?R?$LG?0?$LJ?G?0?p?$KE?M?A?0@
CONST	SEGMENT
??_C@_0JF@BNPKDFBP@C?$LE?Y?$MA?L?$LD?k?0?H?$KP?$LL?$PN?F?d?F?$KO?0?Q?$MA?0?R?$LG?0?$LJ?G?0?p?$KE?M?A?0@ DB 'C'
	DB	0b4H, 0d9H, 0c0H, 0ccH, 0b3H, 0ebH, ',', 0c8H, 0afH, 0bbH, 0fdH
	DB	0c6H, 0e4H, 0c6H, 0aeH, ',', 0d1H, 0c0H, ',', 0d2H, 0b6H, ',', 0b9H
	DB	0c7H, ',', 0f0H, 0a4H, 0cdH, 0c1H, ',2033,30,5.00,33,45,42,31,'
	DB	'19,3,90,10,0,0,0,0,0,0,0,0,1,2,,,,,,0,1,1,2,100351,1,1,,0,500'
	DB	',,0,500,,0,500,,0,500,,0,500,,6', 00H	; `string'
CONST	ENDS
;	COMDAT ??_C@_0JJ@HIFIOBFB@C?D?$KL?E?$LI?$LI?$KD?D?$KL?$LN?$LK?0?H?$KP?$LL?$PN?F?d?F?$KO?0?Q?$MA?0?R?$LG?0?$LJ?G?0?p@
CONST	SEGMENT
??_C@_0JJ@HIFIOBFB@C?D?$KL?E?$LI?$LI?$KD?D?$KL?$LN?$LK?0?H?$KP?$LL?$PN?F?d?F?$KO?0?Q?$MA?0?R?$LG?0?$LJ?G?0?p@ DB 'C'
	DB	0c4H, 0abH, 0c5H, 0b8H, 0b8H, 0a3H, 0c4H, 0abH, 0bdH, 0baH, ','
	DB	0c8H, 0afH, 0bbH, 0fdH, 0c6H, 0e4H, 0c6H, 0aeH, ',', 0d1H, 0c0H
	DB	',', 0d2H, 0b6H, ',', 0b9H, 0c7H, ',', 0f0H, 0a4H, 0cdH, 0c1H, ','
	DB	'2028,30,5.00,33,45,42,31,19,3,100,0,0,0,0,0,0,0,0,0,1,2,,,,,,'
	DB	'0,1,1,2,100283,1,1,,0,500,,0,500,,0,500,,0,500,,0,500,,6', 00H ; `string'
CONST	ENDS
;	COMDAT ??_C@_0JH@OLMEDAF@C?$LN?G?$LJ?v?$LP?l?$LI?$KO?0?H?$KP?$LL?$PN?F?d?F?$KO?0?Q?$MA?0?R?$LG?0?$LJ?G?0?p?$KE?M@
CONST	SEGMENT
??_C@_0JH@OLMEDAF@C?$LN?G?$LJ?v?$LP?l?$LI?$KO?0?H?$KP?$LL?$PN?F?d?F?$KO?0?Q?$MA?0?R?$LG?0?$LJ?G?0?p?$KE?M@ DB 'C'
	DB	0bdH, 0c7H, 0b9H, 0f6H, 0bfH, 0ecH, 0b8H, 0aeH, ',', 0c8H, 0afH
	DB	0bbH, 0fdH, 0c6H, 0e4H, 0c6H, 0aeH, ',', 0d1H, 0c0H, ',', 0d2H
	DB	0b6H, ',', 0b9H, 0c7H, ',', 0f0H, 0a4H, 0cdH, 0c1H, ',2025,30,'
	DB	'5.00,39,26,44,48,19,3,50,0,0,50,0,0,0,0,0,0,1,2,,,,,,0,1,1,5,'
	DB	'100388,1,1,,0,500,,0,500,,0,500,,0,500,,0,500,,6', 00H ; `string'
CONST	ENDS
;	COMDAT ??_C@_0JH@MGFGNFKD@C?F?w?$MA?L?$LK?q?$LN?$LK?0?H?$KP?$LL?$PN?F?d?F?$KO?0?Q?$MA?0?R?$LG?0?$LJ?G?0?p?$KE?M@
CONST	SEGMENT
??_C@_0JH@MGFGNFKD@C?F?w?$MA?L?$LK?q?$LN?$LK?0?H?$KP?$LL?$PN?F?d?F?$KO?0?Q?$MA?0?R?$LG?0?$LJ?G?0?p?$KE?M@ DB 'C'
	DB	0c6H, 0f7H, 0c0H, 0ccH, 0baH, 0f1H, 0bdH, 0baH, ',', 0c8H, 0afH
	DB	0bbH, 0fdH, 0c6H, 0e4H, 0c6H, 0aeH, ',', 0d1H, 0c0H, ',', 0d2H
	DB	0b6H, ',', 0b9H, 0c7H, ',', 0f0H, 0a4H, 0cdH, 0c1H, ',2024,30,'
	DB	'5.00,39,26,44,48,19,3,50,0,0,50,0,0,0,0,0,0,1,2,,,,,,0,1,1,5,'
	DB	'100361,1,1,,0,500,,0,500,,0,500,,0,500,,0,500,,6', 00H ; `string'
CONST	ENDS
;	COMDAT ??_C@_0JJ@LNPPOCFN@C?$LA?q?$LF?e?D?$KL?$LK?q?F?$KO?0?H?$KP?$LL?$PN?F?d?F?$KO?0?Q?$MA?0?R?$LG?0?$LJ?G?0?p@
CONST	SEGMENT
??_C@_0JJ@LNPPOCFN@C?$LA?q?$LF?e?D?$KL?$LK?q?F?$KO?0?H?$KP?$LL?$PN?F?d?F?$KO?0?Q?$MA?0?R?$LG?0?$LJ?G?0?p@ DB 'C'
	DB	0b0H, 0f1H, 0b5H, 0e5H, 0c4H, 0abH, 0baH, 0f1H, 0c6H, 0aeH, ','
	DB	0c8H, 0afH, 0bbH, 0fdH, 0c6H, 0e4H, 0c6H, 0aeH, ',', 0d1H, 0c0H
	DB	',', 0d2H, 0b6H, ',', 0b9H, 0c7H, ',', 0f0H, 0a4H, 0cdH, 0c1H, ','
	DB	'2011,30,5.00,39,26,44,48,19,3,100,0,0,0,0,0,0,0,0,0,1,2,,,,,,'
	DB	'0,1,1,5,100298,1,1,,0,500,,0,500,,0,500,,0,500,,0,500,,6', 00H ; `string'
CONST	ENDS
;	COMDAT ??_C@_0JH@PAJKGPIE@C?$LA?q?$LF?e?$LK?N?$LK?q?0?H?$KP?$LL?$PN?F?d?F?$KO?0?Q?$MA?0?R?$LG?0?$LJ?G?0?p?$KE?M@
CONST	SEGMENT
??_C@_0JH@PAJKGPIE@C?$LA?q?$LF?e?$LK?N?$LK?q?0?H?$KP?$LL?$PN?F?d?F?$KO?0?Q?$MA?0?R?$LG?0?$LJ?G?0?p?$KE?M@ DB 'C'
	DB	0b0H, 0f1H, 0b5H, 0e5H, 0baH, 0ceH, 0baH, 0f1H, ',', 0c8H, 0afH
	DB	0bbH, 0fdH, 0c6H, 0e4H, 0c6H, 0aeH, ',', 0d1H, 0c0H, ',', 0d2H
	DB	0b6H, ',', 0b9H, 0c7H, ',', 0f0H, 0a4H, 0cdH, 0c1H, ',2003,30,'
	DB	'5.00,39,26,44,48,19,3,0,0,30,70,0,0,0,0,0,0,1,2,,,,,,0,1,1,5,'
	DB	'100255,1,1,,0,500,,0,500,,0,500,,0,500,,0,500,,6', 00H ; `string'
CONST	ENDS
;	COMDAT ??_C@_0JF@DLMCBOAE@C?$LH?N?$LB?b?$LO?H?0?H?$KP?$LL?$PN?F?d?F?$KO?0?Q?$MA?0?R?$LG?0?$LJ?G?0?p?$KE?M?A?0@
CONST	SEGMENT
??_C@_0JF@DLMCBOAE@C?$LH?N?$LB?b?$LO?H?0?H?$KP?$LL?$PN?F?d?F?$KO?0?Q?$MA?0?R?$LG?0?$LJ?G?0?p?$KE?M?A?0@ DB 'C'
	DB	0b7H, 0ceH, 0b1H, 0e2H, 0beH, 0c8H, ',', 0c8H, 0afH, 0bbH, 0fdH
	DB	0c6H, 0e4H, 0c6H, 0aeH, ',', 0d1H, 0c0H, ',', 0d2H, 0b6H, ',', 0b9H
	DB	0c7H, ',', 0f0H, 0a4H, 0cdH, 0c1H, ',2008,30,5.00,39,26,44,48,'
	DB	'19,3,80,0,0,20,0,0,0,0,0,0,1,2,,,,,,0,1,1,5,100286,1,1,,0,500'
	DB	',,0,500,,0,500,,0,500,,0,500,,6', 00H	; `string'
CONST	ENDS
;	COMDAT ??_C@_0JH@IKJNGHDB@C?$LA?$KB?$LA?$KB?$LH?N?$LN?$LK?0?H?$KP?$LL?$PN?F?d?F?$KO?0?Q?$MA?0?R?$LG?0?$LJ?G?0?p?$KE?M@
CONST	SEGMENT
??_C@_0JH@IKJNGHDB@C?$LA?$KB?$LA?$KB?$LH?N?$LN?$LK?0?H?$KP?$LL?$PN?F?d?F?$KO?0?Q?$MA?0?R?$LG?0?$LJ?G?0?p?$KE?M@ DB 'C'
	DB	0b0H, 0a1H, 0b0H, 0a1H, 0b7H, 0ceH, 0bdH, 0baH, ',', 0c8H, 0afH
	DB	0bbH, 0fdH, 0c6H, 0e4H, 0c6H, 0aeH, ',', 0d1H, 0c0H, ',', 0d2H
	DB	0b6H, ',', 0b9H, 0c7H, ',', 0f0H, 0a4H, 0cdH, 0c1H, ',2020,30,'
	DB	'5.00,24,45,24,50,19,3,0,20,80,0,0,0,0,0,0,0,1,2,,,,,,0,1,1,5,'
	DB	'100346,1,1,,0,500,,0,500,,0,500,,0,500,,0,500,,6', 00H ; `string'
CONST	ENDS
;	COMDAT ??_C@_0JH@CMBIKAFB@C?$LB?b?$LA?$KB?$LH?N?$LN?$LK?0?H?$KP?$LL?$PN?F?d?F?$KO?0?Q?$MA?0?R?$LG?0?$LJ?G?0?p?$KE?M@
CONST	SEGMENT
??_C@_0JH@CMBIKAFB@C?$LB?b?$LA?$KB?$LH?N?$LN?$LK?0?H?$KP?$LL?$PN?F?d?F?$KO?0?Q?$MA?0?R?$LG?0?$LJ?G?0?p?$KE?M@ DB 'C'
	DB	0b1H, 0e2H, 0b0H, 0a1H, 0b7H, 0ceH, 0bdH, 0baH, ',', 0c8H, 0afH
	DB	0bbH, 0fdH, 0c6H, 0e4H, 0c6H, 0aeH, ',', 0d1H, 0c0H, ',', 0d2H
	DB	0b6H, ',', 0b9H, 0c7H, ',', 0f0H, 0a4H, 0cdH, 0c1H, ',2019,30,'
	DB	'5.00,24,45,24,50,19,3,30,0,0,70,0,0,0,0,0,0,1,2,,,,,,0,1,1,5,'
	DB	'100343,1,1,,0,500,,0,500,,0,500,,0,500,,0,500,,6', 00H ; `string'
CONST	ENDS
;	COMDAT ??_C@_0JF@NGMCPFPL@C?$LA?m?$LI?$KD?$LA?m?0?H?$KP?$LL?$PN?F?d?F?$KO?0?Q?$MA?0?R?$LG?0?$LJ?G?0?p?$KE?M?A?0@
CONST	SEGMENT
??_C@_0JF@NGMCPFPL@C?$LA?m?$LI?$KD?$LA?m?0?H?$KP?$LL?$PN?F?d?F?$KO?0?Q?$MA?0?R?$LG?0?$LJ?G?0?p?$KE?M?A?0@ DB 'C'
	DB	0b0H, 0edH, 0b8H, 0a3H, 0b0H, 0edH, ',', 0c8H, 0afH, 0bbH, 0fdH
	DB	0c6H, 0e4H, 0c6H, 0aeH, ',', 0d1H, 0c0H, ',', 0d2H, 0b6H, ',', 0b9H
	DB	0c7H, ',', 0f0H, 0a4H, 0cdH, 0c1H, ',2014,30,5.00,24,45,24,50,'
	DB	'19,3,0,0,90,10,0,0,0,0,0,0,1,2,,,,,,0,1,1,5,100310,1,1,,0,500'
	DB	',,0,500,,0,500,,0,500,,0,500,,6', 00H	; `string'
CONST	ENDS
;	COMDAT ??_C@_0JF@PKIODGMF@C?E?u?$LI?$KD?$LF?$LH?0?H?$KP?$LL?$PN?F?d?F?$KO?0?Q?$MA?0?R?$LG?0?$LJ?G?0?p?$KE?M?A?0@
CONST	SEGMENT
??_C@_0JF@PKIODGMF@C?E?u?$LI?$KD?$LF?$LH?0?H?$KP?$LL?$PN?F?d?F?$KO?0?Q?$MA?0?R?$LG?0?$LJ?G?0?p?$KE?M?A?0@ DB 'C'
	DB	0c5H, 0f5H, 0b8H, 0a3H, 0b5H, 0b7H, ',', 0c8H, 0afH, 0bbH, 0fdH
	DB	0c6H, 0e4H, 0c6H, 0aeH, ',', 0d1H, 0c0H, ',', 0d2H, 0b6H, ',', 0b9H
	DB	0c7H, ',', 0f0H, 0a4H, 0cdH, 0c1H, ',2013,30,5.00,24,45,24,50,'
	DB	'19,3,0,30,70,0,0,0,0,0,0,0,1,2,,,,,,0,1,1,5,100309,1,1,,0,500'
	DB	',,0,500,,0,500,,0,500,,0,500,,6', 00H	; `string'
CONST	ENDS
;	COMDAT ??_C@_0JD@FDBBFJPM@C?E?$KF?$MA?L?0?H?$KP?$LL?$PN?F?d?F?$KO?0?Q?$MA?0?R?$LG?0?$LJ?G?0?p?$KE?M?A?020@
CONST	SEGMENT
??_C@_0JD@FDBBFJPM@C?E?$KF?$MA?L?0?H?$KP?$LL?$PN?F?d?F?$KO?0?Q?$MA?0?R?$LG?0?$LJ?G?0?p?$KE?M?A?020@ DB 'C'
	DB	0c5H, 0a5H, 0c0H, 0ccH, ',', 0c8H, 0afH, 0bbH, 0fdH, 0c6H, 0e4H
	DB	0c6H, 0aeH, ',', 0d1H, 0c0H, ',', 0d2H, 0b6H, ',', 0b9H, 0c7H, ','
	DB	0f0H, 0a4H, 0cdH, 0c1H, ',2010,30,5.00,24,45,24,50,19,3,0,0,50'
	DB	',50,0,0,0,0,0,0,1,2,,,,,,0,1,1,5,100297,1,1,,0,500,,0,500,,0,'
	DB	'500,,0,500,,0,500,,6', 00H			; `string'
CONST	ENDS
;	COMDAT ??_C@_0JF@JEKBLCBN@C?$LK?R?$LB?W?$LI?$KO?0?H?$KP?$LL?$PN?F?d?F?$KO?0?Q?$MA?0?R?$LG?0?$LJ?G?0?p?$KE?M?A?0@
CONST	SEGMENT
??_C@_0JF@JEKBLCBN@C?$LK?R?$LB?W?$LI?$KO?0?H?$KP?$LL?$PN?F?d?F?$KO?0?Q?$MA?0?R?$LG?0?$LJ?G?0?p?$KE?M?A?0@ DB 'C'
	DB	0baH, 0d2H, 0b1H, 0d7H, 0b8H, 0aeH, ',', 0c8H, 0afH, 0bbH, 0fdH
	DB	0c6H, 0e4H, 0c6H, 0aeH, ',', 0d1H, 0c0H, ',', 0d2H, 0b6H, ',', 0b9H
	DB	0c7H, ',', 0f0H, 0a4H, 0cdH, 0c1H, ',2001,30,5.00,24,45,24,50,'
	DB	'19,3,0,0,70,30,0,0,0,0,0,0,1,2,,,,,,0,1,1,5,100253,1,1,,0,500'
	DB	',,0,500,,0,500,,0,500,,0,500,,6', 00H	; `string'
CONST	ENDS
;	COMDAT ??_C@_0JF@KPLIMGFD@C?D?$KL?$LK?q?F?$KO?0?H?$KP?$LL?$PN?F?d?F?$KO?0?Q?$MA?0?R?$LG?0?$LJ?G?0?p?$KE?M?A?0@
CONST	SEGMENT
??_C@_0JF@KPLIMGFD@C?D?$KL?$LK?q?F?$KO?0?H?$KP?$LL?$PN?F?d?F?$KO?0?Q?$MA?0?R?$LG?0?$LJ?G?0?p?$KE?M?A?0@ DB 'C'
	DB	0c4H, 0abH, 0baH, 0f1H, 0c6H, 0aeH, ',', 0c8H, 0afH, 0bbH, 0fdH
	DB	0c6H, 0e4H, 0c6H, 0aeH, ',', 0d1H, 0c0H, ',', 0d2H, 0b6H, ',', 0b9H
	DB	0c7H, ',', 0f0H, 0a4H, 0cdH, 0c1H, ',2009,30,5.00,24,45,24,50,'
	DB	'19,3,0,0,70,30,0,0,0,0,0,0,1,2,,,,,,0,1,1,5,100295,1,1,,0,500'
	DB	',,0,500,,0,500,,0,500,,0,500,,6', 00H	; `string'
CONST	ENDS
;	COMDAT ??_C@_0JF@GJJCFENO@C?D?m?$LH?N?$LH?N?0?H?$KP?$LL?$PN?F?d?F?$KO?0?Q?$MA?0?R?$LG?0?$LJ?G?0?p?$KE?M?A?0@
CONST	SEGMENT
??_C@_0JF@GJJCFENO@C?D?m?$LH?N?$LH?N?0?H?$KP?$LL?$PN?F?d?F?$KO?0?Q?$MA?0?R?$LG?0?$LJ?G?0?p?$KE?M?A?0@ DB 'C'
	DB	0c4H, 0edH, 0b7H, 0ceH, 0b7H, 0ceH, ',', 0c8H, 0afH, 0bbH, 0fdH
	DB	0c6H, 0e4H, 0c6H, 0aeH, ',', 0d1H, 0c0H, ',', 0d2H, 0b6H, ',', 0b9H
	DB	0c7H, ',', 0f0H, 0a4H, 0cdH, 0c1H, ',2027,30,5.00,33,45,42,31,'
	DB	'19,3,40,60,0,0,0,0,0,0,0,0,1,2,,,,,,0,1,1,5,105217,1,1,,0,500'
	DB	',,0,500,,0,500,,0,500,,0,500,,6', 00H	; `string'
CONST	ENDS
;	COMDAT ??_C@_0JF@OAEDDPNA@C?$LH?$KF?$LA?$KB?$LN?$LK?0?H?$KP?$LL?$PN?F?d?F?$KO?0?Q?$MA?0?R?$LG?0?$LJ?G?0?p?$KE?M?A?0@
CONST	SEGMENT
??_C@_0JF@OAEDDPNA@C?$LH?$KF?$LA?$KB?$LN?$LK?0?H?$KP?$LL?$PN?F?d?F?$KO?0?Q?$MA?0?R?$LG?0?$LJ?G?0?p?$KE?M?A?0@ DB 'C'
	DB	0b7H, 0a5H, 0b0H, 0a1H, 0bdH, 0baH, ',', 0c8H, 0afH, 0bbH, 0fdH
	DB	0c6H, 0e4H, 0c6H, 0aeH, ',', 0d1H, 0c0H, ',', 0d2H, 0b6H, ',', 0b9H
	DB	0c7H, ',', 0f0H, 0a4H, 0cdH, 0c1H, ',2026,30,5.00,33,45,42,31,'
	DB	'19,3,50,0,0,50,0,0,0,0,0,0,1,2,,,,,,0,1,1,5,100389,1,1,,0,500'
	DB	',,0,500,,0,500,,0,500,,0,500,,6', 00H	; `string'
CONST	ENDS
;	COMDAT ??_C@_0JF@GJMDCIJC@C?$LI?$LI?$LI?p?$LI?$KD?0?H?$KP?$LL?$PN?F?d?F?$KO?0?Q?$MA?0?R?$LG?0?$LJ?G?0?p?$KE?M?A?0@
CONST	SEGMENT
??_C@_0JF@GJMDCIJC@C?$LI?$LI?$LI?p?$LI?$KD?0?H?$KP?$LL?$PN?F?d?F?$KO?0?Q?$MA?0?R?$LG?0?$LJ?G?0?p?$KE?M?A?0@ DB 'C'
	DB	0b8H, 0b8H, 0b8H, 0f0H, 0b8H, 0a3H, ',', 0c8H, 0afH, 0bbH, 0fdH
	DB	0c6H, 0e4H, 0c6H, 0aeH, ',', 0d1H, 0c0H, ',', 0d2H, 0b6H, ',', 0b9H
	DB	0c7H, ',', 0f0H, 0a4H, 0cdH, 0c1H, ',2023,30,5.00,33,45,42,31,'
	DB	'19,3,0,20,80,0,0,0,0,0,0,0,1,2,,,,,,0,1,1,5,100356,1,1,,0,500'
	DB	',,0,500,,0,500,,0,500,,0,500,,6', 00H	; `string'
CONST	ENDS
;	COMDAT ??_C@_0JD@BAKFJJG@C?$LI?$LI?$LI?p?0?H?$KP?$LL?$PN?F?d?F?$KO?0?Q?$MA?0?R?$LG?0?$LJ?G?0?p?$KE?M?A?020@
CONST	SEGMENT
??_C@_0JD@BAKFJJG@C?$LI?$LI?$LI?p?0?H?$KP?$LL?$PN?F?d?F?$KO?0?Q?$MA?0?R?$LG?0?$LJ?G?0?p?$KE?M?A?020@ DB 'C'
	DB	0b8H, 0b8H, 0b8H, 0f0H, ',', 0c8H, 0afH, 0bbH, 0fdH, 0c6H, 0e4H
	DB	0c6H, 0aeH, ',', 0d1H, 0c0H, ',', 0d2H, 0b6H, ',', 0b9H, 0c7H, ','
	DB	0f0H, 0a4H, 0cdH, 0c1H, ',2022,30,5.00,33,45,42,31,19,3,90,10,'
	DB	'0,0,0,0,0,0,0,0,1,2,,,,,,0,1,1,5,100355,1,1,,0,500,,0,500,,0,'
	DB	'500,,0,500,,0,500,,6', 00H			; `string'
CONST	ENDS
;	COMDAT ??_C@_0JH@DIINJGGK@C?$LE?Y?$MA?L?$LD?k?$LN?$LK?0?H?$KP?$LL?$PN?F?d?F?$KO?0?Q?$MA?0?R?$LG?0?$LJ?G?0?p?$KE?M@
CONST	SEGMENT
??_C@_0JH@DIINJGGK@C?$LE?Y?$MA?L?$LD?k?$LN?$LK?0?H?$KP?$LL?$PN?F?d?F?$KO?0?Q?$MA?0?R?$LG?0?$LJ?G?0?p?$KE?M@ DB 'C'
	DB	0b4H, 0d9H, 0c0H, 0ccH, 0b3H, 0ebH, 0bdH, 0baH, ',', 0c8H, 0afH
	DB	0bbH, 0fdH, 0c6H, 0e4H, 0c6H, 0aeH, ',', 0d1H, 0c0H, ',', 0d2H
	DB	0b6H, ',', 0b9H, 0c7H, ',', 0f0H, 0a4H, 0cdH, 0c1H, ',2021,30,'
	DB	'5.00,33,45,42,31,19,3,30,70,0,0,0,0,0,0,0,0,1,2,,,,,,0,1,1,5,'
	DB	'100352,1,1,,0,500,,0,500,,0,500,,0,500,,0,500,,6', 00H ; `string'
CONST	ENDS
;	COMDAT ??_C@_0JD@EIOMDHFI@C?F?G?A?v?0?H?$KP?$LL?$PN?F?d?F?$KO?0?Q?$MA?0?R?$LG?0?$LJ?G?0?p?$KE?M?A?020@
CONST	SEGMENT
??_C@_0JD@EIOMDHFI@C?F?G?A?v?0?H?$KP?$LL?$PN?F?d?F?$KO?0?Q?$MA?0?R?$LG?0?$LJ?G?0?p?$KE?M?A?020@ DB 'C'
	DB	0c6H, 0c7H, 0c1H, 0f6H, ',', 0c8H, 0afH, 0bbH, 0fdH, 0c6H, 0e4H
	DB	0c6H, 0aeH, ',', 0d1H, 0c0H, ',', 0d2H, 0b6H, ',', 0b9H, 0c7H, ','
	DB	0f0H, 0a4H, 0cdH, 0c1H, ',2018,30,5.00,33,45,42,31,19,3,20,80,'
	DB	'0,0,0,0,0,0,0,0,1,2,,,,,,0,1,1,5,100342,1,1,,0,500,,0,500,,0,'
	DB	'500,,0,500,,0,500,,6', 00H			; `string'
CONST	ENDS
;	COMDAT ??_C@_0JD@GAKFEGM@C?$MA?p?$LB?W?0?H?$KP?$LL?$PN?F?d?F?$KO?0?Q?$MA?0?R?$LG?0?$LJ?G?0?p?$KE?M?A?020@
CONST	SEGMENT
??_C@_0JD@GAKFEGM@C?$MA?p?$LB?W?0?H?$KP?$LL?$PN?F?d?F?$KO?0?Q?$MA?0?R?$LG?0?$LJ?G?0?p?$KE?M?A?020@ DB 'C'
	DB	0c0H, 0f0H, 0b1H, 0d7H, ',', 0c8H, 0afH, 0bbH, 0fdH, 0c6H, 0e4H
	DB	0c6H, 0aeH, ',', 0d1H, 0c0H, ',', 0d2H, 0b6H, ',', 0b9H, 0c7H, ','
	DB	0f0H, 0a4H, 0cdH, 0c1H, ',2017,30,5.00,33,45,42,31,19,3,0,100,'
	DB	'0,0,0,0,0,0,0,0,1,2,,,,,,0,1,1,5,100341,1,1,,0,500,,0,500,,0,'
	DB	'500,,0,500,,0,500,,6', 00H			; `string'
CONST	ENDS
;	COMDAT ??_C@_0JF@IAJLEBIE@C?$MA?p?$LB?W?$LG?s?0?H?$KP?$LL?$PN?F?d?F?$KO?0?Q?$MA?0?R?$LG?0?$LJ?G?0?p?$KE?M?A?0@
CONST	SEGMENT
??_C@_0JF@IAJLEBIE@C?$MA?p?$LB?W?$LG?s?0?H?$KP?$LL?$PN?F?d?F?$KO?0?Q?$MA?0?R?$LG?0?$LJ?G?0?p?$KE?M?A?0@ DB 'C'
	DB	0c0H, 0f0H, 0b1H, 0d7H, 0b6H, 0f3H, ',', 0c8H, 0afH, 0bbH, 0fdH
	DB	0c6H, 0e4H, 0c6H, 0aeH, ',', 0d1H, 0c0H, ',', 0d2H, 0b6H, ',', 0b9H
	DB	0c7H, ',', 0f0H, 0a4H, 0cdH, 0c1H, ',2016,30,5.00,33,45,42,31,'
	DB	'19,3,0,50,50,0,0,0,0,0,0,0,1,2,,,,,,0,1,1,5,100340,1,1,,0,500'
	DB	',,0,500,,0,500,,0,500,,0,500,,6', 00H	; `string'
CONST	ENDS
;	COMDAT ??_C@_0JH@EFJAOGAL@C?$LA?m?$LJ?$NN?D?I?$LN?$LK?0?H?$KP?$LL?$PN?F?d?F?$KO?0?Q?$MA?0?R?$LG?0?$LJ?G?0?p?$KE?M@
CONST	SEGMENT
??_C@_0JH@EFJAOGAL@C?$LA?m?$LJ?$NN?D?I?$LN?$LK?0?H?$KP?$LL?$PN?F?d?F?$KO?0?Q?$MA?0?R?$LG?0?$LJ?G?0?p?$KE?M@ DB 'C'
	DB	0b0H, 0edH, 0b9H, 0ddH, 0c4H, 0c9H, 0bdH, 0baH, ',', 0c8H, 0afH
	DB	0bbH, 0fdH, 0c6H, 0e4H, 0c6H, 0aeH, ',', 0d1H, 0c0H, ',', 0d2H
	DB	0b6H, ',', 0b9H, 0c7H, ',', 0f0H, 0a4H, 0cdH, 0c1H, ',2015,30,'
	DB	'5.00,33,45,42,31,19,3,40,60,0,0,0,0,0,0,0,0,1,2,,,,,,0,1,1,5,'
	DB	'100339,1,1,,0,500,,0,500,,0,500,,0,500,,0,500,,6', 00H ; `string'
CONST	ENDS
;	COMDAT ??_C@_0JF@NPNGJADJ@C?$LB?b?$LG?s?$LF?$LH?0?H?$KP?$LL?$PN?F?d?F?$KO?0?Q?$MA?0?R?$LG?0?$LJ?G?0?p?$KE?M?A?0@
CONST	SEGMENT
??_C@_0JF@NPNGJADJ@C?$LB?b?$LG?s?$LF?$LH?0?H?$KP?$LL?$PN?F?d?F?$KO?0?Q?$MA?0?R?$LG?0?$LJ?G?0?p?$KE?M?A?0@ DB 'C'
	DB	0b1H, 0e2H, 0b6H, 0f3H, 0b5H, 0b7H, ',', 0c8H, 0afH, 0bbH, 0fdH
	DB	0c6H, 0e4H, 0c6H, 0aeH, ',', 0d1H, 0c0H, ',', 0d2H, 0b6H, ',', 0b9H
	DB	0c7H, ',', 0f0H, 0a4H, 0cdH, 0c1H, ',2012,30,5.00,33,45,42,31,'
	DB	'19,3,80,20,0,0,0,0,0,0,0,0,1,2,,,,,,0,1,1,5,100308,1,1,,0,500'
	DB	',,0,500,,0,500,,0,500,,0,500,,6', 00H	; `string'
CONST	ENDS
;	COMDAT ??_C@_0JF@ODCPAOHH@C?$LE?Y?$LA?m?$LN?$LK?0?H?$KP?$LL?$PN?F?d?F?$KO?0?Q?$MA?0?R?$LG?0?$LJ?G?0?p?$KE?M?A?0@
CONST	SEGMENT
??_C@_0JF@ODCPAOHH@C?$LE?Y?$LA?m?$LN?$LK?0?H?$KP?$LL?$PN?F?d?F?$KO?0?Q?$MA?0?R?$LG?0?$LJ?G?0?p?$KE?M?A?0@ DB 'C'
	DB	0b4H, 0d9H, 0b0H, 0edH, 0bdH, 0baH, ',', 0c8H, 0afH, 0bbH, 0fdH
	DB	0c6H, 0e4H, 0c6H, 0aeH, ',', 0d1H, 0c0H, ',', 0d2H, 0b6H, ',', 0b9H
	DB	0c7H, ',', 0f0H, 0a4H, 0cdH, 0c1H, ',2007,30,5.00,33,45,42,31,'
	DB	'19,3,80,20,0,0,0,0,0,0,0,0,1,2,,,,,,0,1,1,5,100278,1,1,,0,500'
	DB	',,0,500,,0,500,,0,500,,0,500,,6', 00H	; `string'
CONST	ENDS
;	COMDAT ??_C@_0JF@JHJOLKOP@C?$LK?N?$MA?L?$LK?q?0?H?$KP?$LL?$PN?F?d?F?$KO?0?Q?$MA?0?R?$LG?0?$LJ?G?0?p?$KE?M?A?0@
CONST	SEGMENT
??_C@_0JF@JHJOLKOP@C?$LK?N?$MA?L?$LK?q?0?H?$KP?$LL?$PN?F?d?F?$KO?0?Q?$MA?0?R?$LG?0?$LJ?G?0?p?$KE?M?A?0@ DB 'C'
	DB	0baH, 0ceH, 0c0H, 0ccH, 0baH, 0f1H, ',', 0c8H, 0afH, 0bbH, 0fdH
	DB	0c6H, 0e4H, 0c6H, 0aeH, ',', 0d1H, 0c0H, ',', 0d2H, 0b6H, ',', 0b9H
	DB	0c7H, ',', 0f0H, 0a4H, 0cdH, 0c1H, ',2004,30,5.00,33,45,42,31,'
	DB	'19,3,0,40,60,0,0,0,0,0,0,0,1,2,,,,,,0,1,1,5,100256,1,1,,0,500'
	DB	',,0,500,,0,500,,0,500,,0,500,,6', 00H	; `string'
CONST	ENDS
;	COMDAT ??_C@_0JD@CDHKNLMG@C?$LP?l?$LI?$KO?0?H?$KP?$LL?$PN?F?d?F?$KO?0?Q?$MA?0?R?$LG?0?$LJ?G?0?p?$KE?M?A?020@
CONST	SEGMENT
??_C@_0JD@CDHKNLMG@C?$LP?l?$LI?$KO?0?H?$KP?$LL?$PN?F?d?F?$KO?0?Q?$MA?0?R?$LG?0?$LJ?G?0?p?$KE?M?A?020@ DB 'C'
	DB	0bfH, 0ecH, 0b8H, 0aeH, ',', 0c8H, 0afH, 0bbH, 0fdH, 0c6H, 0e4H
	DB	0c6H, 0aeH, ',', 0d1H, 0c0H, ',', 0d2H, 0b6H, ',', 0b9H, 0c7H, ','
	DB	0f0H, 0a4H, 0cdH, 0c1H, ',2000,30,5.00,33,45,42,31,19,3,80,20,'
	DB	'0,0,0,0,0,0,0,0,1,2,,,,,,0,1,1,5,100250,1,1,,0,500,,0,500,,0,'
	DB	'500,,0,500,,0,500,,6', 00H			; `string'
CONST	ENDS
;	COMDAT ??_C@_0JD@NKGMKJML@C?$LK?N?$LK?q?0?H?$KP?$LL?$PN?F?d?F?$KO?0?Q?$MA?0?R?$LG?0?$LJ?G?0?p?$KE?M?A?020@
CONST	SEGMENT
??_C@_0JD@NKGMKJML@C?$LK?N?$LK?q?0?H?$KP?$LL?$PN?F?d?F?$KO?0?Q?$MA?0?R?$LG?0?$LJ?G?0?p?$KE?M?A?020@ DB 'C'
	DB	0baH, 0ceH, 0baH, 0f1H, ',', 0c8H, 0afH, 0bbH, 0fdH, 0c6H, 0e4H
	DB	0c6H, 0aeH, ',', 0d1H, 0c0H, ',', 0d2H, 0b6H, ',', 0b9H, 0c7H, ','
	DB	0f0H, 0a4H, 0cdH, 0c1H, ',2002,30,5.00,33,45,42,31,19,3,80,20,'
	DB	'0,0,0,0,0,0,0,0,1,2,,,,,,0,1,1,5,100254,1,1,,0,500,,0,500,,0,'
	DB	'500,,0,500,,0,500,,6', 00H			; `string'
CONST	ENDS
;	COMDAT ??_C@_0JJ@OOIAPBOP@C?$LO?s?$LH?h?$LK?N?$MA?L?$LK?q?0?H?$KP?$LL?$PN?F?d?F?$KO?0?Q?$MA?0?R?$LG?0?$LJ?G?0?p@
CONST	SEGMENT
??_C@_0JJ@OOIAPBOP@C?$LO?s?$LH?h?$LK?N?$MA?L?$LK?q?0?H?$KP?$LL?$PN?F?d?F?$KO?0?Q?$MA?0?R?$LG?0?$LJ?G?0?p@ DB 'C'
	DB	0beH, 0f3H, 0b7H, 0e8H, 0baH, 0ceH, 0c0H, 0ccH, 0baH, 0f1H, ','
	DB	0c8H, 0afH, 0bbH, 0fdH, 0c6H, 0e4H, 0c6H, 0aeH, ',', 0d1H, 0c0H
	DB	',', 0d2H, 0b6H, ',', 0b9H, 0c7H, ',', 0f0H, 0a4H, 0cdH, 0c1H, ','
	DB	'2005,30,5.00,33,45,42,31,19,3,100,0,0,0,0,0,0,0,0,0,1,2,,,,,,'
	DB	'0,1,1,5,100258,1,1,,0,500,,0,500,,0,500,,0,500,,0,500,,6', 00H ; `string'
CONST	ENDS
;	COMDAT ??_C@_0JF@KFFIDIKE@C?$LD?W?$LA?m?$LN?$LK?0?H?$KP?$LL?$PN?F?d?F?$KO?0?Q?$MA?0?R?$LG?0?$LJ?G?0?p?$KE?M?A?0@
CONST	SEGMENT
??_C@_0JF@KFFIDIKE@C?$LD?W?$LA?m?$LN?$LK?0?H?$KP?$LL?$PN?F?d?F?$KO?0?Q?$MA?0?R?$LG?0?$LJ?G?0?p?$KE?M?A?0@ DB 'C'
	DB	0b3H, 0d7H, 0b0H, 0edH, 0bdH, 0baH, ',', 0c8H, 0afH, 0bbH, 0fdH
	DB	0c6H, 0e4H, 0c6H, 0aeH, ',', 0d1H, 0c0H, ',', 0d2H, 0b6H, ',', 0b9H
	DB	0c7H, ',', 0f0H, 0a4H, 0cdH, 0c1H, ',2006,30,5.00,33,45,42,31,'
	DB	'19,3,40,60,0,0,0,0,0,0,0,0,1,2,,,,,,0,1,1,5,100276,1,1,,0,500'
	DB	',,0,500,,0,500,,0,500,,0,500,,6', 00H	; `string'
CONST	ENDS
;	COMDAT ??_C@_0KA@CNHBBDND@?H?$KN?$MA?L?E?d?$LN?$LK?0VIP?F?d?F?$KO?0?Q?$MA?0?R?$LG?0?$LJ?G?0?p?$KE?M?A?0@
CONST	SEGMENT
??_C@_0KA@CNHBBDND@?H?$KN?$MA?L?E?d?$LN?$LK?0VIP?F?d?F?$KO?0?Q?$MA?0?R?$LG?0?$LJ?G?0?p?$KE?M?A?0@ DB 0c8H
	DB	0adH, 0c0H, 0ccH, 0c5H, 0e4H, 0bdH, 0baH, ',VIP', 0c6H, 0e4H, 0c6H
	DB	0aeH, ',', 0d1H, 0c0H, ',', 0d2H, 0b6H, ',', 0b9H, 0c7H, ',', 0f0H
	DB	0a4H, 0cdH, 0c1H, ',1247,30,5.00,42,28,47,52,19,3,0,0,0,100,0,'
	DB	'0,0,0,0,0,1,2,,,,,,0,1,1,2,100000,1,0,,700,700,,700,700,,700,'
	DB	'700,,700,700,,700,700,,1,', 00H		; `string'
CONST	ENDS
;	COMDAT ??_C@_0JO@KKEJHFPK@?$LL?$PO?$LP?l?F?$KO?0VIP?F?d?F?$KO?0?Q?$MA?0?R?$LG?0?$LJ?G?0?p?$KE?M?A?012@
CONST	SEGMENT
??_C@_0JO@KKEJHFPK@?$LL?$PO?$LP?l?F?$KO?0VIP?F?d?F?$KO?0?Q?$MA?0?R?$LG?0?$LJ?G?0?p?$KE?M?A?012@ DB 0bbH
	DB	0feH, 0bfH, 0ecH, 0c6H, 0aeH, ',VIP', 0c6H, 0e4H, 0c6H, 0aeH, ','
	DB	0d1H, 0c0H, ',', 0d2H, 0b6H, ',', 0b9H, 0c7H, ',', 0f0H, 0a4H, 0cdH
	DB	0c1H, ',1246,30,5.00,42,28,47,52,19,3,50,0,0,50,0,0,0,0,0,0,1,'
	DB	'2,,,,,,0,1,1,2,105165,1,0,,700,700,,700,700,,700,700,,700,700'
	DB	',,700,700,,1,', 00H				; `string'
CONST	ENDS
;	COMDAT ??_C@_0JM@PCCFNNED@?$LB?b?$LI?$LA?0VIP?F?d?F?$KO?0?Q?$MA?0?R?$LG?0?$LJ?G?0?p?$KE?M?A?01245@
CONST	SEGMENT
??_C@_0JM@PCCFNNED@?$LB?b?$LI?$LA?0VIP?F?d?F?$KO?0?Q?$MA?0?R?$LG?0?$LJ?G?0?p?$KE?M?A?01245@ DB 0b1H
	DB	0e2H, 0b8H, 0b0H, ',VIP', 0c6H, 0e4H, 0c6H, 0aeH, ',', 0d1H, 0c0H
	DB	',', 0d2H, 0b6H, ',', 0b9H, 0c7H, ',', 0f0H, 0a4H, 0cdH, 0c1H, ','
	DB	'1245,30,5.00,42,28,47,52,19,3,90,0,0,10,0,0,0,0,0,0,1,2,,,,,,'
	DB	'0,1,1,2,105089,1,0,,700,700,,700,700,,700,700,,700,700,,700,7'
	DB	'00,,1,', 00H				; `string'
CONST	ENDS
;	COMDAT ??_C@_0KA@KKCNDBNO@?$LO?F?$LN?$LK?E?$LI?$LH?N?0VIP?F?d?F?$KO?0?Q?$MA?0?R?$LG?0?$LJ?G?0?p?$KE?M?A?0@
CONST	SEGMENT
??_C@_0KA@KKCNDBNO@?$LO?F?$LN?$LK?E?$LI?$LH?N?0VIP?F?d?F?$KO?0?Q?$MA?0?R?$LG?0?$LJ?G?0?p?$KE?M?A?0@ DB 0beH
	DB	0c6H, 0bdH, 0baH, 0c5H, 0b8H, 0b7H, 0ceH, ',VIP', 0c6H, 0e4H, 0c6H
	DB	0aeH, ',', 0d1H, 0c0H, ',', 0d2H, 0b6H, ',', 0b9H, 0c7H, ',', 0f0H
	DB	0a4H, 0cdH, 0c1H, ',1237,30,5.00,42,28,47,52,19,3,50,50,0,0,0,'
	DB	'0,0,0,0,0,1,2,,,,,,0,1,1,2,102164,1,0,,700,700,,700,700,,700,'
	DB	'700,,700,700,,700,700,,1,', 00H		; `string'
CONST	ENDS
;	COMDAT ??_C@_0JO@ELALCKNF@?$LF?p?$LO?n?$LH?i?0VIP?F?d?F?$KO?0?Q?$MA?0?R?$LG?0?$LJ?G?0?p?$KE?M?A?012@
CONST	SEGMENT
??_C@_0JO@ELALCKNF@?$LF?p?$LO?n?$LH?i?0VIP?F?d?F?$KO?0?Q?$MA?0?R?$LG?0?$LJ?G?0?p?$KE?M?A?012@ DB 0b5H
	DB	0f0H, 0beH, 0eeH, 0b7H, 0e9H, ',VIP', 0c6H, 0e4H, 0c6H, 0aeH, ','
	DB	0d1H, 0c0H, ',', 0d2H, 0b6H, ',', 0b9H, 0c7H, ',', 0f0H, 0a4H, 0cdH
	DB	0c1H, ',1236,30,5.00,42,28,47,52,19,3,30,70,0,0,0,0,0,0,0,0,1,'
	DB	'2,,,,,,0,1,1,2,102162,1,0,,700,700,,700,700,,700,700,,700,700'
	DB	',,700,700,,1,', 00H				; `string'
CONST	ENDS
;	COMDAT ??_C@_0KC@NNNHPLAK@?$LE?Y?E?$KJ?$LJ?Y?$LH?N?$LN?$LK?0VIP?F?d?F?$KO?0?Q?$MA?0?R?$LG?0?$LJ?G?0?p?$KE?M@
CONST	SEGMENT
??_C@_0KC@NNNHPLAK@?$LE?Y?E?$KJ?$LJ?Y?$LH?N?$LN?$LK?0VIP?F?d?F?$KO?0?Q?$MA?0?R?$LG?0?$LJ?G?0?p?$KE?M@ DB 0b4H
	DB	0d9H, 0c5H, 0a9H, 0b9H, 0d9H, 0b7H, 0ceH, 0bdH, 0baH, ',VIP', 0c6H
	DB	0e4H, 0c6H, 0aeH, ',', 0d1H, 0c0H, ',', 0d2H, 0b6H, ',', 0b9H, 0c7H
	DB	',', 0f0H, 0a4H, 0cdH, 0c1H, ',1242,30,5.00,24,48,26,51,19,3,0'
	DB	',100,0,0,0,0,0,0,0,0,1,2,,,,,,0,1,1,2,102216,1,0,,700,700,,70'
	DB	'0,700,,700,700,,700,700,,700,700,,1,', 00H	; `string'
CONST	ENDS
;	COMDAT ??_C@_0KC@OAEKGKHI@?$LA?q?$LF?e?$LF?e?$LH?$KB?$LA?o?0VIP?F?d?F?$KO?0?Q?$MA?0?R?$LG?0?$LJ?G?0?p?$KE?M@
CONST	SEGMENT
??_C@_0KC@OAEKGKHI@?$LA?q?$LF?e?$LF?e?$LH?$KB?$LA?o?0VIP?F?d?F?$KO?0?Q?$MA?0?R?$LG?0?$LJ?G?0?p?$KE?M@ DB 0b0H
	DB	0f1H, 0b5H, 0e5H, 0b5H, 0e5H, 0b7H, 0a1H, 0b0H, 0efH, ',VIP', 0c6H
	DB	0e4H, 0c6H, 0aeH, ',', 0d1H, 0c0H, ',', 0d2H, 0b6H, ',', 0b9H, 0c7H
	DB	',', 0f0H, 0a4H, 0cdH, 0c1H, ',1235,30,5.00,24,48,26,51,19,3,0'
	DB	',0,10,90,0,0,0,0,0,0,1,2,,,,,,0,1,1,2,102156,1,0,,700,700,,70'
	DB	'0,700,,700,700,,700,700,,700,700,,1,', 00H	; `string'
CONST	ENDS
;	COMDAT ??_C@_0KA@FEHOPLGA@?F?d?$LA?$KB?$LM?v?$LN?$LK?0VIP?F?d?F?$KO?0?Q?$MA?0?R?$LG?0?$LJ?G?0?p?$KE?M?A?0@
CONST	SEGMENT
??_C@_0KA@FEHOPLGA@?F?d?$LA?$KB?$LM?v?$LN?$LK?0VIP?F?d?F?$KO?0?Q?$MA?0?R?$LG?0?$LJ?G?0?p?$KE?M?A?0@ DB 0c6H
	DB	0e4H, 0b0H, 0a1H, 0bcH, 0f6H, 0bdH, 0baH, ',VIP', 0c6H, 0e4H, 0c6H
	DB	0aeH, ',', 0d1H, 0c0H, ',', 0d2H, 0b6H, ',', 0b9H, 0c7H, ',', 0f0H
	DB	0a4H, 0cdH, 0c1H, ',1231,30,5.00,24,48,26,51,19,3,0,0,70,30,0,'
	DB	'0,0,0,0,0,1,2,,,,,,0,1,1,2,102060,1,0,,700,700,,700,700,,700,'
	DB	'700,,700,700,,700,700,,1,', 00H		; `string'
CONST	ENDS
;	COMDAT ??_C@_0KA@KEBFIINA@?$LA?q?$LF?e?$LH?N?$LK?q?0VIP?F?d?F?$KO?0?Q?$MA?0?R?$LG?0?$LJ?G?0?p?$KE?M?A?0@
CONST	SEGMENT
??_C@_0KA@KEBFIINA@?$LA?q?$LF?e?$LH?N?$LK?q?0VIP?F?d?F?$KO?0?Q?$MA?0?R?$LG?0?$LJ?G?0?p?$KE?M?A?0@ DB 0b0H
	DB	0f1H, 0b5H, 0e5H, 0b7H, 0ceH, 0baH, 0f1H, ',VIP', 0c6H, 0e4H, 0c6H
	DB	0aeH, ',', 0d1H, 0c0H, ',', 0d2H, 0b6H, ',', 0b9H, 0c7H, ',', 0f0H
	DB	0a4H, 0cdH, 0c1H, ',1230,30,5.00,24,48,26,51,19,3,0,0,20,80,0,'
	DB	'0,0,0,0,0,1,2,,,,,,0,1,1,2,102057,1,0,,700,700,,700,700,,700,'
	DB	'700,,700,700,,700,700,,1,', 00H		; `string'
CONST	ENDS
;	COMDAT ??_C@_0JO@PCDOGNMH@?$LL?$PO?E?$KJ?$LH?P?0VIP?F?d?F?$KO?0?Q?$MA?0?R?$LG?0?$LJ?G?0?p?$KE?M?A?012@
CONST	SEGMENT
??_C@_0JO@PCDOGNMH@?$LL?$PO?E?$KJ?$LH?P?0VIP?F?d?F?$KO?0?Q?$MA?0?R?$LG?0?$LJ?G?0?p?$KE?M?A?012@ DB 0bbH
	DB	0feH, 0c5H, 0a9H, 0b7H, 0d0H, ',VIP', 0c6H, 0e4H, 0c6H, 0aeH, ','
	DB	0d1H, 0c0H, ',', 0d2H, 0b6H, ',', 0b9H, 0c7H, ',', 0f0H, 0a4H, 0cdH
	DB	0c1H, ',1229,30,5.00,24,48,26,51,19,3,0,100,0,0,0,0,0,0,0,0,1,'
	DB	'2,,,,,,0,1,1,2,102020,1,0,,700,700,,700,700,,700,700,,700,700'
	DB	',,700,700,,1,', 00H				; `string'
CONST	ENDS
;	COMDAT ??_C@_0JO@ECDEIDLH@?$LP?o?G?$KK?$LN?$LK?0VIP?F?d?F?$KO?0?Q?$MA?0?R?$LG?0?$LJ?G?0?p?$KE?M?A?012@
CONST	SEGMENT
??_C@_0JO@ECDEIDLH@?$LP?o?G?$KK?$LN?$LK?0VIP?F?d?F?$KO?0?Q?$MA?0?R?$LG?0?$LJ?G?0?p?$KE?M?A?012@ DB 0bfH
	DB	0efH, 0c7H, 0aaH, 0bdH, 0baH, ',VIP', 0c6H, 0e4H, 0c6H, 0aeH, ','
	DB	0d1H, 0c0H, ',', 0d2H, 0b6H, ',', 0b9H, 0c7H, ',', 0f0H, 0a4H, 0cdH
	DB	0c1H, ',1227,30,5.00,24,48,26,51,19,3,0,100,0,0,0,0,0,0,0,0,1,'
	DB	'2,,,,,,0,1,1,2,102007,1,0,,700,700,,700,700,,700,700,,700,700'
	DB	',,700,700,,1,', 00H				; `string'
CONST	ENDS
;	COMDAT ??_C@_0JO@PNAJMPLG@?$LA?$KF?G?$KK?$LN?$LK?0VIP?F?d?F?$KO?0?Q?$MA?0?R?$LG?0?$LJ?G?0?p?$KE?M?A?012@
CONST	SEGMENT
??_C@_0JO@PNAJMPLG@?$LA?$KF?G?$KK?$LN?$LK?0VIP?F?d?F?$KO?0?Q?$MA?0?R?$LG?0?$LJ?G?0?p?$KE?M?A?012@ DB 0b0H
	DB	0a5H, 0c7H, 0aaH, 0bdH, 0baH, ',VIP', 0c6H, 0e4H, 0c6H, 0aeH, ','
	DB	0d1H, 0c0H, ',', 0d2H, 0b6H, ',', 0b9H, 0c7H, ',', 0f0H, 0a4H, 0cdH
	DB	0c1H, ',1226,30,5.00,24,48,26,51,19,3,0,0,90,10,0,0,0,0,0,0,1,'
	DB	'2,,,,,,0,1,1,2,102006,1,0,,700,700,,700,700,,700,700,,700,700'
	DB	',,700,700,,1,', 00H				; `string'
CONST	ENDS
;	COMDAT ??_C@_0JO@IEEADIKO@?E?$KJ?$LH?N?E?f?0VIP?F?d?F?$KO?0?Q?$MA?0?R?$LG?0?$LJ?G?0?p?$KE?M?A?012@
CONST	SEGMENT
??_C@_0JO@IEEADIKO@?E?$KJ?$LH?N?E?f?0VIP?F?d?F?$KO?0?Q?$MA?0?R?$LG?0?$LJ?G?0?p?$KE?M?A?012@ DB 0c5H
	DB	0a9H, 0b7H, 0ceH, 0c5H, 0e6H, ',VIP', 0c6H, 0e4H, 0c6H, 0aeH, ','
	DB	0d1H, 0c0H, ',', 0d2H, 0b6H, ',', 0b9H, 0c7H, ',', 0f0H, 0a4H, 0cdH
	DB	0c1H, ',1244,30,5.00,33,46,43,35,19,3,0,70,30,0,0,0,0,0,0,0,1,'
	DB	'2,,,,,,0,1,1,2,102259,1,0,,700,700,,700,700,,700,700,,700,700'
	DB	',,700,700,,1,', 00H				; `string'
CONST	ENDS
;	COMDAT ??_C@_0KA@NAPJDBPO@?$LG?s?$LB?W?$LD?k?$LN?$LK?0VIP?F?d?F?$KO?0?Q?$MA?0?R?$LG?0?$LJ?G?0?p?$KE?M?A?0@
CONST	SEGMENT
??_C@_0KA@NAPJDBPO@?$LG?s?$LB?W?$LD?k?$LN?$LK?0VIP?F?d?F?$KO?0?Q?$MA?0?R?$LG?0?$LJ?G?0?p?$KE?M?A?0@ DB 0b6H
	DB	0f3H, 0b1H, 0d7H, 0b3H, 0ebH, 0bdH, 0baH, ',VIP', 0c6H, 0e4H, 0c6H
