; Listing generated by Microsoft (R) Optimizing Compiler Version 19.28.29336.0 

	TITLE	C:\Users\gg862\OneDrive\πŸ≈¡ »≠∏È\∏æƒÌøœ∑·\Client Source Code1.31¿œ∫ª\NewProto\protocol.cpp
	.686P
	.XMM
	include listing.inc
	.model	flat

INCLUDELIB LIBCMT
INCLUDELIB OLDNAMES

PUBLIC	?SaDispatchMessage@@YAHHPAD@Z			; SaDispatchMessage
PUBLIC	?lssproto_SaMenu_send@@YAXHHHH@Z		; lssproto_SaMenu_send
PUBLIC	?lssproto_GetInfo_send@@YAXH@Z			; lssproto_GetInfo_send
PUBLIC	?lssproto_Gmset_send@@YAXHHPAD@Z		; lssproto_Gmset_send
PUBLIC	?lssproto_Expup_send@@YAXH@Z			; lssproto_Expup_send
PUBLIC	?lssproto_Noenemy_send@@YAXH@Z			; lssproto_Noenemy_send
PUBLIC	?lssproto_Partyauto_send@@YAXH@Z		; lssproto_Partyauto_send
PUBLIC	?lssproto_petshopcall_send@@YAXH@Z		; lssproto_petshopcall_send
PUBLIC	?lssproto_poolitemcall_send@@YAXH@Z		; lssproto_poolitemcall_send
PUBLIC	?lssproto_W_send@@YAXHHHPAD@Z			; lssproto_W_send
PUBLIC	?lssproto_W2_send@@YAXHHHPAD@Z			; lssproto_W2_send
PUBLIC	?lssproto_EV_send@@YAXHHHHHH@Z			; lssproto_EV_send
PUBLIC	?lssproto_EN_send@@YAXHHH@Z			; lssproto_EN_send
PUBLIC	?lssproto_DU_send@@YAXHHH@Z			; lssproto_DU_send
PUBLIC	?lssproto_EO_send@@YAXHH@Z			; lssproto_EO_send
PUBLIC	?lssproto_BU_send@@YAXHH@Z			; lssproto_BU_send
PUBLIC	?lssproto_JB_send@@YAXHHH@Z			; lssproto_JB_send
PUBLIC	?lssproto_LB_send@@YAXHHH@Z			; lssproto_LB_send
PUBLIC	?lssproto_B_send@@YAXHPAD@Z			; lssproto_B_send
PUBLIC	?lssproto_SKD_send@@YAXHHH@Z			; lssproto_SKD_send
PUBLIC	?lssproto_ID_send@@YAXHHHHH@Z			; lssproto_ID_send
PUBLIC	?lssproto_PI_send@@YAXHHHH@Z			; lssproto_PI_send
PUBLIC	?lssproto_DI_send@@YAXHHHH@Z			; lssproto_DI_send
PUBLIC	?lssproto_DG_send@@YAXHHHH@Z			; lssproto_DG_send
PUBLIC	?lssproto_DP_send@@YAXHHHH@Z			; lssproto_DP_send
PUBLIC	?lssproto_MI_send@@YAXHHH@Z			; lssproto_MI_send
PUBLIC	?lssproto_MSG_send@@YAXHHPADH@Z			; lssproto_MSG_send
PUBLIC	?lssproto_PMSG_send@@YAXHHHHPADH@Z		; lssproto_PMSG_send
PUBLIC	?lssproto_AB_send@@YAXH@Z			; lssproto_AB_send
PUBLIC	?lssproto_DAB_send@@YAXHH@Z			; lssproto_DAB_send
PUBLIC	?lssproto_AAB_send@@YAXHHH@Z			; lssproto_AAB_send
PUBLIC	?lssproto_L_send@@YAXHH@Z			; lssproto_L_send
PUBLIC	?lssproto_TK_send@@YAXHHHPADHH@Z		; lssproto_TK_send
PUBLIC	?lssproto_M_send@@YAXHHHHHH@Z			; lssproto_M_send
PUBLIC	?lssproto_C_send@@YAXHH@Z			; lssproto_C_send
PUBLIC	?lssproto_S_send@@YAXHPAD@Z			; lssproto_S_send
PUBLIC	?lssproto_FS_send@@YAXHH@Z			; lssproto_FS_send
PUBLIC	?lssproto_HL_send@@YAXHH@Z			; lssproto_HL_send
PUBLIC	?lssproto_PR_send@@YAXHHHH@Z			; lssproto_PR_send
PUBLIC	?lssproto_KS_send@@YAXHH@Z			; lssproto_KS_send
PUBLIC	?lssproto_SPET_send@@YAXHH@Z			; lssproto_SPET_send
PUBLIC	?lssproto_AC_send@@YAXHHHH@Z			; lssproto_AC_send
PUBLIC	?lssproto_MU_send@@YAXHHHHH@Z			; lssproto_MU_send
PUBLIC	?lssproto_PS_send@@YAXHHHHPAD@Z			; lssproto_PS_send
PUBLIC	?lssproto_ST_send@@YAXHH@Z			; lssproto_ST_send
PUBLIC	?lssproto_DT_send@@YAXHH@Z			; lssproto_DT_send
PUBLIC	?lssproto_FT_send@@YAXHPAD@Z			; lssproto_FT_send
PUBLIC	?lssproto_SKUP_send@@YAXHH@Z			; lssproto_SKUP_send
PUBLIC	?lssproto_KN_send@@YAXHHPAD@Z			; lssproto_KN_send
PUBLIC	?lssproto_WN_send@@YAXHHHHHHPAD@Z		; lssproto_WN_send
PUBLIC	?lssproto_SP_send@@YAXHHHH@Z			; lssproto_SP_send
PUBLIC	?lssproto_ClientLogin_send@@YAXHPAD0@Z		; lssproto_ClientLogin_send
PUBLIC	?lssproto_CreateNewChar_send@@YAXHHPADHHHHHHHHHHH@Z ; lssproto_CreateNewChar_send
PUBLIC	?lssproto_CharDelete_send@@YAXHPAD@Z		; lssproto_CharDelete_send
PUBLIC	?lssproto_CharLogin_send@@YAXHPAD@Z		; lssproto_CharLogin_send
PUBLIC	?lssproto_CharList_send@@YAXH@Z			; lssproto_CharList_send
PUBLIC	?lssproto_CharLogout_send@@YAXHH@Z		; lssproto_CharLogout_send
PUBLIC	?lssproto_ProcGet_send@@YAXH@Z			; lssproto_ProcGet_send
PUBLIC	?lssproto_PlayerNumGet_send@@YAXH@Z		; lssproto_PlayerNumGet_send
PUBLIC	?lssproto_Echo_send@@YAXHPAD@Z			; lssproto_Echo_send
PUBLIC	?lssproto_Shutdown_send@@YAXHPADH@Z		; lssproto_Shutdown_send
PUBLIC	?lssproto_TD_send@@YAXHPAD@Z			; lssproto_TD_send
PUBLIC	?lssproto_FM_send@@YAXHPAD@Z			; lssproto_FM_send
PUBLIC	?lssproto_PETST_send@@YAXHHH@Z			; lssproto_PETST_send
PUBLIC	?lssproto_BM_send@@YAXHH@Z			; lssproto_BM_send
PUBLIC	?lssproto_DM_send@@YAXH@Z			; lssproto_DM_send
PUBLIC	?lssproto_MA_send@@YAXHHHH@Z			; lssproto_MA_send
PUBLIC	?lssproto_KTEAM_send@@YAXHH@Z			; lssproto_KTEAM_send
PUBLIC	?lssproto_CHATROOM_send@@YAXHPAD@Z		; lssproto_CHATROOM_send
PUBLIC	?lssproto_RESIST_send@@YAXHPAD@Z		; lssproto_RESIST_send
PUBLIC	?lssproto_ALCHEPLUS_send@@YAXHPAD@Z		; lssproto_ALCHEPLUS_send
PUBLIC	?lssproto_BATTLESKILL_send@@YAXHH@Z		; lssproto_BATTLESKILL_send
PUBLIC	?lssproto_STREET_VENDOR_send@@YAXHPAD@Z		; lssproto_STREET_VENDOR_send
PUBLIC	?lssproto_JOBDAILY_send@@YAXHPAD@Z		; lssproto_JOBDAILY_send
PUBLIC	?lssproto_TEACHER_SYSTEM_send@@YAXHPAD@Z	; lssproto_TEACHER_SYSTEM_send
PUBLIC	?lssproto_PetItemEquip_send@@YAXHHHHHH@Z	; lssproto_PetItemEquip_send
PUBLIC	?lssproto_HostName_send@@YAXH@Z			; lssproto_HostName_send
PUBLIC	?LSSPROTO_203_SEND@@YAXHPAD@Z			; LSSPROTO_203_SEND
PUBLIC	?lssproto_MAMMOTH_START_send@@YAXHH@Z		; lssproto_MAMMOTH_START_send
PUBLIC	?lssproto_PETRANK_send@@YAXHH@Z			; lssproto_PETRANK_send
PUBLIC	?LogToRecvdata@@YAXPAD@Z			; LogToRecvdata
PUBLIC	?LogToSenddata@@YAXPAD@Z			; LogToSenddata
PUBLIC	??_C@_01ICJEACDI@?$DL@				; `string'
PUBLIC	??_C@_04PMOCAHAA@open@				; `string'
PUBLIC	??_C@_08NLHEDILN@ShiQiMax@			; `string'
PUBLIC	??_C@_0CB@FCFKGMLE@dJuTNIuFKWUoFEJanPWTqgAATxHhllt@ ; `string'
EXTRN	__imp__ShellExecuteA@24:PROC
EXTRN	_gethostname@8:PROC
EXTRN	?JL_?”Ë‚??‘Ù?¯–@@YAXXZ:PROC			; JL_?”Ë‚??‘Ù?¯–
EXTRN	?JL_resetRecv@@YAXXZ:PROC			; JL_resetRecv
EXTRN	?util_SplitMessage@@YAXPAD0@Z:PROC		; util_SplitMessage
EXTRN	?util_DecodeMessage@@YAXPAD0@Z:PROC		; util_DecodeMessage
EXTRN	?util_GetFunctionFromSlice@@YAHPAH0@Z:PROC	; util_GetFunctionFromSlice
EXTRN	?util_SendMesg@@YAXHHPAD@Z:PROC			; util_SendMesg
EXTRN	?util_deint@@YAHHPAH@Z:PROC			; util_deint
EXTRN	?util_mkint@@YAHPADH@Z:PROC			; util_mkint
EXTRN	?util_destring@@YAHHPAD@Z:PROC			; util_destring
EXTRN	?util_mkstring@@YAHPAD0@Z:PROC			; util_mkstring
EXTRN	?lssproto_DENGON_recv@@YAXPADHH@Z:PROC		; lssproto_DENGON_recv
EXTRN	?lssproto_XYD_recv@@YAXHHHH@Z:PROC		; lssproto_XYD_recv
EXTRN	?lssproto_EV_recv@@YAXHHH@Z:PROC		; lssproto_EV_recv
EXTRN	?lssproto_EN_recv@@YAXHHH@Z:PROC		; lssproto_EN_recv
EXTRN	?lssproto_RS_recv@@YAXHPAD@Z:PROC		; lssproto_RS_recv
EXTRN	?lssproto_RD_recv@@YAXHPAD@Z:PROC		; lssproto_RD_recv
EXTRN	?lssproto_B_recv@@YAXHPAD@Z:PROC		; lssproto_B_recv
EXTRN	?lssproto_I_recv@@YAXHPAD@Z:PROC		; lssproto_I_recv
EXTRN	?lssproto_SI_recv@@YAXHHH@Z:PROC		; lssproto_SI_recv
EXTRN	?lssproto_MSG_recv@@YAXHHPADH@Z:PROC		; lssproto_MSG_recv
EXTRN	?lssproto_PME_recv@@YAXHHHHHHHHPAD@Z:PROC	; lssproto_PME_recv
EXTRN	?lssproto_AB_recv@@YAXHPAD@Z:PROC		; lssproto_AB_recv
EXTRN	?lssproto_ABI_recv@@YAXHHPAD@Z:PROC		; lssproto_ABI_recv
EXTRN	?lssproto_TK_recv@@YAXHHPADH@Z:PROC		; lssproto_TK_recv
EXTRN	?lssproto_MC_recv@@YAXHHHHHHHHHPAD@Z:PROC	; lssproto_MC_recv
EXTRN	?lssproto_M_recv@@YAXHHHHHHPAD@Z:PROC		; lssproto_M_recv
EXTRN	?lssproto_C_recv@@YAXHPAD@Z:PROC		; lssproto_C_recv
EXTRN	?lssproto_CA_recv@@YAXHPAD@Z:PROC		; lssproto_CA_recv
EXTRN	?lssproto_CD_recv@@YAXHPAD@Z:PROC		; lssproto_CD_recv
EXTRN	?lssproto_R_recv@@YAXHPAD@Z:PROC		; lssproto_R_recv
EXTRN	?lssproto_S_recv@@YAXHPAD@Z:PROC		; lssproto_S_recv
EXTRN	?lssproto_D_recv@@YAXHHHHPAD@Z:PROC		; lssproto_D_recv
EXTRN	?lssproto_FS_recv@@YAXHH@Z:PROC			; lssproto_FS_recv
EXTRN	?lssproto_HL_recv@@YAXHH@Z:PROC			; lssproto_HL_recv
EXTRN	?lssproto_PR_recv@@YAXHHH@Z:PROC		; lssproto_PR_recv
EXTRN	?lssproto_KS_recv@@YAXHHH@Z:PROC		; lssproto_KS_recv
EXTRN	?lssproto_SPET_recv@@YAXHHH@Z:PROC		; lssproto_SPET_recv
EXTRN	?lssproto_PS_recv@@YAXHHHHH@Z:PROC		; lssproto_PS_recv
EXTRN	?lssproto_SKUP_recv@@YAXHH@Z:PROC		; lssproto_SKUP_recv
EXTRN	?lssproto_WN_recv@@YAXHHHHHPAD@Z:PROC		; lssproto_WN_recv
EXTRN	?lssproto_EF_recv@@YAXHHHPAD@Z:PROC		; lssproto_EF_recv
EXTRN	?lssproto_SE_recv@@YAXHHHHH@Z:PROC		; lssproto_SE_recv
EXTRN	?lssproto_ClientLogin_recv@@YAXHPAD@Z:PROC	; lssproto_ClientLogin_recv
EXTRN	?lssproto_CreateNewChar_recv@@YAXHPAD0@Z:PROC	; lssproto_CreateNewChar_recv
EXTRN	?lssproto_CharDelete_recv@@YAXHPAD0@Z:PROC	; lssproto_CharDelete_recv
EXTRN	?lssproto_CharLogin_recv@@YAXHPAD0@Z:PROC	; lssproto_CharLogin_recv
EXTRN	?lssproto_CharList_recv@@YAXHPAD0@Z:PROC	; lssproto_CharList_recv
EXTRN	?lssproto_CharLogout_recv@@YAXHPAD0@Z:PROC	; lssproto_CharLogout_recv
EXTRN	?lssproto_ProcGet_recv@@YAXHPAD@Z:PROC		; lssproto_ProcGet_recv
EXTRN	?lssproto_PlayerNumGet_recv@@YAXHHH@Z:PROC	; lssproto_PlayerNumGet_recv
EXTRN	?lssproto_Echo_recv@@YAXHPAD@Z:PROC		; lssproto_Echo_recv
EXTRN	?lssproto_NU_recv@@YAXHH@Z:PROC			; lssproto_NU_recv
EXTRN	?lssproto_TD_recv@@YAXHPAD@Z:PROC		; lssproto_TD_recv
EXTRN	?lssproto_FM_recv@@YAXHPAD@Z:PROC		; lssproto_FM_recv
EXTRN	?lssproto_WO_recv@@YAXHH@Z:PROC			; lssproto_WO_recv
EXTRN	?lssproto_IC_recv@@YAXHHH@Z:PROC		; lssproto_IC_recv
EXTRN	?lssproto_NC_recv@@YAXHH@Z:PROC			; lssproto_NC_recv
EXTRN	?lssproto_PETST_recv@@YAXHHH@Z:PROC		; lssproto_PETST_recv
EXTRN	?lssproto_CHATROOM_recv@@YAXHPAD@Z:PROC		; lssproto_CHATROOM_recv
EXTRN	?lssproto_RESIST_recv@@YAXHPAD@Z:PROC		; lssproto_RESIST_recv
EXTRN	?lssproto_ALCHEPLUS_recv@@YAXHPAD@Z:PROC	; lssproto_ALCHEPLUS_recv
EXTRN	?lssproto_BATTLESKILL_recv@@YAXHPAD@Z:PROC	; lssproto_BATTLESKILL_recv
EXTRN	?lssproto_STREET_VENDOR_recv@@YAXHPAD@Z:PROC	; lssproto_STREET_VENDOR_recv
EXTRN	?lssproto_JOBDAILY_recv@@YAXHPAD@Z:PROC		; lssproto_JOBDAILY_recv
EXTRN	?lssproto_TEACHER_SYSTEM_recv@@YAXHPAD@Z:PROC	; lssproto_TEACHER_SYSTEM_recv
EXTRN	?lssproto_S2_recv@@YAXHPAD@Z:PROC		; lssproto_S2_recv
EXTRN	?lssproto_Firework_recv@@YAXHHHH@Z:PROC		; lssproto_Firework_recv
EXTRN	?lssproto_CHAREFFECT_recv@@YAXHPAD@Z:PROC	; lssproto_CHAREFFECT_recv
EXTRN	?lssproto_BATTLEBUTTON_recv@@YAXHHH@Z:PROC	; lssproto_BATTLEBUTTON_recv
EXTRN	?lssproto_MAMMOTH_OPEN_recv@@YAXPAD@Z:PROC	; lssproto_MAMMOTH_OPEN_recv
EXTRN	?getMAC@@YAHPAD@Z:PROC				; getMAC
EXTRN	?getCpuId@@YAHPAD@Z:PROC			; getCpuId
EXTRN	__time64:PROC
EXTRN	?Get@Mammoth@@SAAAV1@XZ:PROC			; Mammoth::Get
EXTRN	?Receive@Mammoth@@QAEXH@Z:PROC			; Mammoth::Receive
EXTRN	?Instance@PetRanking@@SAAAV1@XZ:PROC		; PetRanking::Instance
EXTRN	?Recv@PetRanking@@QAEXPAD@Z:PROC		; PetRanking::Recv
EXTRN	?SkyIslandSetNo@@YAXH@Z:PROC			; SkyIslandSetNo
EXTRN	?lssproto_??Œ√?_recv@@YAXPAD@Z:PROC		; lssproto_??Œ√?_recv
EXTRN	@__security_check_cookie@4:PROC
EXTRN	__chkstk:PROC
EXTRN	_memset:PROC
EXTRN	?SliceCount@@3HA:DWORD				; SliceCount
EXTRN	?dwServer@@3KA:DWORD				; dwServer
EXTRN	?SelRoomBtn@@3FA:WORD				; SelRoomBtn
EXTRN	?g_‹◊?–Ô@@3HA:DWORD				; g_‹◊?–Ô
EXTRN	?SendCount@@3HA:DWORD				; SendCount
EXTRN	?g_pMappingRecv@@3PAHA:DWORD			; g_pMappingRecv
EXTRN	?passwd@@3USTR_BUFFER@@A:BYTE			; passwd
EXTRN	___security_cookie:DWORD
;	COMDAT ?old_time@?4??lssproto_CHATROOM_send@@YAXHPAD@Z@4IA
_BSS	SEGMENT
?old_time@?4??lssproto_CHATROOM_send@@YAXHPAD@Z@4IA DD 01H DUP (?) ; `lssproto_CHATROOM_send'::`5'::old_time
_BSS	ENDS
;	COMDAT ??_C@_0CB@FCFKGMLE@dJuTNIuFKWUoFEJanPWTqgAATxHhllt@
CONST	SEGMENT
??_C@_0CB@FCFKGMLE@dJuTNIuFKWUoFEJanPWTqgAATxHhllt@ DB 'dJuTNIuFKWUoFEJan'
	DB	'PWTqgAATxHhlltK', 00H			; `string'
CONST	ENDS
;	COMDAT ??_C@_08NLHEDILN@ShiQiMax@
CONST	SEGMENT
??_C@_08NLHEDILN@ShiQiMax@ DB 'ShiQiMax', 00H		; `string'
CONST	ENDS
;	COMDAT ??_C@_04PMOCAHAA@open@
CONST	SEGMENT
??_C@_04PMOCAHAA@open@ DB 'open', 00H			; `string'
CONST	ENDS
;	COMDAT ??_C@_01ICJEACDI@?$DL@
CONST	SEGMENT
??_C@_01ICJEACDI@?$DL@ DB ';', 00H			; `string'
CONST	ENDS
; Function compile flags: /Ogtp
; File C:\Users\gg862\OneDrive\πŸ≈¡ »≠∏È\∏æƒÌøœ∑·\Client Source Code1.31¿œ∫ª\NewProto\protocol.cpp
;	COMDAT ?LogToSenddata@@YAXPAD@Z
_TEXT	SEGMENT
_data$ = 8						; size = 4
?LogToSenddata@@YAXPAD@Z PROC				; LogToSenddata, COMDAT

; 39   : #if _LOG_MSG
; 40   : 	extern char lssproto_readlogfilename[];
; 41   : 	if(lssproto_readlogfilename[0] != '\0'){
; 42   : 		FILE *rfp;
; 43   : 		rfp = fopen(lssproto_readlogfilename, "a+");
; 44   : 		if(rfp){
; 45   : 			fprintf(rfp, "%s: ÈÄÅÂá∫Ôºö\t%s\n", pc.name, data);
; 46   : 			fclose(rfp);
; 47   : 		}
; 48   : 	}
; 49   : #endif
; 50   : }

  00000	c2 00 00	 ret	 0
?LogToSenddata@@YAXPAD@Z ENDP				; LogToSenddata
_TEXT	ENDS
; Function compile flags: /Ogtp
; File C:\Users\gg862\OneDrive\πŸ≈¡ »≠∏È\∏æƒÌøœ∑·\Client Source Code1.31¿œ∫ª\NewProto\protocol.cpp
;	COMDAT ?LogToRecvdata@@YAXPAD@Z
_TEXT	SEGMENT
_data$ = 8						; size = 4
?LogToRecvdata@@YAXPAD@Z PROC				; LogToRecvdata, COMDAT

; 24   : #ifdef _LOG_MSG
; 25   : 	extern char lssproto_readlogfilename[];
; 26   : 	if(lssproto_readlogfilename[0] != '\0'){
; 27   : 		FILE *rfp;
; 28   : 		rfp = fopen(lssproto_readlogfilename, "a+");
; 29   : 		if(rfp){
; 30   : 			fprintf(rfp, "%s: Êî∂Âà∞Ôºö\t%s\n", pc.name, data);
; 31   : 			fclose(rfp);
; 32   : 		}
; 33   : 	}
; 34   : #endif
; 35   : }

  00000	c2 00 00	 ret	 0
?LogToRecvdata@@YAXPAD@Z ENDP				; LogToRecvdata
_TEXT	ENDS
; Function compile flags: /Ogtp
; File C:\Users\gg862\OneDrive\πŸ≈¡ »≠∏È\∏æƒÌøœ∑·\Client Source Code1.31¿œ∫ª\NewProto\protocol.cpp
;	COMDAT ?lssproto_PETRANK_send@@YAXHH@Z
_TEXT	SEGMENT
_buffer$ = -16388					; size = 16384
__$ArrayPad$ = -4					; size = 4
_fd$ = 8						; size = 4
_petid$ = 12						; size = 4
?lssproto_PETRANK_send@@YAXHH@Z PROC			; lssproto_PETRANK_send, COMDAT

; 2634 : {

  00000	55		 push	 ebp
  00001	8b ec		 mov	 ebp, esp
  00003	b8 04 40 00 00	 mov	 eax, 16388		; 00004004H
  00008	e8 00 00 00 00	 call	 __chkstk
  0000d	a1 00 00 00 00	 mov	 eax, DWORD PTR ___security_cookie
  00012	33 c5		 xor	 eax, ebp
  00014	89 45 fc	 mov	 DWORD PTR __$ArrayPad$[ebp], eax
  00017	56		 push	 esi

; 2635 : 	char buffer[16384];
; 2636 : 	int iChecksum = 0;
; 2637 : 
; 2638 : 	buffer[0] = '\0';
; 2639 : 	iChecksum += util_mkint(buffer, petid);

  00018	ff 75 0c	 push	 DWORD PTR _petid$[ebp]
  0001b	8d 85 fc bf ff
	ff		 lea	 eax, DWORD PTR _buffer$[ebp]
  00021	c6 85 fc bf ff
	ff 00		 mov	 BYTE PTR _buffer$[ebp], 0
  00028	50		 push	 eax
  00029	e8 00 00 00 00	 call	 ?util_mkint@@YAHPADH@Z	; util_mkint
  0002e	83 c4 08	 add	 esp, 8
  00031	8b f0		 mov	 esi, eax

; 2640 : 
; 2641 : 	if (g_ÊúçÂä°Âô® == SERVER_Âè∞Êúç)

  00033	83 3d 00 00 00
	00 01		 cmp	 DWORD PTR ?g_‹◊?–Ô@@3HA, 1 ; g_‹◊?–Ô
  0003a	75 16		 jne	 SHORT $LN2@lssproto_P

; 2642 : 	{
; 2643 : 		iChecksum += util_mkint(buffer, intÂè∞ÊúçÂèëÂåÖ);

  0003c	8d 85 fc bf ff
	ff		 lea	 eax, DWORD PTR _buffer$[ebp]
  00042	68 21 ac 12 00	 push	 1223713			; 0012ac21H
  00047	50		 push	 eax
  00048	e8 00 00 00 00	 call	 ?util_mkint@@YAHPADH@Z	; util_mkint
  0004d	83 c4 08	 add	 esp, 8
  00050	03 f0		 add	 esi, eax
$LN2@lssproto_P:

; 2644 : 	}
; 2645 : 	util_mkint(buffer, iChecksum);

  00052	8d 85 fc bf ff
	ff		 lea	 eax, DWORD PTR _buffer$[ebp]
  00058	56		 push	 esi
  00059	50		 push	 eax
  0005a	e8 00 00 00 00	 call	 ?util_mkint@@YAHPADH@Z	; util_mkint

; 2646 : 	util_SendMesg(fd, LSSPROTO_PETRANK_SEND, buffer);  //0x46  70

  0005f	8d 85 fc bf ff
	ff		 lea	 eax, DWORD PTR _buffer$[ebp]
  00065	50		 push	 eax
  00066	68 f7 01 00 00	 push	 503			; 000001f7H
  0006b	ff 75 08	 push	 DWORD PTR _fd$[ebp]
  0006e	e8 00 00 00 00	 call	 ?util_SendMesg@@YAXHHPAD@Z ; util_SendMesg

; 2647 : }

  00073	8b 4d fc	 mov	 ecx, DWORD PTR __$ArrayPad$[ebp]
  00076	83 c4 14	 add	 esp, 20			; 00000014H
  00079	33 cd		 xor	 ecx, ebp
  0007b	5e		 pop	 esi
  0007c	e8 00 00 00 00	 call	 @__security_check_cookie@4
  00081	8b e5		 mov	 esp, ebp
  00083	5d		 pop	 ebp
  00084	c3		 ret	 0
?lssproto_PETRANK_send@@YAXHH@Z ENDP			; lssproto_PETRANK_send
_TEXT	ENDS
; Function compile flags: /Ogtp
; File C:\Users\gg862\OneDrive\πŸ≈¡ »≠∏È\∏æƒÌøœ∑·\Client Source Code1.31¿œ∫ª\NewProto\protocol.cpp
;	COMDAT ?lssproto_MAMMOTH_START_send@@YAXHH@Z
_TEXT	SEGMENT
_buffer$ = -16388					; size = 16384
__$ArrayPad$ = -4					; size = 4
_fd$ = 8						; size = 4
_counpon_index$ = 12					; size = 4
?lssproto_MAMMOTH_START_send@@YAXHH@Z PROC		; lssproto_MAMMOTH_START_send, COMDAT

; 2618 : {

  00000	55		 push	 ebp
  00001	8b ec		 mov	 ebp, esp
  00003	b8 04 40 00 00	 mov	 eax, 16388		; 00004004H
  00008	e8 00 00 00 00	 call	 __chkstk
  0000d	a1 00 00 00 00	 mov	 eax, DWORD PTR ___security_cookie
  00012	33 c5		 xor	 eax, ebp
  00014	89 45 fc	 mov	 DWORD PTR __$ArrayPad$[ebp], eax
  00017	56		 push	 esi

; 2619 : 	char buffer[16384];
; 2620 : 	int iChecksum = 0;
; 2621 : 
; 2622 : 	buffer[0] = '\0';
; 2623 : 	iChecksum += util_mkint(buffer, counpon_index);

  00018	ff 75 0c	 push	 DWORD PTR _counpon_index$[ebp]
  0001b	8d 85 fc bf ff
	ff		 lea	 eax, DWORD PTR _buffer$[ebp]
  00021	c6 85 fc bf ff
	ff 00		 mov	 BYTE PTR _buffer$[ebp], 0
  00028	50		 push	 eax
  00029	e8 00 00 00 00	 call	 ?util_mkint@@YAHPADH@Z	; util_mkint
  0002e	83 c4 08	 add	 esp, 8
  00031	8b f0		 mov	 esi, eax

; 2624 : 
; 2625 : 	if (g_ÊúçÂä°Âô® == SERVER_Âè∞Êúç)

  00033	83 3d 00 00 00
	00 01		 cmp	 DWORD PTR ?g_‹◊?–Ô@@3HA, 1 ; g_‹◊?–Ô
  0003a	75 16		 jne	 SHORT $LN2@lssproto_M

; 2626 : 	{
; 2627 : 		iChecksum += util_mkint(buffer, intÂè∞ÊúçÂèëÂåÖ);

  0003c	8d 85 fc bf ff
	ff		 lea	 eax, DWORD PTR _buffer$[ebp]
  00042	68 21 ac 12 00	 push	 1223713			; 0012ac21H
  00047	50		 push	 eax
  00048	e8 00 00 00 00	 call	 ?util_mkint@@YAHPADH@Z	; util_mkint
  0004d	83 c4 08	 add	 esp, 8
  00050	03 f0		 add	 esi, eax
$LN2@lssproto_M:

; 2628 : 	}
; 2629 : 	util_mkint(buffer, iChecksum);

  00052	8d 85 fc bf ff
	ff		 lea	 eax, DWORD PTR _buffer$[ebp]
  00058	56		 push	 esi
  00059	50		 push	 eax
  0005a	e8 00 00 00 00	 call	 ?util_mkint@@YAHPADH@Z	; util_mkint

; 2630 : 	util_SendMesg(fd, LSSPROTO_MAMMOTH_SEND, buffer);  //0x46  70

  0005f	8d 85 fc bf ff
	ff		 lea	 eax, DWORD PTR _buffer$[ebp]
  00065	50		 push	 eax
  00066	68 f4 01 00 00	 push	 500			; 000001f4H
  0006b	ff 75 08	 push	 DWORD PTR _fd$[ebp]
  0006e	e8 00 00 00 00	 call	 ?util_SendMesg@@YAXHHPAD@Z ; util_SendMesg

; 2631 : }

  00073	8b 4d fc	 mov	 ecx, DWORD PTR __$ArrayPad$[ebp]
  00076	83 c4 14	 add	 esp, 20			; 00000014H
  00079	33 cd		 xor	 ecx, ebp
  0007b	5e		 pop	 esi
  0007c	e8 00 00 00 00	 call	 @__security_check_cookie@4
  00081	8b e5		 mov	 esp, ebp
  00083	5d		 pop	 ebp
  00084	c3		 ret	 0
?lssproto_MAMMOTH_START_send@@YAXHH@Z ENDP		; lssproto_MAMMOTH_START_send
_TEXT	ENDS
; Function compile flags: /Ogtp
; File C:\Users\gg862\OneDrive\πŸ≈¡ »≠∏È\∏æƒÌøœ∑·\Client Source Code1.31¿œ∫ª\NewProto\protocol.cpp
;	COMDAT ?LSSPROTO_203_SEND@@YAXHPAD@Z
_TEXT	SEGMENT
_buffer$ = -16388					; size = 16384
__$ArrayPad$ = -4					; size = 4
_fd$ = 8						; size = 4
_data$ = 12						; size = 4
?LSSPROTO_203_SEND@@YAXHPAD@Z PROC			; LSSPROTO_203_SEND, COMDAT

; 2528 : {

  00000	55		 push	 ebp
  00001	8b ec		 mov	 ebp, esp
  00003	b8 04 40 00 00	 mov	 eax, 16388		; 00004004H
  00008	e8 00 00 00 00	 call	 __chkstk
  0000d	a1 00 00 00 00	 mov	 eax, DWORD PTR ___security_cookie
  00012	33 c5		 xor	 eax, ebp
  00014	89 45 fc	 mov	 DWORD PTR __$ArrayPad$[ebp], eax
  00017	8b 45 0c	 mov	 eax, DWORD PTR _data$[ebp]

; 2529 : 	char buffer[16384];
; 2530 : 	int iChecksum = 0;
; 2531 : 
; 2532 : 	buffer[0] = '\0';
; 2533 : 	iChecksum += util_mkstring(buffer, data);

  0001a	50		 push	 eax
  0001b	8d 85 fc bf ff
	ff		 lea	 eax, DWORD PTR _buffer$[ebp]
  00021	c6 85 fc bf ff
	ff 00		 mov	 BYTE PTR _buffer$[ebp], 0
  00028	50		 push	 eax
  00029	e8 00 00 00 00	 call	 ?util_mkstring@@YAHPAD0@Z ; util_mkstring

; 2534 : 	util_mkint(buffer, iChecksum);

  0002e	50		 push	 eax
  0002f	8d 85 fc bf ff
	ff		 lea	 eax, DWORD PTR _buffer$[ebp]
  00035	50		 push	 eax
  00036	e8 00 00 00 00	 call	 ?util_mkint@@YAHPADH@Z	; util_mkint

; 2535 : 	util_SendMesg(fd, LSSPROTO_Êü•ËØ¢ÂÖâÁéØ_SEND, buffer);

  0003b	8d 85 fc bf ff
	ff		 lea	 eax, DWORD PTR _buffer$[ebp]
  00041	50		 push	 eax
  00042	68 d4 00 00 00	 push	 212			; 000000d4H
  00047	ff 75 08	 push	 DWORD PTR _fd$[ebp]
  0004a	e8 00 00 00 00	 call	 ?util_SendMesg@@YAXHHPAD@Z ; util_SendMesg

; 2536 : }

  0004f	8b 4d fc	 mov	 ecx, DWORD PTR __$ArrayPad$[ebp]
  00052	83 c4 1c	 add	 esp, 28			; 0000001cH
  00055	33 cd		 xor	 ecx, ebp
  00057	e8 00 00 00 00	 call	 @__security_check_cookie@4
  0005c	8b e5		 mov	 esp, ebp
  0005e	5d		 pop	 ebp
  0005f	c3		 ret	 0
?LSSPROTO_203_SEND@@YAXHPAD@Z ENDP			; LSSPROTO_203_SEND
_TEXT	ENDS
; Function compile flags: /Ogtp
; File C:\Users\gg862\OneDrive\πŸ≈¡ »≠∏È\∏æƒÌøœ∑·\Client Source Code1.31¿œ∫ª\NewProto\protocol.cpp
;	COMDAT ?lssproto_HostName_send@@YAXH@Z
_TEXT	SEGMENT
_buffer$ = -16644					; size = 16384
_MyName$ = -260						; size = 255
__$ArrayPad$ = -4					; size = 4
_fd$ = 8						; size = 4
?lssproto_HostName_send@@YAXH@Z PROC			; lssproto_HostName_send, COMDAT

; 2510 : {

  00000	55		 push	 ebp
  00001	8b ec		 mov	 ebp, esp
  00003	b8 04 41 00 00	 mov	 eax, 16644		; 00004104H
  00008	e8 00 00 00 00	 call	 __chkstk
  0000d	a1 00 00 00 00	 mov	 eax, DWORD PTR ___security_cookie
  00012	33 c5		 xor	 eax, ebp
  00014	89 45 fc	 mov	 DWORD PTR __$ArrayPad$[ebp], eax

; 2511 : 	char buffer[16384];
; 2512 : 	int iChecksum=0,i;
; 2513 : 	buffer[0] = '\0';
; 2514 : 	char MyName[255];
; 2515 : 	gethostname(MyName,255);

  00017	68 ff 00 00 00	 push	 255			; 000000ffH
  0001c	8d 85 fc fe ff
	ff		 lea	 eax, DWORD PTR _MyName$[ebp]
  00022	c6 85 fc be ff
	ff 00		 mov	 BYTE PTR _buffer$[ebp], 0
  00029	50		 push	 eax
  0002a	e8 00 00 00 00	 call	 _gethostname@8

; 2516 : 
; 2517 : 	iChecksum += util_mkstring(buffer,MyName);

  0002f	8d 85 fc fe ff
	ff		 lea	 eax, DWORD PTR _MyName$[ebp]
  00035	50		 push	 eax
  00036	8d 85 fc be ff
	ff		 lea	 eax, DWORD PTR _buffer$[ebp]
  0003c	50		 push	 eax
  0003d	e8 00 00 00 00	 call	 ?util_mkstring@@YAHPAD0@Z ; util_mkstring

; 2518 : 
; 2519 : 	util_mkint(buffer,iChecksum);

  00042	50		 push	 eax
  00043	8d 85 fc be ff
	ff		 lea	 eax, DWORD PTR _buffer$[ebp]
  00049	50		 push	 eax
  0004a	e8 00 00 00 00	 call	 ?util_mkint@@YAHPADH@Z	; util_mkint

; 2520 : 	util_SendMesg(fd,LSSPROTO_HOSTNAME_SEND,buffer);

  0004f	8d 85 fc be ff
	ff		 lea	 eax, DWORD PTR _buffer$[ebp]
  00055	50		 push	 eax
  00056	68 81 00 00 00	 push	 129			; 00000081H
  0005b	ff 75 08	 push	 DWORD PTR _fd$[ebp]
  0005e	e8 00 00 00 00	 call	 ?util_SendMesg@@YAXHHPAD@Z ; util_SendMesg

; 2521 : 
; 2522 : }

  00063	8b 4d fc	 mov	 ecx, DWORD PTR __$ArrayPad$[ebp]
  00066	83 c4 1c	 add	 esp, 28			; 0000001cH
  00069	33 cd		 xor	 ecx, ebp
  0006b	e8 00 00 00 00	 call	 @__security_check_cookie@4
  00070	8b e5		 mov	 esp, ebp
  00072	5d		 pop	 ebp
  00073	c3		 ret	 0
?lssproto_HostName_send@@YAXH@Z ENDP			; lssproto_HostName_send
_TEXT	ENDS
; Function compile flags: /Ogtp
; File C:\Users\gg862\OneDrive\πŸ≈¡ »≠∏È\∏æƒÌøœ∑·\Client Source Code1.31¿œ∫ª\NewProto\protocol.cpp
;	COMDAT ?lssproto_PetItemEquip_send@@YAXHHHHHH@Z
_TEXT	SEGMENT
_szBuffer$ = -16388					; size = 16384
__$ArrayPad$ = -4					; size = 4
_fd$ = 8						; size = 4
_iGx$ = 12						; size = 4
_iGy$ = 16						; size = 4
_iPetNo$ = 20						; size = 4
_iItemNo$ = 24						; size = 4
_iDestNO$ = 28						; size = 4
?lssproto_PetItemEquip_send@@YAXHHHHHH@Z PROC		; lssproto_PetItemEquip_send, COMDAT

; 2493 : {

  00000	55		 push	 ebp
  00001	8b ec		 mov	 ebp, esp
  00003	b8 04 40 00 00	 mov	 eax, 16388		; 00004004H
  00008	e8 00 00 00 00	 call	 __chkstk
  0000d	a1 00 00 00 00	 mov	 eax, DWORD PTR ___security_cookie
  00012	33 c5		 xor	 eax, ebp
  00014	89 45 fc	 mov	 DWORD PTR __$ArrayPad$[ebp], eax
  00017	56		 push	 esi

; 2494 : 	char	szBuffer[16384];
; 2495 : 	int		iChecksum=0;
; 2496 : 
; 2497 : 	szBuffer[0] = '\0';
; 2498 : 	iChecksum += util_mkint(szBuffer, iGx);

  00018	ff 75 0c	 push	 DWORD PTR _iGx$[ebp]
  0001b	8d 85 fc bf ff
	ff		 lea	 eax, DWORD PTR _szBuffer$[ebp]
  00021	c6 85 fc bf ff
	ff 00		 mov	 BYTE PTR _szBuffer$[ebp], 0
  00028	50		 push	 eax
  00029	e8 00 00 00 00	 call	 ?util_mkint@@YAHPADH@Z	; util_mkint

; 2499 : 	iChecksum += util_mkint(szBuffer, iGy);

  0002e	ff 75 10	 push	 DWORD PTR _iGy$[ebp]
  00031	8b f0		 mov	 esi, eax
  00033	8d 85 fc bf ff
	ff		 lea	 eax, DWORD PTR _szBuffer$[ebp]
  00039	50		 push	 eax
  0003a	e8 00 00 00 00	 call	 ?util_mkint@@YAHPADH@Z	; util_mkint

; 2500 : 	iChecksum += util_mkint(szBuffer, iPetNo);

  0003f	ff 75 14	 push	 DWORD PTR _iPetNo$[ebp]
  00042	03 f0		 add	 esi, eax
  00044	8d 85 fc bf ff
	ff		 lea	 eax, DWORD PTR _szBuffer$[ebp]
  0004a	50		 push	 eax
  0004b	e8 00 00 00 00	 call	 ?util_mkint@@YAHPADH@Z	; util_mkint

; 2501 : 	iChecksum += util_mkint(szBuffer, iItemNo);

  00050	ff 75 18	 push	 DWORD PTR _iItemNo$[ebp]
  00053	03 f0		 add	 esi, eax
  00055	8d 85 fc bf ff
	ff		 lea	 eax, DWORD PTR _szBuffer$[ebp]
  0005b	50		 push	 eax
  0005c	e8 00 00 00 00	 call	 ?util_mkint@@YAHPADH@Z	; util_mkint

; 2502 : 	iChecksum += util_mkint(szBuffer, iDestNO);

  00061	ff 75 1c	 push	 DWORD PTR _iDestNO$[ebp]
  00064	03 f0		 add	 esi, eax
  00066	8d 85 fc bf ff
	ff		 lea	 eax, DWORD PTR _szBuffer$[ebp]
  0006c	50		 push	 eax
  0006d	e8 00 00 00 00	 call	 ?util_mkint@@YAHPADH@Z	; util_mkint
  00072	03 f0		 add	 esi, eax

; 2503 : 	util_mkint(szBuffer, iChecksum);

  00074	8d 85 fc bf ff
	ff		 lea	 eax, DWORD PTR _szBuffer$[ebp]
  0007a	56		 push	 esi
  0007b	50		 push	 eax
  0007c	e8 00 00 00 00	 call	 ?util_mkint@@YAHPADH@Z	; util_mkint

; 2504 : 	util_SendMesg(fd, LSSPROTO_PET_ITEM_EQUIP_SEND, szBuffer);

  00081	8d 85 fc bf ff
	ff		 lea	 eax, DWORD PTR _szBuffer$[ebp]
  00087	50		 push	 eax
  00088	6a 7f		 push	 127			; 0000007fH
  0008a	ff 75 08	 push	 DWORD PTR _fd$[ebp]
  0008d	e8 00 00 00 00	 call	 ?util_SendMesg@@YAXHHPAD@Z ; util_SendMesg

; 2505 : }

  00092	8b 4d fc	 mov	 ecx, DWORD PTR __$ArrayPad$[ebp]
  00095	83 c4 3c	 add	 esp, 60			; 0000003cH
  00098	33 cd		 xor	 ecx, ebp
  0009a	5e		 pop	 esi
  0009b	e8 00 00 00 00	 call	 @__security_check_cookie@4
  000a0	8b e5		 mov	 esp, ebp
  000a2	5d		 pop	 ebp
  000a3	c3		 ret	 0
?lssproto_PetItemEquip_send@@YAXHHHHHH@Z ENDP		; lssproto_PetItemEquip_send
_TEXT	ENDS
; Function compile flags: /Ogtp
; File C:\Users\gg862\OneDrive\πŸ≈¡ »≠∏È\∏æƒÌøœ∑·\Client Source Code1.31¿œ∫ª\NewProto\protocol.cpp
;	COMDAT ?lssproto_TEACHER_SYSTEM_send@@YAXHPAD@Z
_TEXT	SEGMENT
_buffer$ = -16388					; size = 16384
__$ArrayPad$ = -4					; size = 4
_fd$ = 8						; size = 4
_data$ = 12						; size = 4
?lssproto_TEACHER_SYSTEM_send@@YAXHPAD@Z PROC		; lssproto_TEACHER_SYSTEM_send, COMDAT

; 2474 : {

  00000	55		 push	 ebp
  00001	8b ec		 mov	 ebp, esp
  00003	b8 04 40 00 00	 mov	 eax, 16388		; 00004004H
  00008	e8 00 00 00 00	 call	 __chkstk
  0000d	a1 00 00 00 00	 mov	 eax, DWORD PTR ___security_cookie
  00012	33 c5		 xor	 eax, ebp
  00014	89 45 fc	 mov	 DWORD PTR __$ArrayPad$[ebp], eax
  00017	8b 45 0c	 mov	 eax, DWORD PTR _data$[ebp]
  0001a	56		 push	 esi

; 2475 : 	char buffer[16384];
; 2476 : 	int iChecksum=0;
; 2477 : 
; 2478 : 	buffer[0] = '\0';
; 2479 : 	iChecksum += util_mkstring(buffer,data);

  0001b	50		 push	 eax
  0001c	8d 85 fc bf ff
	ff		 lea	 eax, DWORD PTR _buffer$[ebp]
  00022	c6 85 fc bf ff
	ff 00		 mov	 BYTE PTR _buffer$[ebp], 0
  00029	50		 push	 eax
  0002a	e8 00 00 00 00	 call	 ?util_mkstring@@YAHPAD0@Z ; util_mkstring
  0002f	83 c4 08	 add	 esp, 8
  00032	8b f0		 mov	 esi, eax

; 2480 : 
; 2481 : 	if (g_ÊúçÂä°Âô® == SERVER_Âè∞Êúç)

  00034	83 3d 00 00 00
	00 01		 cmp	 DWORD PTR ?g_‹◊?–Ô@@3HA, 1 ; g_‹◊?–Ô
  0003b	75 16		 jne	 SHORT $LN2@lssproto_T

; 2482 : 	{
; 2483 : 		iChecksum += util_mkint(buffer, intÂè∞ÊúçÂèëÂåÖ);

  0003d	8d 85 fc bf ff
	ff		 lea	 eax, DWORD PTR _buffer$[ebp]
  00043	68 21 ac 12 00	 push	 1223713			; 0012ac21H
  00048	50		 push	 eax
  00049	e8 00 00 00 00	 call	 ?util_mkint@@YAHPADH@Z	; util_mkint
  0004e	83 c4 08	 add	 esp, 8
  00051	03 f0		 add	 esi, eax
$LN2@lssproto_T:

; 2484 : 	}
; 2485 : 
; 2486 : 	util_mkint(buffer,iChecksum);

  00053	8d 85 fc bf ff
	ff		 lea	 eax, DWORD PTR _buffer$[ebp]
  00059	56		 push	 esi
  0005a	50		 push	 eax
  0005b	e8 00 00 00 00	 call	 ?util_mkint@@YAHPADH@Z	; util_mkint

; 2487 : 	util_SendMesg(fd,LSSPROTO_TEACHER_SYSTEM_SEND,buffer);  //0x7a  122

  00060	8d 85 fc bf ff
	ff		 lea	 eax, DWORD PTR _buffer$[ebp]
  00066	50		 push	 eax
  00067	6a 7a		 push	 122			; 0000007aH
  00069	ff 75 08	 push	 DWORD PTR _fd$[ebp]
  0006c	e8 00 00 00 00	 call	 ?util_SendMesg@@YAXHHPAD@Z ; util_SendMesg

; 2488 : }

  00071	8b 4d fc	 mov	 ecx, DWORD PTR __$ArrayPad$[ebp]
  00074	83 c4 14	 add	 esp, 20			; 00000014H
  00077	33 cd		 xor	 ecx, ebp
  00079	5e		 pop	 esi
  0007a	e8 00 00 00 00	 call	 @__security_check_cookie@4
  0007f	8b e5		 mov	 esp, ebp
  00081	5d		 pop	 ebp
  00082	c3		 ret	 0
?lssproto_TEACHER_SYSTEM_send@@YAXHPAD@Z ENDP		; lssproto_TEACHER_SYSTEM_send
_TEXT	ENDS
; Function compile flags: /Ogtp
; File C:\Users\gg862\OneDrive\πŸ≈¡ »≠∏È\∏æƒÌøœ∑·\Client Source Code1.31¿œ∫ª\NewProto\protocol.cpp
;	COMDAT ?lssproto_JOBDAILY_send@@YAXHPAD@Z
_TEXT	SEGMENT
_buffer$ = -16388					; size = 16384
__$ArrayPad$ = -4					; size = 4
_fd$ = 8						; size = 4
_data$ = 12						; size = 4
?lssproto_JOBDAILY_send@@YAXHPAD@Z PROC			; lssproto_JOBDAILY_send, COMDAT

; 2455 : {

  00000	55		 push	 ebp
  00001	8b ec		 mov	 ebp, esp
  00003	b8 04 40 00 00	 mov	 eax, 16388		; 00004004H
  00008	e8 00 00 00 00	 call	 __chkstk
  0000d	a1 00 00 00 00	 mov	 eax, DWORD PTR ___security_cookie
  00012	33 c5		 xor	 eax, ebp
  00014	89 45 fc	 mov	 DWORD PTR __$ArrayPad$[ebp], eax
  00017	56		 push	 esi

; 2456 : 	char buffer[16384];
; 2457 : 	int iChecksum=0;

  00018	33 f6		 xor	 esi, esi

; 2458 : 
; 2459 : 	buffer[0] = '\0';

  0001a	c6 85 fc bf ff
	ff 00		 mov	 BYTE PTR _buffer$[ebp], 0

; 2460 : 
; 2461 : 	if (g_ÊúçÂä°Âô® == SERVER_Âè∞Êúç)

  00021	83 3d 00 00 00
	00 01		 cmp	 DWORD PTR ?g_‹◊?–Ô@@3HA, 1 ; g_‹◊?–Ô
  00028	57		 push	 edi
  00029	8b 7d 0c	 mov	 edi, DWORD PTR _data$[ebp]
  0002c	75 16		 jne	 SHORT $LN2@lssproto_J

; 2462 : 	{
; 2463 : 		iChecksum += util_mkint(buffer, intÂè∞ÊúçÂèëÂåÖ);

  0002e	8d 85 fc bf ff
	ff		 lea	 eax, DWORD PTR _buffer$[ebp]
  00034	68 21 ac 12 00	 push	 1223713			; 0012ac21H
  00039	50		 push	 eax
  0003a	e8 00 00 00 00	 call	 ?util_mkint@@YAHPADH@Z	; util_mkint
  0003f	83 c4 08	 add	 esp, 8
  00042	8b f0		 mov	 esi, eax
$LN2@lssproto_J:

; 2464 : 	}
; 2465 : 
; 2466 : 	iChecksum += util_mkstring(buffer, data);

  00044	8d 85 fc bf ff
	ff		 lea	 eax, DWORD PTR _buffer$[ebp]
  0004a	57		 push	 edi
  0004b	50		 push	 eax
  0004c	e8 00 00 00 00	 call	 ?util_mkstring@@YAHPAD0@Z ; util_mkstring
  00051	03 f0		 add	 esi, eax

; 2467 : 	util_mkint(buffer, iChecksum);

  00053	8d 85 fc bf ff
	ff		 lea	 eax, DWORD PTR _buffer$[ebp]
  00059	56		 push	 esi
  0005a	50		 push	 eax
  0005b	e8 00 00 00 00	 call	 ?util_mkint@@YAHPADH@Z	; util_mkint

; 2468 : 	util_SendMesg(fd, LSSPROTO_JOBDAILY_SEND, buffer);  //0x79  121

  00060	8d 85 fc bf ff
	ff		 lea	 eax, DWORD PTR _buffer$[ebp]
  00066	50		 push	 eax
  00067	6a 79		 push	 121			; 00000079H
  00069	ff 75 08	 push	 DWORD PTR _fd$[ebp]
  0006c	e8 00 00 00 00	 call	 ?util_SendMesg@@YAXHHPAD@Z ; util_SendMesg

; 2469 : }

  00071	8b 4d fc	 mov	 ecx, DWORD PTR __$ArrayPad$[ebp]
  00074	83 c4 1c	 add	 esp, 28			; 0000001cH
  00077	33 cd		 xor	 ecx, ebp
  00079	5f		 pop	 edi
  0007a	5e		 pop	 esi
  0007b	e8 00 00 00 00	 call	 @__security_check_cookie@4
  00080	8b e5		 mov	 esp, ebp
  00082	5d		 pop	 ebp
  00083	c3		 ret	 0
?lssproto_JOBDAILY_send@@YAXHPAD@Z ENDP			; lssproto_JOBDAILY_send
_TEXT	ENDS
; Function compile flags: /Ogtp
; File C:\Users\gg862\OneDrive\πŸ≈¡ »≠∏È\∏æƒÌøœ∑·\Client Source Code1.31¿œ∫ª\NewProto\protocol.cpp
;	COMDAT ?lssproto_STREET_VENDOR_send@@YAXHPAD@Z
_TEXT	SEGMENT
_buffer$ = -16388					; size = 16384
__$ArrayPad$ = -4					; size = 4
_fd$ = 8						; size = 4
_data$ = 12						; size = 4
?lssproto_STREET_VENDOR_send@@YAXHPAD@Z PROC		; lssproto_STREET_VENDOR_send, COMDAT

; 2436 : {

  00000	55		 push	 ebp
  00001	8b ec		 mov	 ebp, esp
  00003	b8 04 40 00 00	 mov	 eax, 16388		; 00004004H
  00008	e8 00 00 00 00	 call	 __chkstk
  0000d	a1 00 00 00 00	 mov	 eax, DWORD PTR ___security_cookie
  00012	33 c5		 xor	 eax, ebp
  00014	89 45 fc	 mov	 DWORD PTR __$ArrayPad$[ebp], eax
  00017	56		 push	 esi

; 2437 : 	char buffer[16384];
; 2438 : 	int iChecksum = 0;

  00018	33 f6		 xor	 esi, esi

; 2439 : 
; 2440 : 	buffer[0] = '\0';

  0001a	c6 85 fc bf ff
	ff 00		 mov	 BYTE PTR _buffer$[ebp], 0

; 2441 : 
; 2442 : 	if (g_ÊúçÂä°Âô® == SERVER_Âè∞Êúç)

  00021	83 3d 00 00 00
	00 01		 cmp	 DWORD PTR ?g_‹◊?–Ô@@3HA, 1 ; g_‹◊?–Ô
  00028	57		 push	 edi
  00029	8b 7d 0c	 mov	 edi, DWORD PTR _data$[ebp]
  0002c	75 16		 jne	 SHORT $LN2@lssproto_S

; 2443 : 	{
; 2444 : 		iChecksum += util_mkint(buffer, intÂè∞ÊúçÂèëÂåÖ);

  0002e	8d 85 fc bf ff
	ff		 lea	 eax, DWORD PTR _buffer$[ebp]
  00034	68 21 ac 12 00	 push	 1223713			; 0012ac21H
  00039	50		 push	 eax
  0003a	e8 00 00 00 00	 call	 ?util_mkint@@YAHPADH@Z	; util_mkint
  0003f	83 c4 08	 add	 esp, 8
  00042	8b f0		 mov	 esi, eax
$LN2@lssproto_S:

; 2445 : 	}
; 2446 : 
; 2447 : 	iChecksum += util_mkstring(buffer, data);

  00044	8d 85 fc bf ff
	ff		 lea	 eax, DWORD PTR _buffer$[ebp]
  0004a	57		 push	 edi
  0004b	50		 push	 eax
  0004c	e8 00 00 00 00	 call	 ?util_mkstring@@YAHPAD0@Z ; util_mkstring
  00051	03 f0		 add	 esi, eax

; 2448 : 	util_mkint(buffer,iChecksum);

  00053	8d 85 fc bf ff
	ff		 lea	 eax, DWORD PTR _buffer$[ebp]
  00059	56		 push	 esi
  0005a	50		 push	 eax
  0005b	e8 00 00 00 00	 call	 ?util_mkint@@YAHPADH@Z	; util_mkint

; 2449 : 	util_SendMesg(fd,LSSPROTO_STREET_VENDOR_SEND,buffer); //0x74 116

  00060	8d 85 fc bf ff
	ff		 lea	 eax, DWORD PTR _buffer$[ebp]
  00066	50		 push	 eax
  00067	6a 74		 push	 116			; 00000074H
  00069	ff 75 08	 push	 DWORD PTR _fd$[ebp]
  0006c	e8 00 00 00 00	 call	 ?util_SendMesg@@YAXHHPAD@Z ; util_SendMesg

; 2450 : }

  00071	8b 4d fc	 mov	 ecx, DWORD PTR __$ArrayPad$[ebp]
  00074	83 c4 1c	 add	 esp, 28			; 0000001cH
  00077	33 cd		 xor	 ecx, ebp
  00079	5f		 pop	 edi
  0007a	5e		 pop	 esi
  0007b	e8 00 00 00 00	 call	 @__security_check_cookie@4
  00080	8b e5		 mov	 esp, ebp
  00082	5d		 pop	 ebp
  00083	c3		 ret	 0
?lssproto_STREET_VENDOR_send@@YAXHPAD@Z ENDP		; lssproto_STREET_VENDOR_send
_TEXT	ENDS
; Function compile flags: /Ogtp
; File C:\Users\gg862\OneDrive\πŸ≈¡ »≠∏È\∏æƒÌøœ∑·\Client Source Code1.31¿œ∫ª\NewProto\protocol.cpp
;	COMDAT ?lssproto_BATTLESKILL_send@@YAXHH@Z
_TEXT	SEGMENT
_buffer$ = -16388					; size = 16384
__$ArrayPad$ = -4					; size = 4
_fd$ = 8						; size = 4
_SkillNum$ = 12						; size = 4
?lssproto_BATTLESKILL_send@@YAXHH@Z PROC		; lssproto_BATTLESKILL_send, COMDAT

; 2330 : {

  00000	55		 push	 ebp
  00001	8b ec		 mov	 ebp, esp
  00003	b8 04 40 00 00	 mov	 eax, 16388		; 00004004H
  00008	e8 00 00 00 00	 call	 __chkstk
  0000d	a1 00 00 00 00	 mov	 eax, DWORD PTR ___security_cookie
  00012	33 c5		 xor	 eax, ebp
  00014	89 45 fc	 mov	 DWORD PTR __$ArrayPad$[ebp], eax
  00017	56		 push	 esi

; 2331 : 	char buffer[16384];
; 2332 : 	int iChecksum=0;
; 2333 : 	buffer[0] = '\0';
; 2334 : 	iChecksum += util_mkint(buffer, SkillNum);	

  00018	ff 75 0c	 push	 DWORD PTR _SkillNum$[ebp]
  0001b	8d 85 fc bf ff
	ff		 lea	 eax, DWORD PTR _buffer$[ebp]
  00021	c6 85 fc bf ff
	ff 00		 mov	 BYTE PTR _buffer$[ebp], 0
  00028	50		 push	 eax
  00029	e8 00 00 00 00	 call	 ?util_mkint@@YAHPADH@Z	; util_mkint
  0002e	83 c4 08	 add	 esp, 8
  00031	8b f0		 mov	 esi, eax

; 2335 : 	if (g_ÊúçÂä°Âô® == SERVER_Âè∞Êúç)

  00033	83 3d 00 00 00
	00 01		 cmp	 DWORD PTR ?g_‹◊?–Ô@@3HA, 1 ; g_‹◊?–Ô
  0003a	75 16		 jne	 SHORT $LN2@lssproto_B

; 2336 : 	{
; 2337 : 		iChecksum += util_mkint(buffer, intÂè∞ÊúçÂèëÂåÖ);

  0003c	8d 85 fc bf ff
	ff		 lea	 eax, DWORD PTR _buffer$[ebp]
  00042	68 21 ac 12 00	 push	 1223713			; 0012ac21H
  00047	50		 push	 eax
  00048	e8 00 00 00 00	 call	 ?util_mkint@@YAHPADH@Z	; util_mkint
  0004d	83 c4 08	 add	 esp, 8
  00050	03 f0		 add	 esi, eax
$LN2@lssproto_B:

; 2338 : 	}
; 2339 : 	util_mkint(buffer, iChecksum);	

  00052	8d 85 fc bf ff
	ff		 lea	 eax, DWORD PTR _buffer$[ebp]
  00058	56		 push	 esi
  00059	50		 push	 eax
  0005a	e8 00 00 00 00	 call	 ?util_mkint@@YAHPADH@Z	; util_mkint

; 2340 : 	util_SendMesg(fd, LSSPROTO_BATTLESKILL_SEND, buffer); //6E 110

  0005f	8d 85 fc bf ff
	ff		 lea	 eax, DWORD PTR _buffer$[ebp]
  00065	50		 push	 eax
  00066	6a 6e		 push	 110			; 0000006eH
  00068	ff 75 08	 push	 DWORD PTR _fd$[ebp]
  0006b	e8 00 00 00 00	 call	 ?util_SendMesg@@YAXHHPAD@Z ; util_SendMesg

; 2341 : }

  00070	8b 4d fc	 mov	 ecx, DWORD PTR __$ArrayPad$[ebp]
  00073	83 c4 14	 add	 esp, 20			; 00000014H
  00076	33 cd		 xor	 ecx, ebp
  00078	5e		 pop	 esi
  00079	e8 00 00 00 00	 call	 @__security_check_cookie@4
  0007e	8b e5		 mov	 esp, ebp
  00080	5d		 pop	 ebp
  00081	c3		 ret	 0
?lssproto_BATTLESKILL_send@@YAXHH@Z ENDP		; lssproto_BATTLESKILL_send
_TEXT	ENDS
; Function compile flags: /Ogtp
; File C:\Users\gg862\OneDrive\πŸ≈¡ »≠∏È\∏æƒÌøœ∑·\Client Source Code1.31¿œ∫ª\NewProto\protocol.cpp
;	COMDAT ?lssproto_ALCHEPLUS_send@@YAXHPAD@Z
_TEXT	SEGMENT
_buffer$ = -16388					; size = 16384
__$ArrayPad$ = -4					; size = 4
_fd$ = 8						; size = 4
_data$ = 12						; size = 4
?lssproto_ALCHEPLUS_send@@YAXHPAD@Z PROC		; lssproto_ALCHEPLUS_send, COMDAT

; 2317 : {

  00000	55		 push	 ebp
  00001	8b ec		 mov	 ebp, esp
  00003	b8 04 40 00 00	 mov	 eax, 16388		; 00004004H
  00008	e8 00 00 00 00	 call	 __chkstk
  0000d	a1 00 00 00 00	 mov	 eax, DWORD PTR ___security_cookie
  00012	33 c5		 xor	 eax, ebp
  00014	89 45 fc	 mov	 DWORD PTR __$ArrayPad$[ebp], eax
  00017	8b 45 0c	 mov	 eax, DWORD PTR _data$[ebp]

; 2318 : 	char buffer[16384];
; 2319 : 	int iChecksum=0;
; 2320 : 
; 2321 : 	buffer[0] = '\0';
; 2322 : 	iChecksum += util_mkstring(buffer, data);

  0001a	50		 push	 eax
  0001b	8d 85 fc bf ff
	ff		 lea	 eax, DWORD PTR _buffer$[ebp]
  00021	c6 85 fc bf ff
	ff 00		 mov	 BYTE PTR _buffer$[ebp], 0
  00028	50		 push	 eax
  00029	e8 00 00 00 00	 call	 ?util_mkstring@@YAHPAD0@Z ; util_mkstring

; 2323 : 	util_mkint(buffer, iChecksum);

  0002e	50		 push	 eax
  0002f	8d 85 fc bf ff
	ff		 lea	 eax, DWORD PTR _buffer$[ebp]
  00035	50		 push	 eax
  00036	e8 00 00 00 00	 call	 ?util_mkint@@YAHPADH@Z	; util_mkint

; 2324 : 	util_SendMesg(fd, LSSPROTO_ALCHEPLUS_SEND, buffer);

  0003b	8d 85 fc bf ff
	ff		 lea	 eax, DWORD PTR _buffer$[ebp]
  00041	50		 push	 eax
  00042	68 87 00 00 00	 push	 135			; 00000087H
  00047	ff 75 08	 push	 DWORD PTR _fd$[ebp]
  0004a	e8 00 00 00 00	 call	 ?util_SendMesg@@YAXHHPAD@Z ; util_SendMesg

; 2325 : }

  0004f	8b 4d fc	 mov	 ecx, DWORD PTR __$ArrayPad$[ebp]
  00052	83 c4 1c	 add	 esp, 28			; 0000001cH
  00055	33 cd		 xor	 ecx, ebp
  00057	e8 00 00 00 00	 call	 @__security_check_cookie@4
  0005c	8b e5		 mov	 esp, ebp
  0005e	5d		 pop	 ebp
  0005f	c3		 ret	 0
?lssproto_ALCHEPLUS_send@@YAXHPAD@Z ENDP		; lssproto_ALCHEPLUS_send
_TEXT	ENDS
; Function compile flags: /Ogtp
; File C:\Users\gg862\OneDrive\πŸ≈¡ »≠∏È\∏æƒÌøœ∑·\Client Source Code1.31¿œ∫ª\NewProto\protocol.cpp
;	COMDAT ?lssproto_RESIST_send@@YAXHPAD@Z
_TEXT	SEGMENT
_buffer$ = -16388					; size = 16384
__$ArrayPad$ = -4					; size = 4
_fd$ = 8						; size = 4
_data$ = 12						; size = 4
?lssproto_RESIST_send@@YAXHPAD@Z PROC			; lssproto_RESIST_send, COMDAT

; 2304 : {

  00000	55		 push	 ebp
  00001	8b ec		 mov	 ebp, esp
  00003	b8 04 40 00 00	 mov	 eax, 16388		; 00004004H
  00008	e8 00 00 00 00	 call	 __chkstk
  0000d	a1 00 00 00 00	 mov	 eax, DWORD PTR ___security_cookie
  00012	33 c5		 xor	 eax, ebp
  00014	89 45 fc	 mov	 DWORD PTR __$ArrayPad$[ebp], eax
  00017	8b 45 0c	 mov	 eax, DWORD PTR _data$[ebp]

; 2305 : 	char buffer[16384];
; 2306 : 	int iChecksum=0;
; 2307 : 
; 2308 : 	buffer[0] = '\0';
; 2309 : 	iChecksum += util_mkstring(buffer, data);

  0001a	50		 push	 eax
  0001b	8d 85 fc bf ff
	ff		 lea	 eax, DWORD PTR _buffer$[ebp]
  00021	c6 85 fc bf ff
	ff 00		 mov	 BYTE PTR _buffer$[ebp], 0
  00028	50		 push	 eax
  00029	e8 00 00 00 00	 call	 ?util_mkstring@@YAHPAD0@Z ; util_mkstring

; 2310 : 	util_mkint(buffer, iChecksum);

  0002e	50		 push	 eax
  0002f	8d 85 fc bf ff
	ff		 lea	 eax, DWORD PTR _buffer$[ebp]
  00035	50		 push	 eax
  00036	e8 00 00 00 00	 call	 ?util_mkint@@YAHPADH@Z	; util_mkint

; 2311 : 	util_SendMesg(fd, LSSPROTO_RESIST_SEND, buffer);

  0003b	8d 85 fc bf ff
	ff		 lea	 eax, DWORD PTR _buffer$[ebp]
  00041	50		 push	 eax
  00042	6a 6c		 push	 108			; 0000006cH
  00044	ff 75 08	 push	 DWORD PTR _fd$[ebp]
  00047	e8 00 00 00 00	 call	 ?util_SendMesg@@YAXHHPAD@Z ; util_SendMesg

; 2312 : }

  0004c	8b 4d fc	 mov	 ecx, DWORD PTR __$ArrayPad$[ebp]
  0004f	83 c4 1c	 add	 esp, 28			; 0000001cH
  00052	33 cd		 xor	 ecx, ebp
  00054	e8 00 00 00 00	 call	 @__security_check_cookie@4
  00059	8b e5		 mov	 esp, ebp
  0005b	5d		 pop	 ebp
  0005c	c3		 ret	 0
?lssproto_RESIST_send@@YAXHPAD@Z ENDP			; lssproto_RESIST_send
_TEXT	ENDS
; Function compile flags: /Ogtp
; File C:\Users\gg862\OneDrive\πŸ≈¡ »≠∏È\∏æƒÌøœ∑·\Client Source Code1.31¿œ∫ª\NewProto\protocol.cpp
; File C:\Program Files (x86)\Windows Kits\10\Include\10.0.18362.0\ucrt\time.h
; File C:\Users\gg862\OneDrive\πŸ≈¡ »≠∏È\∏æƒÌøœ∑·\Client Source Code1.31¿œ∫ª\NewProto\protocol.cpp
;	COMDAT ?lssproto_CHATROOM_send@@YAXHPAD@Z
_TEXT	SEGMENT
_buffer$ = -16388					; size = 16384
__$ArrayPad$ = -4					; size = 4
_fd$ = 8						; size = 4
_data$ = 12						; size = 4
?lssproto_CHATROOM_send@@YAXHPAD@Z PROC			; lssproto_CHATROOM_send, COMDAT

; 2276 : {

  00000	55		 push	 ebp
  00001	8b ec		 mov	 ebp, esp
  00003	b8 04 40 00 00	 mov	 eax, 16388		; 00004004H
  00008	e8 00 00 00 00	 call	 __chkstk
  0000d	a1 00 00 00 00	 mov	 eax, DWORD PTR ___security_cookie
  00012	33 c5		 xor	 eax, ebp
  00014	89 45 fc	 mov	 DWORD PTR __$ArrayPad$[ebp], eax
  00017	56		 push	 esi
  00018	57		 push	 edi
  00019	8b 7d 0c	 mov	 edi, DWORD PTR _data$[ebp]

; 2277 : 	char buffer[16384] = {0};

  0001c	8d 85 fc bf ff
	ff		 lea	 eax, DWORD PTR _buffer$[ebp]
  00022	68 00 40 00 00	 push	 16384			; 00004000H
  00027	6a 00		 push	 0
  00029	50		 push	 eax
  0002a	e8 00 00 00 00	 call	 _memset
  0002f	83 c4 0c	 add	 esp, 12			; 0000000cH

; 2278 : 	int iChecksum=0;

  00032	33 f6		 xor	 esi, esi

; 2279 : 
; 2280 : 	// WON FIX	Èò≤Ê≠¢‰º†ÈÄÅÂ§™È¢ëÁπÅ
; 2281 : 	if( data[0] == 'B' ){

  00034	80 3f 42	 cmp	 BYTE PTR [edi], 66	; 00000042H
  00037	75 34		 jne	 SHORT $LN2@lssproto_C
; File C:\Program Files (x86)\Windows Kits\10\Include\10.0.18362.0\ucrt\time.h

; 536  :             return _time64(_Time);

  00039	56		 push	 esi
  0003a	e8 00 00 00 00	 call	 __time64
  0003f	83 c4 04	 add	 esp, 4
; File C:\Users\gg862\OneDrive\πŸ≈¡ »≠∏È\∏æƒÌøœ∑·\Client Source Code1.31¿œ∫ª\NewProto\protocol.cpp

; 2285 : 		if( now_time < old_time ){

  00042	3b 05 00 00 00
	00		 cmp	 eax, DWORD PTR ?old_time@?4??lssproto_CHATROOM_send@@YAXHPAD@Z@4IA
  00048	73 1b		 jae	 SHORT $LN3@lssproto_C

; 2286 : 			SelRoomBtn = 1;	

  0004a	b8 01 00 00 00	 mov	 eax, 1
  0004f	5f		 pop	 edi
  00050	66 a3 00 00 00
	00		 mov	 WORD PTR ?SelRoomBtn@@3FA, ax ; SelRoomBtn

; 2299 : }

  00056	5e		 pop	 esi
  00057	8b 4d fc	 mov	 ecx, DWORD PTR __$ArrayPad$[ebp]
  0005a	33 cd		 xor	 ecx, ebp
  0005c	e8 00 00 00 00	 call	 @__security_check_cookie@4
  00061	8b e5		 mov	 esp, ebp
  00063	5d		 pop	 ebp
  00064	c3		 ret	 0
$LN3@lssproto_C:

; 2287 : 			return;
; 2288 : 		}
; 2289 : 		old_time = now_time + 2; // delay 2 Áßí

  00065	83 c0 02	 add	 eax, 2
  00068	a3 00 00 00 00	 mov	 DWORD PTR ?old_time@?4??lssproto_CHATROOM_send@@YAXHPAD@Z@4IA, eax
$LN2@lssproto_C:

; 2290 : 	}
; 2291 : 
; 2292 : 	if (g_ÊúçÂä°Âô® == SERVER_Âè∞Êúç)

  0006d	83 3d 00 00 00
	00 01		 cmp	 DWORD PTR ?g_‹◊?–Ô@@3HA, 1 ; g_‹◊?–Ô
  00074	75 16		 jne	 SHORT $LN4@lssproto_C

; 2293 : 	{
; 2294 : 		iChecksum += util_mkint(buffer, intÂè∞ÊúçÂèëÂåÖ);

  00076	8d 85 fc bf ff
	ff		 lea	 eax, DWORD PTR _buffer$[ebp]
  0007c	68 21 ac 12 00	 push	 1223713			; 0012ac21H
  00081	50		 push	 eax
  00082	e8 00 00 00 00	 call	 ?util_mkint@@YAHPADH@Z	; util_mkint
  00087	83 c4 08	 add	 esp, 8
  0008a	8b f0		 mov	 esi, eax
$LN4@lssproto_C:

; 2295 : 	}
; 2296 : 	iChecksum += util_mkstring(buffer, data);

  0008c	8d 85 fc bf ff
	ff		 lea	 eax, DWORD PTR _buffer$[ebp]
  00092	57		 push	 edi
  00093	50		 push	 eax
  00094	e8 00 00 00 00	 call	 ?util_mkstring@@YAHPAD0@Z ; util_mkstring
  00099	03 f0		 add	 esi, eax

; 2297 : 	util_mkint(buffer, iChecksum);

  0009b	8d 85 fc bf ff
	ff		 lea	 eax, DWORD PTR _buffer$[ebp]
  000a1	56		 push	 esi
  000a2	50		 push	 eax
  000a3	e8 00 00 00 00	 call	 ?util_mkint@@YAHPADH@Z	; util_mkint

; 2298 : 	util_SendMesg(fd, LSSPROTO_CHATROOM_SEND, buffer); // 0x70 112

  000a8	8d 85 fc bf ff
	ff		 lea	 eax, DWORD PTR _buffer$[ebp]
  000ae	50		 push	 eax
  000af	6a 70		 push	 112			; 00000070H
  000b1	ff 75 08	 push	 DWORD PTR _fd$[ebp]
  000b4	e8 00 00 00 00	 call	 ?util_SendMesg@@YAXHHPAD@Z ; util_SendMesg

; 2299 : }

  000b9	8b 4d fc	 mov	 ecx, DWORD PTR __$ArrayPad$[ebp]
  000bc	83 c4 1c	 add	 esp, 28			; 0000001cH
  000bf	33 cd		 xor	 ecx, ebp
  000c1	5f		 pop	 edi
  000c2	5e		 pop	 esi
  000c3	e8 00 00 00 00	 call	 @__security_check_cookie@4
  000c8	8b e5		 mov	 esp, ebp
  000ca	5d		 pop	 ebp
  000cb	c3		 ret	 0
?lssproto_CHATROOM_send@@YAXHPAD@Z ENDP			; lssproto_CHATROOM_send
_TEXT	ENDS
; Function compile flags: /Ogtp
; File C:\Users\gg862\OneDrive\πŸ≈¡ »≠∏È\∏æƒÌøœ∑·\Client Source Code1.31¿œ∫ª\NewProto\protocol.cpp
;	COMDAT ?lssproto_KTEAM_send@@YAXHH@Z
_TEXT	SEGMENT
_buffer$ = -16388					; size = 16384
__$ArrayPad$ = -4					; size = 4
_fd$ = 8						; size = 4
_si$ = 12						; size = 4
?lssproto_KTEAM_send@@YAXHH@Z PROC			; lssproto_KTEAM_send, COMDAT

; 1644 : {

  00000	55		 push	 ebp
  00001	8b ec		 mov	 ebp, esp
  00003	b8 04 40 00 00	 mov	 eax, 16388		; 00004004H
  00008	e8 00 00 00 00	 call	 __chkstk
  0000d	a1 00 00 00 00	 mov	 eax, DWORD PTR ___security_cookie
  00012	33 c5		 xor	 eax, ebp
  00014	89 45 fc	 mov	 DWORD PTR __$ArrayPad$[ebp], eax

; 1645 : 	char buffer[16384];
; 1646 : 	int iChecksum=0;
; 1647 : 	buffer[0] = '\0';
; 1648 : 	iChecksum += util_mkint(buffer, si);

  00017	ff 75 0c	 push	 DWORD PTR _si$[ebp]
  0001a	8d 85 fc bf ff
	ff		 lea	 eax, DWORD PTR _buffer$[ebp]
  00020	c6 85 fc bf ff
	ff 00		 mov	 BYTE PTR _buffer$[ebp], 0
  00027	50		 push	 eax
  00028	e8 00 00 00 00	 call	 ?util_mkint@@YAHPADH@Z	; util_mkint

; 1649 : 	util_mkint(buffer, iChecksum);

  0002d	50		 push	 eax
  0002e	8d 85 fc bf ff
	ff		 lea	 eax, DWORD PTR _buffer$[ebp]
  00034	50		 push	 eax
  00035	e8 00 00 00 00	 call	 ?util_mkint@@YAHPADH@Z	; util_mkint

; 1650 : 	util_SendMesg(fd, LSSPROTO_KTEAM_SEND, buffer);

  0003a	8d 85 fc bf ff
	ff		 lea	 eax, DWORD PTR _buffer$[ebp]
  00040	50		 push	 eax
  00041	6a 6a		 push	 106			; 0000006aH
  00043	ff 75 08	 push	 DWORD PTR _fd$[ebp]
  00046	e8 00 00 00 00	 call	 ?util_SendMesg@@YAXHHPAD@Z ; util_SendMesg

; 1651 : }

  0004b	8b 4d fc	 mov	 ecx, DWORD PTR __$ArrayPad$[ebp]
  0004e	83 c4 1c	 add	 esp, 28			; 0000001cH
  00051	33 cd		 xor	 ecx, ebp
  00053	e8 00 00 00 00	 call	 @__security_check_cookie@4
  00058	8b e5		 mov	 esp, ebp
  0005a	5d		 pop	 ebp
  0005b	c3		 ret	 0
?lssproto_KTEAM_send@@YAXHH@Z ENDP			; lssproto_KTEAM_send
_TEXT	ENDS
; Function compile flags: /Ogtp
; File C:\Users\gg862\OneDrive\πŸ≈¡ »≠∏È\∏æƒÌøœ∑·\Client Source Code1.31¿œ∫ª\NewProto\protocol.cpp
;	COMDAT ?lssproto_MA_send@@YAXHHHH@Z
_TEXT	SEGMENT
_buffer$ = -16388					; size = 16384
__$ArrayPad$ = -4					; size = 4
_fd$ = 8						; size = 4
_x$ = 12						; size = 4
_y$ = 16						; size = 4
_nMind$ = 20						; size = 4
?lssproto_MA_send@@YAXHHHH@Z PROC			; lssproto_MA_send, COMDAT

; 2416 : {

  00000	55		 push	 ebp
  00001	8b ec		 mov	 ebp, esp
  00003	b8 04 40 00 00	 mov	 eax, 16388		; 00004004H
  00008	e8 00 00 00 00	 call	 __chkstk
  0000d	a1 00 00 00 00	 mov	 eax, DWORD PTR ___security_cookie
  00012	33 c5		 xor	 eax, ebp
  00014	89 45 fc	 mov	 DWORD PTR __$ArrayPad$[ebp], eax
  00017	56		 push	 esi

; 2417 : 	char buffer[16384];
; 2418 : 	int iChecksum=0;
; 2419 : 	buffer[0] = '\0';
; 2420 : 	iChecksum += util_mkint(buffer, nMind);	

  00018	ff 75 14	 push	 DWORD PTR _nMind$[ebp]
  0001b	8d 85 fc bf ff
	ff		 lea	 eax, DWORD PTR _buffer$[ebp]
  00021	c6 85 fc bf ff
	ff 00		 mov	 BYTE PTR _buffer$[ebp], 0
  00028	50		 push	 eax
  00029	e8 00 00 00 00	 call	 ?util_mkint@@YAHPADH@Z	; util_mkint

; 2421 : 	iChecksum += util_mkint(buffer, x);	

  0002e	ff 75 0c	 push	 DWORD PTR _x$[ebp]
  00031	8b f0		 mov	 esi, eax
  00033	8d 85 fc bf ff
	ff		 lea	 eax, DWORD PTR _buffer$[ebp]
  00039	50		 push	 eax
  0003a	e8 00 00 00 00	 call	 ?util_mkint@@YAHPADH@Z	; util_mkint
  0003f	83 c4 10	 add	 esp, 16			; 00000010H
  00042	03 f0		 add	 esi, eax

; 2422 : 
; 2423 : 	if (g_ÊúçÂä°Âô® == SERVER_Âè∞Êúç)

  00044	83 3d 00 00 00
	00 01		 cmp	 DWORD PTR ?g_‹◊?–Ô@@3HA, 1 ; g_‹◊?–Ô
  0004b	75 16		 jne	 SHORT $LN2@lssproto_M

; 2424 : 	{
; 2425 : 		iChecksum += util_mkint(buffer, intÂè∞ÊúçÂèëÂåÖ);

  0004d	8d 85 fc bf ff
	ff		 lea	 eax, DWORD PTR _buffer$[ebp]
  00053	68 21 ac 12 00	 push	 1223713			; 0012ac21H
  00058	50		 push	 eax
  00059	e8 00 00 00 00	 call	 ?util_mkint@@YAHPADH@Z	; util_mkint
  0005e	83 c4 08	 add	 esp, 8
  00061	03 f0		 add	 esi, eax
$LN2@lssproto_M:

; 2426 : 	}
; 2427 : 
; 2428 : 	iChecksum += util_mkint(buffer, y);	

  00063	ff 75 10	 push	 DWORD PTR _y$[ebp]
  00066	8d 85 fc bf ff
	ff		 lea	 eax, DWORD PTR _buffer$[ebp]
  0006c	50		 push	 eax
  0006d	e8 00 00 00 00	 call	 ?util_mkint@@YAHPADH@Z	; util_mkint
  00072	03 f0		 add	 esi, eax

; 2429 : 	util_mkint(buffer, iChecksum);	

  00074	8d 85 fc bf ff
	ff		 lea	 eax, DWORD PTR _buffer$[ebp]
  0007a	56		 push	 esi
  0007b	50		 push	 eax
  0007c	e8 00 00 00 00	 call	 ?util_mkint@@YAHPADH@Z	; util_mkint

; 2430 : 	util_SendMesg(fd, LSSPROTO_MA_SEND, buffer);  //0x62  98

  00081	8d 85 fc bf ff
	ff		 lea	 eax, DWORD PTR _buffer$[ebp]
  00087	50		 push	 eax
  00088	6a 62		 push	 98			; 00000062H
  0008a	ff 75 08	 push	 DWORD PTR _fd$[ebp]
  0008d	e8 00 00 00 00	 call	 ?util_SendMesg@@YAXHHPAD@Z ; util_SendMesg

; 2431 : }

  00092	8b 4d fc	 mov	 ecx, DWORD PTR __$ArrayPad$[ebp]
  00095	83 c4 1c	 add	 esp, 28			; 0000001cH
  00098	33 cd		 xor	 ecx, ebp
  0009a	5e		 pop	 esi
  0009b	e8 00 00 00 00	 call	 @__security_check_cookie@4
  000a0	8b e5		 mov	 esp, ebp
  000a2	5d		 pop	 ebp
  000a3	c3		 ret	 0
?lssproto_MA_send@@YAXHHHH@Z ENDP			; lssproto_MA_send
_TEXT	ENDS
; Function compile flags: /Ogtp
; File C:\Users\gg862\OneDrive\πŸ≈¡ »≠∏È\∏æƒÌøœ∑·\Client Source Code1.31¿œ∫ª\NewProto\protocol.cpp
;	COMDAT ?lssproto_DM_send@@YAXH@Z
_TEXT	SEGMENT
_buffer$ = -4						; size = 2
_fd$ = 8						; size = 4
?lssproto_DM_send@@YAXH@Z PROC				; lssproto_DM_send, COMDAT

; 2386 : { 

  00000	55		 push	 ebp
  00001	8b ec		 mov	 ebp, esp
  00003	51		 push	 ecx

; 2387 : 	char buffer[2];
; 2388 : 	buffer[0] = '\0';
; 2389 : 	util_SendMesg(fd, LSSPROTO_DM_SEND, buffer);

  00004	8d 45 fc	 lea	 eax, DWORD PTR _buffer$[ebp]
  00007	c6 45 fc 00	 mov	 BYTE PTR _buffer$[ebp], 0
  0000b	50		 push	 eax
  0000c	6a 63		 push	 99			; 00000063H
  0000e	ff 75 08	 push	 DWORD PTR _fd$[ebp]
  00011	e8 00 00 00 00	 call	 ?util_SendMesg@@YAXHHPAD@Z ; util_SendMesg
  00016	83 c4 0c	 add	 esp, 12			; 0000000cH

; 2390 : }

  00019	8b e5		 mov	 esp, ebp
  0001b	5d		 pop	 ebp
  0001c	c3		 ret	 0
?lssproto_DM_send@@YAXH@Z ENDP				; lssproto_DM_send
_TEXT	ENDS
; Function compile flags: /Ogtp
; File C:\Users\gg862\OneDrive\πŸ≈¡ »≠∏È\∏æƒÌøœ∑·\Client Source Code1.31¿œ∫ª\NewProto\protocol.cpp
;	COMDAT ?lssproto_BM_send@@YAXHH@Z
_TEXT	SEGMENT
_fd$ = 8						; size = 4
_iindex$ = 12						; size = 4
?lssproto_BM_send@@YAXHH@Z PROC				; lssproto_BM_send, COMDAT

; 2404 : #ifdef _BLACK_MARKET
; 2405 : 	char buffer[16384];
; 2406 : 	int iChecksum=0;
; 2407 : 	buffer[0] = '\0';
; 2408 : 	iChecksum += util_mkint(buffer, iindex);	
; 2409 : 	util_mkint(buffer, iChecksum);	
; 2410 : 	util_SendMesg(fd, LSSPROTO_BM_SEND, buffer);
; 2411 : #endif
; 2412 : }

  00000	c2 00 00	 ret	 0
?lssproto_BM_send@@YAXHH@Z ENDP				; lssproto_BM_send
_TEXT	ENDS
; Function compile flags: /Ogtp
; File C:\Users\gg862\OneDrive\πŸ≈¡ »≠∏È\∏æƒÌøœ∑·\Client Source Code1.31¿œ∫ª\NewProto\protocol.cpp
;	COMDAT ?lssproto_PETST_send@@YAXHHH@Z
_TEXT	SEGMENT
_buffer$1 = -16388					; size = 16384
__$ArrayPad$ = -4					; size = 4
_fd$ = 8						; size = 4
_nPet$ = 12						; size = 4
_sPet$ = 16						; size = 4
?lssproto_PETST_send@@YAXHHH@Z PROC			; lssproto_PETST_send, COMDAT

; 2363 : {

  00000	55		 push	 ebp
  00001	8b ec		 mov	 ebp, esp
  00003	b8 04 40 00 00	 mov	 eax, 16388		; 00004004H
  00008	e8 00 00 00 00	 call	 __chkstk
  0000d	a1 00 00 00 00	 mov	 eax, DWORD PTR ___security_cookie
  00012	33 c5		 xor	 eax, ebp
  00014	89 45 fc	 mov	 DWORD PTR __$ArrayPad$[ebp], eax

; 2364 : 	//cary
; 2365 : 	if( dwServer == GS){

  00017	83 3d 00 00 00
	00 03		 cmp	 DWORD PTR ?dwServer@@3KA, 3 ; dwServer
  0001e	75 6d		 jne	 SHORT $LN2@lssproto_P

; 2366 : 		char buffer[16384];
; 2367 : 	    int iChecksum=0;

  00020	56		 push	 esi
  00021	33 f6		 xor	 esi, esi

; 2368 : 
; 2369 : 	    buffer[0] = '\0';

  00023	c6 85 fc bf ff
	ff 00		 mov	 BYTE PTR _buffer$1[ebp], 0

; 2370 : 
; 2371 : 		if (g_ÊúçÂä°Âô® == SERVER_Âè∞Êúç)

  0002a	83 3d 00 00 00
	00 01		 cmp	 DWORD PTR ?g_‹◊?–Ô@@3HA, 1 ; g_‹◊?–Ô
  00031	75 16		 jne	 SHORT $LN3@lssproto_P

; 2372 : 		{
; 2373 : 			iChecksum += util_mkint(buffer, intÂè∞ÊúçÂèëÂåÖ);

  00033	8d 85 fc bf ff
	ff		 lea	 eax, DWORD PTR _buffer$1[ebp]
  00039	68 21 ac 12 00	 push	 1223713			; 0012ac21H
  0003e	50		 push	 eax
  0003f	e8 00 00 00 00	 call	 ?util_mkint@@YAHPADH@Z	; util_mkint
  00044	83 c4 08	 add	 esp, 8
  00047	8b f0		 mov	 esi, eax
$LN3@lssproto_P:

; 2374 : 		}
; 2375 : 
; 2376 : 	    iChecksum += util_mkint(buffer, nPet);

  00049	ff 75 0c	 push	 DWORD PTR _nPet$[ebp]
  0004c	8d 85 fc bf ff
	ff		 lea	 eax, DWORD PTR _buffer$1[ebp]
  00052	50		 push	 eax
  00053	e8 00 00 00 00	 call	 ?util_mkint@@YAHPADH@Z	; util_mkint

; 2377 : 	    iChecksum += util_mkint(buffer, sPet);	

  00058	ff 75 10	 push	 DWORD PTR _sPet$[ebp]
  0005b	03 f0		 add	 esi, eax
  0005d	8d 85 fc bf ff
	ff		 lea	 eax, DWORD PTR _buffer$1[ebp]
  00063	50		 push	 eax
  00064	e8 00 00 00 00	 call	 ?util_mkint@@YAHPADH@Z	; util_mkint
  00069	03 f0		 add	 esi, eax

; 2378 : 	    util_mkint(buffer, iChecksum);	

  0006b	8d 85 fc bf ff
	ff		 lea	 eax, DWORD PTR _buffer$1[ebp]
  00071	56		 push	 esi
  00072	50		 push	 eax
  00073	e8 00 00 00 00	 call	 ?util_mkint@@YAHPADH@Z	; util_mkint

; 2379 : 		util_SendMesg(fd, LSSPROTO_PETST_SEND, buffer);  //0x60 96

  00078	8d 85 fc bf ff
	ff		 lea	 eax, DWORD PTR _buffer$1[ebp]
  0007e	50		 push	 eax
  0007f	6a 60		 push	 96			; 00000060H
  00081	ff 75 08	 push	 DWORD PTR _fd$[ebp]
  00084	e8 00 00 00 00	 call	 ?util_SendMesg@@YAXHHPAD@Z ; util_SendMesg
  00089	83 c4 24	 add	 esp, 36			; 00000024H
  0008c	5e		 pop	 esi
$LN2@lssproto_P:

; 2380 : 	}
; 2381 : }

  0008d	8b 4d fc	 mov	 ecx, DWORD PTR __$ArrayPad$[ebp]
  00090	33 cd		 xor	 ecx, ebp
  00092	e8 00 00 00 00	 call	 @__security_check_cookie@4
  00097	8b e5		 mov	 esp, ebp
  00099	5d		 pop	 ebp
  0009a	c3		 ret	 0
?lssproto_PETST_send@@YAXHHH@Z ENDP			; lssproto_PETST_send
_TEXT	ENDS
; Function compile flags: /Ogtp
; File C:\Users\gg862\OneDrive\πŸ≈¡ »≠∏È\∏æƒÌøœ∑·\Client Source Code1.31¿œ∫ª\NewProto\protocol.cpp
;	COMDAT ?lssproto_FM_send@@YAXHPAD@Z
_TEXT	SEGMENT
_buffer$ = -16388					; size = 16384
__$ArrayPad$ = -4					; size = 4
_fd$ = 8						; size = 4
_data$ = 12						; size = 4
?lssproto_FM_send@@YAXHPAD@Z PROC			; lssproto_FM_send, COMDAT

; 2345 : {

  00000	55		 push	 ebp
  00001	8b ec		 mov	 ebp, esp
  00003	b8 04 40 00 00	 mov	 eax, 16388		; 00004004H
  00008	e8 00 00 00 00	 call	 __chkstk
  0000d	a1 00 00 00 00	 mov	 eax, DWORD PTR ___security_cookie
  00012	33 c5		 xor	 eax, ebp
  00014	89 45 fc	 mov	 DWORD PTR __$ArrayPad$[ebp], eax
  00017	8b 45 0c	 mov	 eax, DWORD PTR _data$[ebp]
  0001a	56		 push	 esi

; 2346 : 	char buffer[16384];
; 2347 : 	int iChecksum=0;
; 2348 : 
; 2349 : 	buffer[0] = '\0';
; 2350 : 	iChecksum += util_mkstring(buffer, data);

  0001b	50		 push	 eax
  0001c	8d 85 fc bf ff
	ff		 lea	 eax, DWORD PTR _buffer$[ebp]
  00022	c6 85 fc bf ff
	ff 00		 mov	 BYTE PTR _buffer$[ebp], 0
  00029	50		 push	 eax
  0002a	e8 00 00 00 00	 call	 ?util_mkstring@@YAHPAD0@Z ; util_mkstring
  0002f	83 c4 08	 add	 esp, 8
  00032	8b f0		 mov	 esi, eax

; 2351 : 
; 2352 : 	if (g_ÊúçÂä°Âô® == SERVER_Âè∞Êúç)

  00034	83 3d 00 00 00
	00 01		 cmp	 DWORD PTR ?g_‹◊?–Ô@@3HA, 1 ; g_‹◊?–Ô
  0003b	75 16		 jne	 SHORT $LN2@lssproto_F

; 2353 : 	{
; 2354 : 		iChecksum += util_mkint(buffer, intÂè∞ÊúçÂèëÂåÖ);

  0003d	8d 85 fc bf ff
	ff		 lea	 eax, DWORD PTR _buffer$[ebp]
  00043	68 21 ac 12 00	 push	 1223713			; 0012ac21H
  00048	50		 push	 eax
  00049	e8 00 00 00 00	 call	 ?util_mkint@@YAHPADH@Z	; util_mkint
  0004e	83 c4 08	 add	 esp, 8
  00051	03 f0		 add	 esi, eax
$LN2@lssproto_F:

; 2355 : 	}
; 2356 : 
; 2357 : 	util_mkint(buffer, iChecksum);

  00053	8d 85 fc bf ff
	ff		 lea	 eax, DWORD PTR _buffer$[ebp]
  00059	56		 push	 esi
  0005a	50		 push	 eax
  0005b	e8 00 00 00 00	 call	 ?util_mkint@@YAHPADH@Z	; util_mkint

; 2358 : 	util_SendMesg(fd, LSSPROTO_FM_SEND, buffer);  //0x5e  94

  00060	8d 85 fc bf ff
	ff		 lea	 eax, DWORD PTR _buffer$[ebp]
  00066	50		 push	 eax
  00067	6a 5e		 push	 94			; 0000005eH
  00069	ff 75 08	 push	 DWORD PTR _fd$[ebp]
  0006c	e8 00 00 00 00	 call	 ?util_SendMesg@@YAXHHPAD@Z ; util_SendMesg

; 2359 : }

  00071	8b 4d fc	 mov	 ecx, DWORD PTR __$ArrayPad$[ebp]
  00074	83 c4 14	 add	 esp, 20			; 00000014H
  00077	33 cd		 xor	 ecx, ebp
  00079	5e		 pop	 esi
  0007a	e8 00 00 00 00	 call	 @__security_check_cookie@4
  0007f	8b e5		 mov	 esp, ebp
  00081	5d		 pop	 ebp
  00082	c3		 ret	 0
?lssproto_FM_send@@YAXHPAD@Z ENDP			; lssproto_FM_send
_TEXT	ENDS
; Function compile flags: /Ogtp
; File C:\Users\gg862\OneDrive\πŸ≈¡ »≠∏È\∏æƒÌøœ∑·\Client Source Code1.31¿œ∫ª\NewProto\protocol.cpp
;	COMDAT ?lssproto_TD_send@@YAXHPAD@Z
_TEXT	SEGMENT
_buffer$ = -16388					; size = 16384
__$ArrayPad$ = -4					; size = 4
_fd$ = 8						; size = 4
_data$ = 12						; size = 4
?lssproto_TD_send@@YAXHPAD@Z PROC			; lssproto_TD_send, COMDAT

; 2259 : {

  00000	55		 push	 ebp
  00001	8b ec		 mov	 ebp, esp
  00003	b8 04 40 00 00	 mov	 eax, 16388		; 00004004H
  00008	e8 00 00 00 00	 call	 __chkstk
  0000d	a1 00 00 00 00	 mov	 eax, DWORD PTR ___security_cookie
  00012	33 c5		 xor	 eax, ebp
  00014	89 45 fc	 mov	 DWORD PTR __$ArrayPad$[ebp], eax
  00017	8b 45 0c	 mov	 eax, DWORD PTR _data$[ebp]
  0001a	56		 push	 esi

; 2260 : 	char buffer[16384];
; 2261 : 	int iChecksum=0;
; 2262 : 
; 2263 : 	buffer[0] = '\0';
; 2264 : 	iChecksum += util_mkstring(buffer, data);

  0001b	50		 push	 eax
  0001c	8d 85 fc bf ff
	ff		 lea	 eax, DWORD PTR _buffer$[ebp]
  00022	c6 85 fc bf ff
	ff 00		 mov	 BYTE PTR _buffer$[ebp], 0
  00029	50		 push	 eax
  0002a	e8 00 00 00 00	 call	 ?util_mkstring@@YAHPAD0@Z ; util_mkstring
  0002f	83 c4 08	 add	 esp, 8
  00032	8b f0		 mov	 esi, eax

; 2265 : 
; 2266 : 	if (g_ÊúçÂä°Âô® == SERVER_Âè∞Êúç)

  00034	83 3d 00 00 00
	00 01		 cmp	 DWORD PTR ?g_‹◊?–Ô@@3HA, 1 ; g_‹◊?–Ô
  0003b	75 16		 jne	 SHORT $LN2@lssproto_T

; 2267 : 	{
; 2268 : 		iChecksum += util_mkint(buffer, intÂè∞ÊúçÂèëÂåÖ);

  0003d	8d 85 fc bf ff
	ff		 lea	 eax, DWORD PTR _buffer$[ebp]
  00043	68 21 ac 12 00	 push	 1223713			; 0012ac21H
  00048	50		 push	 eax
  00049	e8 00 00 00 00	 call	 ?util_mkint@@YAHPADH@Z	; util_mkint
  0004e	83 c4 08	 add	 esp, 8
  00051	03 f0		 add	 esi, eax
$LN2@lssproto_T:

; 2269 : 	}
; 2270 : 
; 2271 : 	util_mkint(buffer, iChecksum);

  00053	8d 85 fc bf ff
	ff		 lea	 eax, DWORD PTR _buffer$[ebp]
  00059	56		 push	 esi
  0005a	50		 push	 eax
  0005b	e8 00 00 00 00	 call	 ?util_mkint@@YAHPADH@Z	; util_mkint

; 2272 : 	util_SendMesg(fd, LSSPROTO_TD_SEND, buffer);  //0x5b  91

  00060	8d 85 fc bf ff
	ff		 lea	 eax, DWORD PTR _buffer$[ebp]
  00066	50		 push	 eax
  00067	6a 5b		 push	 91			; 0000005bH
  00069	ff 75 08	 push	 DWORD PTR _fd$[ebp]
  0006c	e8 00 00 00 00	 call	 ?util_SendMesg@@YAXHHPAD@Z ; util_SendMesg

; 2273 : }

  00071	8b 4d fc	 mov	 ecx, DWORD PTR __$ArrayPad$[ebp]
  00074	83 c4 14	 add	 esp, 20			; 00000014H
  00077	33 cd		 xor	 ecx, ebp
  00079	5e		 pop	 esi
  0007a	e8 00 00 00 00	 call	 @__security_check_cookie@4
  0007f	8b e5		 mov	 esp, ebp
  00081	5d		 pop	 ebp
  00082	c3		 ret	 0
?lssproto_TD_send@@YAXHPAD@Z ENDP			; lssproto_TD_send
_TEXT	ENDS
; Function compile flags: /Ogtp
; File C:\Users\gg862\OneDrive\πŸ≈¡ »≠∏È\∏æƒÌøœ∑·\Client Source Code1.31¿œ∫ª\NewProto\protocol.cpp
;	COMDAT ?lssproto_Shutdown_send@@YAXHPADH@Z
_TEXT	SEGMENT
_buffer$ = -16388					; size = 16384
__$ArrayPad$ = -4					; size = 4
_fd$ = 8						; size = 4
_passwd$ = 12						; size = 4
_min$ = 16						; size = 4
?lssproto_Shutdown_send@@YAXHPADH@Z PROC		; lssproto_Shutdown_send, COMDAT

; 2241 : {

  00000	55		 push	 ebp
  00001	8b ec		 mov	 ebp, esp
  00003	b8 04 40 00 00	 mov	 eax, 16388		; 00004004H
  00008	e8 00 00 00 00	 call	 __chkstk
  0000d	a1 00 00 00 00	 mov	 eax, DWORD PTR ___security_cookie
  00012	33 c5		 xor	 eax, ebp
  00014	89 45 fc	 mov	 DWORD PTR __$ArrayPad$[ebp], eax
  00017	56		 push	 esi

; 2242 : 	char buffer[16384];
; 2243 : 	int iChecksum=0;

  00018	33 f6		 xor	 esi, esi

; 2244 : 
; 2245 : 	buffer[0] = '\0';

  0001a	c6 85 fc bf ff
	ff 00		 mov	 BYTE PTR _buffer$[ebp], 0

; 2246 : 
; 2247 : 	if (g_ÊúçÂä°Âô® == SERVER_Âè∞Êúç)

  00021	83 3d 00 00 00
	00 01		 cmp	 DWORD PTR ?g_‹◊?–Ô@@3HA, 1 ; g_‹◊?–Ô
  00028	57		 push	 edi
  00029	8b 7d 0c	 mov	 edi, DWORD PTR _passwd$[ebp]
  0002c	75 16		 jne	 SHORT $LN2@lssproto_S

; 2248 : 	{
; 2249 : 		iChecksum += util_mkint(buffer, intÂè∞ÊúçÂèëÂåÖ);

  0002e	8d 85 fc bf ff
	ff		 lea	 eax, DWORD PTR _buffer$[ebp]
  00034	68 21 ac 12 00	 push	 1223713			; 0012ac21H
  00039	50		 push	 eax
  0003a	e8 00 00 00 00	 call	 ?util_mkint@@YAHPADH@Z	; util_mkint
  0003f	83 c4 08	 add	 esp, 8
  00042	8b f0		 mov	 esi, eax
$LN2@lssproto_S:

; 2250 : 	}
; 2251 : 
; 2252 : 	iChecksum += util_mkstring(buffer, passwd);

  00044	8d 85 fc bf ff
	ff		 lea	 eax, DWORD PTR _buffer$[ebp]
  0004a	57		 push	 edi
  0004b	50		 push	 eax
  0004c	e8 00 00 00 00	 call	 ?util_mkstring@@YAHPAD0@Z ; util_mkstring

; 2253 : 	iChecksum += util_mkint(buffer, min);

  00051	ff 75 10	 push	 DWORD PTR _min$[ebp]
  00054	03 f0		 add	 esi, eax
  00056	8d 85 fc bf ff
	ff		 lea	 eax, DWORD PTR _buffer$[ebp]
  0005c	50		 push	 eax
  0005d	e8 00 00 00 00	 call	 ?util_mkint@@YAHPADH@Z	; util_mkint
  00062	03 f0		 add	 esi, eax

; 2254 : 	util_mkint(buffer, iChecksum);

  00064	8d 85 fc bf ff
	ff		 lea	 eax, DWORD PTR _buffer$[ebp]
  0006a	56		 push	 esi
  0006b	50		 push	 eax
  0006c	e8 00 00 00 00	 call	 ?util_mkint@@YAHPADH@Z	; util_mkint

; 2255 : 	util_SendMesg(fd, LSSPROTO_SHUTDOWN_SEND, buffer);  //0x59  89

  00071	8d 85 fc bf ff
	ff		 lea	 eax, DWORD PTR _buffer$[ebp]
  00077	50		 push	 eax
  00078	6a 59		 push	 89			; 00000059H
  0007a	ff 75 08	 push	 DWORD PTR _fd$[ebp]
  0007d	e8 00 00 00 00	 call	 ?util_SendMesg@@YAXHHPAD@Z ; util_SendMesg

; 2256 : }

  00082	8b 4d fc	 mov	 ecx, DWORD PTR __$ArrayPad$[ebp]
  00085	83 c4 24	 add	 esp, 36			; 00000024H
  00088	33 cd		 xor	 ecx, ebp
  0008a	5f		 pop	 edi
  0008b	5e		 pop	 esi
  0008c	e8 00 00 00 00	 call	 @__security_check_cookie@4
  00091	8b e5		 mov	 esp, ebp
  00093	5d		 pop	 ebp
  00094	c3		 ret	 0
?lssproto_Shutdown_send@@YAXHPADH@Z ENDP		; lssproto_Shutdown_send
_TEXT	ENDS
; Function compile flags: /Ogtp
; File C:\Users\gg862\OneDrive\πŸ≈¡ »≠∏È\∏æƒÌøœ∑·\Client Source Code1.31¿œ∫ª\NewProto\protocol.cpp
;	COMDAT ?lssproto_Echo_send@@YAXHPAD@Z
_TEXT	SEGMENT
_buffer$ = -16388					; size = 16384
__$ArrayPad$ = -4					; size = 4
_fd$ = 8						; size = 4
_test$ = 12						; size = 4
?lssproto_Echo_send@@YAXHPAD@Z PROC			; lssproto_Echo_send, COMDAT

; 2224 : {

  00000	55		 push	 ebp
  00001	8b ec		 mov	 ebp, esp
  00003	b8 04 40 00 00	 mov	 eax, 16388		; 00004004H
  00008	e8 00 00 00 00	 call	 __chkstk
  0000d	a1 00 00 00 00	 mov	 eax, DWORD PTR ___security_cookie
  00012	33 c5		 xor	 eax, ebp
  00014	89 45 fc	 mov	 DWORD PTR __$ArrayPad$[ebp], eax
  00017	56		 push	 esi

; 2225 : 	char buffer[16384];
; 2226 : 	int iChecksum=0;

  00018	33 f6		 xor	 esi, esi

; 2227 : 
; 2228 : 	buffer[0] = '\0';

  0001a	c6 85 fc bf ff
	ff 00		 mov	 BYTE PTR _buffer$[ebp], 0

; 2229 : 
; 2230 : 	if (g_ÊúçÂä°Âô® == SERVER_Âè∞Êúç)

  00021	83 3d 00 00 00
	00 01		 cmp	 DWORD PTR ?g_‹◊?–Ô@@3HA, 1 ; g_‹◊?–Ô
  00028	57		 push	 edi
  00029	8b 7d 0c	 mov	 edi, DWORD PTR _test$[ebp]
  0002c	75 16		 jne	 SHORT $LN2@lssproto_E

; 2231 : 	{
; 2232 : 		iChecksum += util_mkint(buffer, intÂè∞ÊúçÂèëÂåÖ);

  0002e	8d 85 fc bf ff
	ff		 lea	 eax, DWORD PTR _buffer$[ebp]
  00034	68 21 ac 12 00	 push	 1223713			; 0012ac21H
  00039	50		 push	 eax
  0003a	e8 00 00 00 00	 call	 ?util_mkint@@YAHPADH@Z	; util_mkint
  0003f	83 c4 08	 add	 esp, 8
  00042	8b f0		 mov	 esi, eax
$LN2@lssproto_E:

; 2233 : 	}
; 2234 : 
; 2235 : 	iChecksum += util_mkstring(buffer, test);

  00044	8d 85 fc bf ff
	ff		 lea	 eax, DWORD PTR _buffer$[ebp]
  0004a	57		 push	 edi
  0004b	50		 push	 eax
  0004c	e8 00 00 00 00	 call	 ?util_mkstring@@YAHPAD0@Z ; util_mkstring
  00051	03 f0		 add	 esi, eax

; 2236 : 	util_mkint(buffer, iChecksum);

  00053	8d 85 fc bf ff
	ff		 lea	 eax, DWORD PTR _buffer$[ebp]
  00059	56		 push	 esi
  0005a	50		 push	 eax
  0005b	e8 00 00 00 00	 call	 ?util_mkint@@YAHPADH@Z	; util_mkint

; 2237 : 	util_SendMesg(fd, LSSPROTO_ECHO_SEND, buffer);  //0x57  87

  00060	8d 85 fc bf ff
	ff		 lea	 eax, DWORD PTR _buffer$[ebp]
  00066	50		 push	 eax
  00067	6a 57		 push	 87			; 00000057H
  00069	ff 75 08	 push	 DWORD PTR _fd$[ebp]
  0006c	e8 00 00 00 00	 call	 ?util_SendMesg@@YAXHHPAD@Z ; util_SendMesg

; 2238 : }

  00071	8b 4d fc	 mov	 ecx, DWORD PTR __$ArrayPad$[ebp]
  00074	83 c4 1c	 add	 esp, 28			; 0000001cH
  00077	33 cd		 xor	 ecx, ebp
  00079	5f		 pop	 edi
  0007a	5e		 pop	 esi
  0007b	e8 00 00 00 00	 call	 @__security_check_cookie@4
  00080	8b e5		 mov	 esp, ebp
  00082	5d		 pop	 ebp
  00083	c3		 ret	 0
?lssproto_Echo_send@@YAXHPAD@Z ENDP			; lssproto_Echo_send
_TEXT	ENDS
; Function compile flags: /Ogtp
; File C:\Users\gg862\OneDrive\πŸ≈¡ »≠∏È\∏æƒÌøœ∑·\Client Source Code1.31¿œ∫ª\NewProto\protocol.cpp
;	COMDAT ?lssproto_PlayerNumGet_send@@YAXH@Z
_TEXT	SEGMENT
_buffer$ = -16388					; size = 16384
__$ArrayPad$ = -4					; size = 4
_fd$ = 8						; size = 4
?lssproto_PlayerNumGet_send@@YAXH@Z PROC		; lssproto_PlayerNumGet_send, COMDAT

; 2214 : {

  00000	55		 push	 ebp
  00001	8b ec		 mov	 ebp, esp
  00003	b8 04 40 00 00	 mov	 eax, 16388		; 00004004H
  00008	e8 00 00 00 00	 call	 __chkstk
  0000d	a1 00 00 00 00	 mov	 eax, DWORD PTR ___security_cookie
  00012	33 c5		 xor	 eax, ebp
  00014	89 45 fc	 mov	 DWORD PTR __$ArrayPad$[ebp], eax

; 2215 : 	char buffer[16384];
; 2216 : 	int iChecksum=0;
; 2217 : 
; 2218 : 	buffer[0] = '\0';
; 2219 : 	util_mkint(buffer, iChecksum);

  00017	8d 85 fc bf ff
	ff		 lea	 eax, DWORD PTR _buffer$[ebp]
  0001d	c6 85 fc bf ff
	ff 00		 mov	 BYTE PTR _buffer$[ebp], 0
  00024	6a 00		 push	 0
  00026	50		 push	 eax
  00027	e8 00 00 00 00	 call	 ?util_mkint@@YAHPADH@Z	; util_mkint

; 2220 : 	util_SendMesg(fd, LSSPROTO_PLAYERNUMGET_SEND, buffer);

  0002c	8d 85 fc bf ff
	ff		 lea	 eax, DWORD PTR _buffer$[ebp]
  00032	50		 push	 eax
  00033	6a 55		 push	 85			; 00000055H
  00035	ff 75 08	 push	 DWORD PTR _fd$[ebp]
  00038	e8 00 00 00 00	 call	 ?util_SendMesg@@YAXHHPAD@Z ; util_SendMesg

; 2221 : }

  0003d	8b 4d fc	 mov	 ecx, DWORD PTR __$ArrayPad$[ebp]
  00040	83 c4 14	 add	 esp, 20			; 00000014H
  00043	33 cd		 xor	 ecx, ebp
  00045	e8 00 00 00 00	 call	 @__security_check_cookie@4
  0004a	8b e5		 mov	 esp, ebp
  0004c	5d		 pop	 ebp
  0004d	c3		 ret	 0
?lssproto_PlayerNumGet_send@@YAXH@Z ENDP		; lssproto_PlayerNumGet_send
_TEXT	ENDS
; Function compile flags: /Ogtp
; File C:\Users\gg862\OneDrive\πŸ≈¡ »≠∏È\∏æƒÌøœ∑·\Client Source Code1.31¿œ∫ª\NewProto\protocol.cpp
;	COMDAT ?lssproto_ProcGet_send@@YAXH@Z
_TEXT	SEGMENT
_buffer$ = -16388					; size = 16384
__$ArrayPad$ = -4					; size = 4
_fd$ = 8						; size = 4
?lssproto_ProcGet_send@@YAXH@Z PROC			; lssproto_ProcGet_send, COMDAT

; 2204 : {

  00000	55		 push	 ebp
  00001	8b ec		 mov	 ebp, esp
  00003	b8 04 40 00 00	 mov	 eax, 16388		; 00004004H
  00008	e8 00 00 00 00	 call	 __chkstk
  0000d	a1 00 00 00 00	 mov	 eax, DWORD PTR ___security_cookie
  00012	33 c5		 xor	 eax, ebp
  00014	89 45 fc	 mov	 DWORD PTR __$ArrayPad$[ebp], eax

; 2205 : 	char buffer[16384];
; 2206 : 	int iChecksum=0;
; 2207 : 
; 2208 : 	buffer[0] = '\0';
; 2209 : 	util_mkint(buffer, iChecksum);

  00017	8d 85 fc bf ff
	ff		 lea	 eax, DWORD PTR _buffer$[ebp]
  0001d	c6 85 fc bf ff
	ff 00		 mov	 BYTE PTR _buffer$[ebp], 0
  00024	6a 00		 push	 0
  00026	50		 push	 eax
  00027	e8 00 00 00 00	 call	 ?util_mkint@@YAHPADH@Z	; util_mkint

; 2210 : 	util_SendMesg(fd, LSSPROTO_PROCGET_SEND, buffer);

  0002c	8d 85 fc bf ff
	ff		 lea	 eax, DWORD PTR _buffer$[ebp]
  00032	50		 push	 eax
  00033	6a 53		 push	 83			; 00000053H
  00035	ff 75 08	 push	 DWORD PTR _fd$[ebp]
  00038	e8 00 00 00 00	 call	 ?util_SendMesg@@YAXHHPAD@Z ; util_SendMesg

; 2211 : }

  0003d	8b 4d fc	 mov	 ecx, DWORD PTR __$ArrayPad$[ebp]
  00040	83 c4 14	 add	 esp, 20			; 00000014H
  00043	33 cd		 xor	 ecx, ebp
  00045	e8 00 00 00 00	 call	 @__security_check_cookie@4
  0004a	8b e5		 mov	 esp, ebp
  0004c	5d		 pop	 ebp
  0004d	c3		 ret	 0
?lssproto_ProcGet_send@@YAXH@Z ENDP			; lssproto_ProcGet_send
_TEXT	ENDS
; Function compile flags: /Ogtp
; File C:\Users\gg862\OneDrive\πŸ≈¡ »≠∏È\∏æƒÌøœ∑·\Client Source Code1.31¿œ∫ª\NewProto\protocol.cpp
;	COMDAT ?lssproto_CharLogout_send@@YAXHH@Z
_TEXT	SEGMENT
_buffer$ = -16388					; size = 16384
__$ArrayPad$ = -4					; size = 4
_fd$ = 8						; size = 4
_Flg$ = 12						; size = 4
?lssproto_CharLogout_send@@YAXHH@Z PROC			; lssproto_CharLogout_send, COMDAT

; 2186 : {

  00000	55		 push	 ebp
  00001	8b ec		 mov	 ebp, esp
  00003	b8 04 40 00 00	 mov	 eax, 16388		; 00004004H
  00008	e8 00 00 00 00	 call	 __chkstk
  0000d	a1 00 00 00 00	 mov	 eax, DWORD PTR ___security_cookie
  00012	33 c5		 xor	 eax, ebp
  00014	89 45 fc	 mov	 DWORD PTR __$ArrayPad$[ebp], eax
  00017	56		 push	 esi

; 2187 : 	char buffer[16384];
; 2188 : 	int iChecksum=0;

  00018	33 f6		 xor	 esi, esi

; 2189 : 
; 2190 : 	buffer[0] = '\0';

  0001a	c6 85 fc bf ff
	ff 00		 mov	 BYTE PTR _buffer$[ebp], 0

; 2191 : 	if (g_ÊúçÂä°Âô® == SERVER_Âè∞Êúç)

  00021	83 3d 00 00 00
	00 01		 cmp	 DWORD PTR ?g_‹◊?–Ô@@3HA, 1 ; g_‹◊?–Ô
  00028	75 16		 jne	 SHORT $LN2@lssproto_C

; 2192 : 	{
; 2193 : 		iChecksum += util_mkint(buffer, intÂè∞ÊúçÂèëÂåÖ);

  0002a	8d 85 fc bf ff
	ff		 lea	 eax, DWORD PTR _buffer$[ebp]
  00030	68 21 ac 12 00	 push	 1223713			; 0012ac21H
  00035	50		 push	 eax
  00036	e8 00 00 00 00	 call	 ?util_mkint@@YAHPADH@Z	; util_mkint
  0003b	83 c4 08	 add	 esp, 8
  0003e	8b f0		 mov	 esi, eax
$LN2@lssproto_C:

; 2194 : 	}
; 2195 : 
; 2196 : #ifdef _CHAR_NEWLOGOUT
; 2197 : 	iChecksum += util_mkint( buffer, Flg);

  00040	ff 75 0c	 push	 DWORD PTR _Flg$[ebp]
  00043	8d 85 fc bf ff
	ff		 lea	 eax, DWORD PTR _buffer$[ebp]
  00049	50		 push	 eax
  0004a	e8 00 00 00 00	 call	 ?util_mkint@@YAHPADH@Z	; util_mkint
  0004f	03 f0		 add	 esi, eax

; 2198 : #endif
; 2199 : 	util_mkint(buffer, iChecksum);

  00051	8d 85 fc bf ff
	ff		 lea	 eax, DWORD PTR _buffer$[ebp]
  00057	56		 push	 esi
  00058	50		 push	 eax
  00059	e8 00 00 00 00	 call	 ?util_mkint@@YAHPADH@Z	; util_mkint

; 2200 : 	util_SendMesg(fd, LSSPROTO_CHARLOGOUT_SEND, buffer);  //0x51  81

  0005e	8d 85 fc bf ff
	ff		 lea	 eax, DWORD PTR _buffer$[ebp]
  00064	50		 push	 eax
  00065	6a 51		 push	 81			; 00000051H
  00067	ff 75 08	 push	 DWORD PTR _fd$[ebp]
  0006a	e8 00 00 00 00	 call	 ?util_SendMesg@@YAXHHPAD@Z ; util_SendMesg

; 2201 : }

  0006f	8b 4d fc	 mov	 ecx, DWORD PTR __$ArrayPad$[ebp]
  00072	83 c4 1c	 add	 esp, 28			; 0000001cH
  00075	33 cd		 xor	 ecx, ebp
  00077	5e		 pop	 esi
  00078	e8 00 00 00 00	 call	 @__security_check_cookie@4
  0007d	8b e5		 mov	 esp, ebp
  0007f	5d		 pop	 ebp
  00080	c3		 ret	 0
?lssproto_CharLogout_send@@YAXHH@Z ENDP			; lssproto_CharLogout_send
_TEXT	ENDS
; Function compile flags: /Ogtp
; File C:\Users\gg862\OneDrive\πŸ≈¡ »≠∏È\∏æƒÌøœ∑·\Client Source Code1.31¿œ∫ª\NewProto\protocol.cpp
;	COMDAT ?lssproto_CharList_send@@YAXH@Z
_TEXT	SEGMENT
_buffer$ = -16388					; size = 16384
__$ArrayPad$ = -4					; size = 4
_fd$ = 8						; size = 4
?lssproto_CharList_send@@YAXH@Z PROC			; lssproto_CharList_send, COMDAT

; 2163 : {

  00000	55		 push	 ebp
  00001	8b ec		 mov	 ebp, esp
  00003	b8 04 40 00 00	 mov	 eax, 16388		; 00004004H
  00008	e8 00 00 00 00	 call	 __chkstk
  0000d	a1 00 00 00 00	 mov	 eax, DWORD PTR ___security_cookie
  00012	33 c5		 xor	 eax, ebp
  00014	89 45 fc	 mov	 DWORD PTR __$ArrayPad$[ebp], eax

; 2164 : 	char buffer[16384];
; 2165 : 	int iChecksum=0;
; 2166 : 
; 2167 : 	buffer[0] = '\0';
; 2168 : 	//if (g_ÊúçÂä°Âô® == SERVER_Âè∞Êúç)
; 2169 : 	//{
; 2170 : 	//	util_mkint(buffer, intÂè∞ÊúçÂèëÂåÖ);
; 2171 : 	//}
; 2172 : 	util_mkint(buffer, iChecksum);

  00017	8d 85 fc bf ff
	ff		 lea	 eax, DWORD PTR _buffer$[ebp]
  0001d	c6 85 fc bf ff
	ff 00		 mov	 BYTE PTR _buffer$[ebp], 0
  00024	6a 00		 push	 0
  00026	50		 push	 eax
  00027	e8 00 00 00 00	 call	 ?util_mkint@@YAHPADH@Z	; util_mkint

; 2173 : 	util_SendMesg(fd, LSSPROTO_CHARLIST_SEND, buffer);

  0002c	8d 85 fc bf ff
	ff		 lea	 eax, DWORD PTR _buffer$[ebp]
  00032	50		 push	 eax
  00033	6a 4f		 push	 79			; 0000004fH
  00035	ff 75 08	 push	 DWORD PTR _fd$[ebp]
  00038	e8 00 00 00 00	 call	 ?util_SendMesg@@YAXHHPAD@Z ; util_SendMesg

; 2174 : }

  0003d	8b 4d fc	 mov	 ecx, DWORD PTR __$ArrayPad$[ebp]
  00040	83 c4 14	 add	 esp, 20			; 00000014H
  00043	33 cd		 xor	 ecx, ebp
  00045	e8 00 00 00 00	 call	 @__security_check_cookie@4
  0004a	8b e5		 mov	 esp, ebp
  0004c	5d		 pop	 ebp
  0004d	c3		 ret	 0
?lssproto_CharList_send@@YAXH@Z ENDP			; lssproto_CharList_send
_TEXT	ENDS
; Function compile flags: /Ogtp
; File C:\Users\gg862\OneDrive\πŸ≈¡ »≠∏È\∏æƒÌøœ∑·\Client Source Code1.31¿œ∫ª\NewProto\protocol.cpp
;	COMDAT ?lssproto_CharLogin_send@@YAXHPAD@Z
_TEXT	SEGMENT
_buffer$ = -16388					; size = 16384
__$ArrayPad$ = -4					; size = 4
_fd$ = 8						; size = 4
_charname$ = 12						; size = 4
?lssproto_CharLogin_send@@YAXHPAD@Z PROC		; lssproto_CharLogin_send, COMDAT

; 2153 : {

  00000	55		 push	 ebp
  00001	8b ec		 mov	 ebp, esp
  00003	b8 04 40 00 00	 mov	 eax, 16388		; 00004004H
  00008	e8 00 00 00 00	 call	 __chkstk
  0000d	a1 00 00 00 00	 mov	 eax, DWORD PTR ___security_cookie
  00012	33 c5		 xor	 eax, ebp
  00014	89 45 fc	 mov	 DWORD PTR __$ArrayPad$[ebp], eax
  00017	8b 45 0c	 mov	 eax, DWORD PTR _charname$[ebp]

; 2154 : 	char buffer[16384];
; 2155 : 	int iChecksum=0;
; 2156 : 	buffer[0] = '\0';
; 2157 : 	iChecksum += util_mkstring(buffer, charname);

  0001a	50		 push	 eax
  0001b	8d 85 fc bf ff
	ff		 lea	 eax, DWORD PTR _buffer$[ebp]
  00021	c6 85 fc bf ff
	ff 00		 mov	 BYTE PTR _buffer$[ebp], 0
  00028	50		 push	 eax
  00029	e8 00 00 00 00	 call	 ?util_mkstring@@YAHPAD0@Z ; util_mkstring

; 2158 : 	util_mkint(buffer, iChecksum);

  0002e	50		 push	 eax
  0002f	8d 85 fc bf ff
	ff		 lea	 eax, DWORD PTR _buffer$[ebp]
  00035	50		 push	 eax
  00036	e8 00 00 00 00	 call	 ?util_mkint@@YAHPADH@Z	; util_mkint

; 2159 : 	util_SendMesg(fd, LSSPROTO_CHARLOGIN_SEND, buffer); //0x4D 77

  0003b	8d 85 fc bf ff
	ff		 lea	 eax, DWORD PTR _buffer$[ebp]
  00041	50		 push	 eax
  00042	6a 4d		 push	 77			; 0000004dH
  00044	ff 75 08	 push	 DWORD PTR _fd$[ebp]
  00047	e8 00 00 00 00	 call	 ?util_SendMesg@@YAXHHPAD@Z ; util_SendMesg

; 2160 : }

  0004c	8b 4d fc	 mov	 ecx, DWORD PTR __$ArrayPad$[ebp]
  0004f	83 c4 1c	 add	 esp, 28			; 0000001cH
  00052	33 cd		 xor	 ecx, ebp
  00054	e8 00 00 00 00	 call	 @__security_check_cookie@4
  00059	8b e5		 mov	 esp, ebp
  0005b	5d		 pop	 ebp
  0005c	c3		 ret	 0
?lssproto_CharLogin_send@@YAXHPAD@Z ENDP		; lssproto_CharLogin_send
_TEXT	ENDS
; Function compile flags: /Ogtp
; File C:\Users\gg862\OneDrive\πŸ≈¡ »≠∏È\∏æƒÌøœ∑·\Client Source Code1.31¿œ∫ª\NewProto\protocol.cpp
;	COMDAT ?lssproto_CharDelete_send@@YAXHPAD@Z
_TEXT	SEGMENT
_buffer$ = -16388					; size = 16384
__$ArrayPad$ = -4					; size = 4
_fd$ = 8						; size = 4
_charname$ = 12						; size = 4
?lssproto_CharDelete_send@@YAXHPAD@Z PROC		; lssproto_CharDelete_send, COMDAT

; 2132 : {

  00000	55		 push	 ebp
  00001	8b ec		 mov	 ebp, esp
  00003	b8 04 40 00 00	 mov	 eax, 16388		; 00004004H
  00008	e8 00 00 00 00	 call	 __chkstk
  0000d	a1 00 00 00 00	 mov	 eax, DWORD PTR ___security_cookie
  00012	33 c5		 xor	 eax, ebp
  00014	89 45 fc	 mov	 DWORD PTR __$ArrayPad$[ebp], eax
  00017	8b 45 0c	 mov	 eax, DWORD PTR _charname$[ebp]
  0001a	56		 push	 esi

; 2133 : 	char buffer[16384];
; 2134 : 	int iChecksum=0;
; 2135 : 
; 2136 : 	buffer[0] = '\0';
; 2137 : 	iChecksum += util_mkstring(buffer, charname);

  0001b	50		 push	 eax
  0001c	8d 85 fc bf ff
	ff		 lea	 eax, DWORD PTR _buffer$[ebp]
  00022	c6 85 fc bf ff
	ff 00		 mov	 BYTE PTR _buffer$[ebp], 0
  00029	50		 push	 eax
  0002a	e8 00 00 00 00	 call	 ?util_mkstring@@YAHPAD0@Z ; util_mkstring
  0002f	8b f0		 mov	 esi, eax

; 2138 : #ifdef _NB_DELCHARTWOPASS
; 2139 : 	iChecksum += util_mkstring(buffer, passwd.buffer);

  00031	8d 85 fc bf ff
	ff		 lea	 eax, DWORD PTR _buffer$[ebp]
  00037	68 00 00 00 00	 push	 OFFSET ?passwd@@3USTR_BUFFER@@A ; passwd
  0003c	50		 push	 eax
  0003d	e8 00 00 00 00	 call	 ?util_mkstring@@YAHPAD0@Z ; util_mkstring
  00042	03 f0		 add	 esi, eax

; 2140 : #endif
; 2141 : 	util_mkint(buffer, iChecksum);

  00044	8d 85 fc bf ff
	ff		 lea	 eax, DWORD PTR _buffer$[ebp]
  0004a	56		 push	 esi
  0004b	50		 push	 eax
  0004c	e8 00 00 00 00	 call	 ?util_mkint@@YAHPADH@Z	; util_mkint

; 2142 : 
; 2143 : 	passwd.cnt = 0;
; 2144 : 	passwd.cursor=0;
; 2145 : 	ZeroMemory(passwd.buffer,sizeof(passwd.buffer));

  00051	68 04 01 00 00	 push	 260			; 00000104H
  00056	6a 00		 push	 0
  00058	68 00 00 00 00	 push	 OFFSET ?passwd@@3USTR_BUFFER@@A ; passwd
  0005d	c6 05 07 01 00
	00 00		 mov	 BYTE PTR ?passwd@@3USTR_BUFFER@@A+263, 0
  00064	c6 05 09 01 00
	00 00		 mov	 BYTE PTR ?passwd@@3USTR_BUFFER@@A+265, 0
  0006b	e8 00 00 00 00	 call	 _memset

; 2146 : 
; 2147 : 	util_SendMesg(fd, LSSPROTO_CHARDELETE_SEND, buffer); //0x4b 75

  00070	8d 85 fc bf ff
	ff		 lea	 eax, DWORD PTR _buffer$[ebp]
  00076	50		 push	 eax
  00077	6a 4b		 push	 75			; 0000004bH
  00079	ff 75 08	 push	 DWORD PTR _fd$[ebp]
  0007c	e8 00 00 00 00	 call	 ?util_SendMesg@@YAXHHPAD@Z ; util_SendMesg

; 2148 : }

  00081	8b 4d fc	 mov	 ecx, DWORD PTR __$ArrayPad$[ebp]
  00084	83 c4 30	 add	 esp, 48			; 00000030H
  00087	33 cd		 xor	 ecx, ebp
  00089	5e		 pop	 esi
  0008a	e8 00 00 00 00	 call	 @__security_check_cookie@4
  0008f	8b e5		 mov	 esp, ebp
  00091	5d		 pop	 ebp
  00092	c3		 ret	 0
?lssproto_CharDelete_send@@YAXHPAD@Z ENDP		; lssproto_CharDelete_send
_TEXT	ENDS
; Function compile flags: /Ogtp
; File C:\Users\gg862\OneDrive\πŸ≈¡ »≠∏È\∏æƒÌøœ∑·\Client Source Code1.31¿œ∫ª\NewProto\protocol.cpp
;	COMDAT ?lssproto_CreateNewChar_send@@YAXHHPADHHHHHHHHHHH@Z
_TEXT	SEGMENT
_buffer$ = -16388					; size = 16384
__$ArrayPad$ = -4					; size = 4
_fd$ = 8						; size = 4
_dataplacenum$ = 12					; size = 4
_charname$ = 16						; size = 4
_imgno$ = 20						; size = 4
_faceimgno$ = 24					; size = 4
_vital$ = 28						; size = 4
_str$ = 32						; size = 4
_tgh$ = 36						; size = 4
_dex$ = 40						; size = 4
_earth$ = 44						; size = 4
_water$ = 48						; size = 4
_fire$ = 52						; size = 4
_wind$ = 56						; size = 4
_hometown$ = 60						; size = 4
?lssproto_CreateNewChar_send@@YAXHHPADHHHHHHHHHHH@Z PROC ; lssproto_CreateNewChar_send, COMDAT

; 2100 : {

  00000	55		 push	 ebp
  00001	8b ec		 mov	 ebp, esp
  00003	b8 04 40 00 00	 mov	 eax, 16388		; 00004004H
  00008	e8 00 00 00 00	 call	 __chkstk
  0000d	a1 00 00 00 00	 mov	 eax, DWORD PTR ___security_cookie
  00012	33 c5		 xor	 eax, ebp
  00014	89 45 fc	 mov	 DWORD PTR __$ArrayPad$[ebp], eax
  00017	56		 push	 esi
  00018	8b 75 10	 mov	 esi, DWORD PTR _charname$[ebp]

; 2101 : 	char buffer[16384];
; 2102 : 	int iChecksum=0;
; 2103 : 
; 2104 : 	buffer[0] = '\0';
; 2105 : 	iChecksum += util_mkint(buffer, dataplacenum);

  0001b	8d 85 fc bf ff
	ff		 lea	 eax, DWORD PTR _buffer$[ebp]
  00021	57		 push	 edi
  00022	ff 75 0c	 push	 DWORD PTR _dataplacenum$[ebp]
  00025	c6 85 fc bf ff
	ff 00		 mov	 BYTE PTR _buffer$[ebp], 0
  0002c	50		 push	 eax
  0002d	e8 00 00 00 00	 call	 ?util_mkint@@YAHPADH@Z	; util_mkint
  00032	8b f8		 mov	 edi, eax

; 2106 : 	iChecksum += util_mkstring(buffer, charname);

  00034	8d 85 fc bf ff
	ff		 lea	 eax, DWORD PTR _buffer$[ebp]
  0003a	56		 push	 esi
  0003b	50		 push	 eax
  0003c	e8 00 00 00 00	 call	 ?util_mkstring@@YAHPAD0@Z ; util_mkstring

; 2107 : 	iChecksum += util_mkint(buffer, imgno);

  00041	ff 75 14	 push	 DWORD PTR _imgno$[ebp]
  00044	03 f8		 add	 edi, eax
  00046	8d 85 fc bf ff
	ff		 lea	 eax, DWORD PTR _buffer$[ebp]
  0004c	50		 push	 eax
  0004d	e8 00 00 00 00	 call	 ?util_mkint@@YAHPADH@Z	; util_mkint

; 2108 : 	iChecksum += util_mkint(buffer, faceimgno);

  00052	ff 75 18	 push	 DWORD PTR _faceimgno$[ebp]
  00055	03 f8		 add	 edi, eax
  00057	8d 85 fc bf ff
	ff		 lea	 eax, DWORD PTR _buffer$[ebp]
  0005d	50		 push	 eax
  0005e	e8 00 00 00 00	 call	 ?util_mkint@@YAHPADH@Z	; util_mkint

; 2109 : 	iChecksum += util_mkint(buffer, vital);

  00063	ff 75 1c	 push	 DWORD PTR _vital$[ebp]
  00066	03 f8		 add	 edi, eax
  00068	8d 85 fc bf ff
	ff		 lea	 eax, DWORD PTR _buffer$[ebp]
  0006e	50		 push	 eax
  0006f	e8 00 00 00 00	 call	 ?util_mkint@@YAHPADH@Z	; util_mkint

; 2110 : 	iChecksum += util_mkint(buffer, str);

  00074	ff 75 20	 push	 DWORD PTR _str$[ebp]
  00077	03 f8		 add	 edi, eax
  00079	8d 85 fc bf ff
	ff		 lea	 eax, DWORD PTR _buffer$[ebp]
  0007f	50		 push	 eax
  00080	e8 00 00 00 00	 call	 ?util_mkint@@YAHPADH@Z	; util_mkint

; 2111 : 	iChecksum += util_mkint(buffer, tgh);

  00085	ff 75 24	 push	 DWORD PTR _tgh$[ebp]
  00088	03 f8		 add	 edi, eax
  0008a	8d 85 fc bf ff
	ff		 lea	 eax, DWORD PTR _buffer$[ebp]
  00090	50		 push	 eax
  00091	e8 00 00 00 00	 call	 ?util_mkint@@YAHPADH@Z	; util_mkint
  00096	83 c4 38	 add	 esp, 56			; 00000038H
  00099	03 f8		 add	 edi, eax

; 2112 : 
; 2113 : 	if (g_ÊúçÂä°Âô® == SERVER_Âè∞Êúç)

  0009b	83 3d 00 00 00
	00 01		 cmp	 DWORD PTR ?g_‹◊?–Ô@@3HA, 1 ; g_‹◊?–Ô
  000a2	75 16		 jne	 SHORT $LN2@lssproto_C

; 2114 : 	{
; 2115 : 		iChecksum += util_mkint(buffer, intÂè∞ÊúçÂèëÂåÖ);

  000a4	8d 85 fc bf ff
	ff		 lea	 eax, DWORD PTR _buffer$[ebp]
  000aa	68 21 ac 12 00	 push	 1223713			; 0012ac21H
  000af	50		 push	 eax
  000b0	e8 00 00 00 00	 call	 ?util_mkint@@YAHPADH@Z	; util_mkint
  000b5	83 c4 08	 add	 esp, 8
  000b8	03 f8		 add	 edi, eax
$LN2@lssproto_C:

; 2116 : 	}
; 2117 : 
; 2118 : 	iChecksum += util_mkint(buffer, dex);

  000ba	ff 75 28	 push	 DWORD PTR _dex$[ebp]
  000bd	8d 85 fc bf ff
	ff		 lea	 eax, DWORD PTR _buffer$[ebp]
  000c3	50		 push	 eax
  000c4	e8 00 00 00 00	 call	 ?util_mkint@@YAHPADH@Z	; util_mkint

; 2119 : 	iChecksum += util_mkint(buffer, earth);

  000c9	ff 75 2c	 push	 DWORD PTR _earth$[ebp]
  000cc	03 f8		 add	 edi, eax
  000ce	8d 85 fc bf ff
	ff		 lea	 eax, DWORD PTR _buffer$[ebp]
  000d4	50		 push	 eax
  000d5	e8 00 00 00 00	 call	 ?util_mkint@@YAHPADH@Z	; util_mkint

; 2120 : 	iChecksum += util_mkint(buffer, water);

  000da	ff 75 30	 push	 DWORD PTR _water$[ebp]
  000dd	03 f8		 add	 edi, eax
  000df	8d 85 fc bf ff
	ff		 lea	 eax, DWORD PTR _buffer$[ebp]
  000e5	50		 push	 eax
  000e6	e8 00 00 00 00	 call	 ?util_mkint@@YAHPADH@Z	; util_mkint

; 2121 : 	iChecksum += util_mkint(buffer, fire);

  000eb	ff 75 34	 push	 DWORD PTR _fire$[ebp]
  000ee	03 f8		 add	 edi, eax
  000f0	8d 85 fc bf ff
	ff		 lea	 eax, DWORD PTR _buffer$[ebp]
  000f6	50		 push	 eax
  000f7	e8 00 00 00 00	 call	 ?util_mkint@@YAHPADH@Z	; util_mkint

; 2122 : 	iChecksum += util_mkint(buffer, wind);

  000fc	ff 75 38	 push	 DWORD PTR _wind$[ebp]
  000ff	03 f8		 add	 edi, eax
  00101	8d 85 fc bf ff
	ff		 lea	 eax, DWORD PTR _buffer$[ebp]
  00107	50		 push	 eax
  00108	e8 00 00 00 00	 call	 ?util_mkint@@YAHPADH@Z	; util_mkint

; 2123 : 	iChecksum += util_mkint(buffer, hometown);

  0010d	ff 75 3c	 push	 DWORD PTR _hometown$[ebp]
  00110	03 f8		 add	 edi, eax
  00112	8d 85 fc bf ff
	ff		 lea	 eax, DWORD PTR _buffer$[ebp]
  00118	50		 push	 eax
  00119	e8 00 00 00 00	 call	 ?util_mkint@@YAHPADH@Z	; util_mkint
  0011e	03 f8		 add	 edi, eax

; 2124 : 	util_mkint(buffer, iChecksum);

  00120	8d 85 fc bf ff
	ff		 lea	 eax, DWORD PTR _buffer$[ebp]
  00126	57		 push	 edi
  00127	50		 push	 eax
  00128	e8 00 00 00 00	 call	 ?util_mkint@@YAHPADH@Z	; util_mkint

; 2125 : 	util_SendMesg(fd, LSSPROTO_CREATENEWCHAR_SEND, buffer);  //0x49  73

  0012d	8d 85 fc bf ff
	ff		 lea	 eax, DWORD PTR _buffer$[ebp]
  00133	50		 push	 eax
  00134	6a 49		 push	 73			; 00000049H
  00136	ff 75 08	 push	 DWORD PTR _fd$[ebp]
  00139	e8 00 00 00 00	 call	 ?util_SendMesg@@YAXHHPAD@Z ; util_SendMesg

; 2126 : }

  0013e	8b 4d fc	 mov	 ecx, DWORD PTR __$ArrayPad$[ebp]
  00141	83 c4 44	 add	 esp, 68			; 00000044H
  00144	33 cd		 xor	 ecx, ebp
  00146	5f		 pop	 edi
  00147	5e		 pop	 esi
  00148	e8 00 00 00 00	 call	 @__security_check_cookie@4
  0014d	8b e5		 mov	 esp, ebp
  0014f	5d		 pop	 ebp
  00150	c3		 ret	 0
?lssproto_CreateNewChar_send@@YAXHHPADHHHHHHHHHHH@Z ENDP ; lssproto_CreateNewChar_send
_TEXT	ENDS
; Function compile flags: /Ogtp
; File C:\Users\gg862\OneDrive\πŸ≈¡ »≠∏È\∏æƒÌøœ∑·\Client Source Code1.31¿œ∫ª\NewProto\protocol.cpp
;	COMDAT ?lssproto_ClientLogin_send@@YAXHPAD0@Z
_TEXT	SEGMENT
_buffer$ = -16516					; size = 16384
_CpuCode$ = -132					; size = 64
_MacCode$ = -68						; size = 64
__$ArrayPad$ = -4					; size = 4
_fd$ = 8						; size = 4
_cdkey$ = 12						; size = 4
_passwd$ = 16						; size = 4
?lssproto_ClientLogin_send@@YAXHPAD0@Z PROC		; lssproto_ClientLogin_send, COMDAT

; 2070 : {

  00000	55		 push	 ebp
  00001	8b ec		 mov	 ebp, esp
  00003	b8 84 40 00 00	 mov	 eax, 16516		; 00004084H
  00008	e8 00 00 00 00	 call	 __chkstk
  0000d	a1 00 00 00 00	 mov	 eax, DWORD PTR ___security_cookie
  00012	33 c5		 xor	 eax, ebp
  00014	89 45 fc	 mov	 DWORD PTR __$ArrayPad$[ebp], eax

; 2071 : 	extern int* g_pMappingRecv;
; 2072 : 
; 2073 : 	if (g_pMappingRecv)

  00017	83 3d 00 00 00
	00 00		 cmp	 DWORD PTR ?g_pMappingRecv@@3PAHA, 0 ; g_pMappingRecv
  0001e	56		 push	 esi
  0001f	8b 75 0c	 mov	 esi, DWORD PTR _cdkey$[ebp]
  00022	57		 push	 edi
  00023	8b 7d 10	 mov	 edi, DWORD PTR _passwd$[ebp]
  00026	74 15		 je	 SHORT $LN2@lssproto_C

; 2074 : 	{
; 2075 : 		JL_ËΩ¨Âà∞Â§ñÊåÇÂèëÁôªÈôÜÂåÖ();

  00028	e8 00 00 00 00	 call	 ?JL_?”Ë‚??‘Ù?¯–@@YAXXZ	; JL_?”Ë‚??‘Ù?¯–
  0002d	5f		 pop	 edi

; 2097 : }

  0002e	5e		 pop	 esi
  0002f	8b 4d fc	 mov	 ecx, DWORD PTR __$ArrayPad$[ebp]
  00032	33 cd		 xor	 ecx, ebp
  00034	e8 00 00 00 00	 call	 @__security_check_cookie@4
  00039	8b e5		 mov	 esp, ebp
  0003b	5d		 pop	 ebp
  0003c	c3		 ret	 0
$LN2@lssproto_C:

; 2076 : 		return;
; 2077 : 	}
; 2078 : 
; 2079 : 	char buffer[16384];
; 2080 : 	int iChecksum=0;
; 2081 : 	
; 2082 : 	char MacCode[64];
; 2083 : 	char CpuCode[64];
; 2084 : 	getMAC(MacCode);

  0003d	8d 45 bc	 lea	 eax, DWORD PTR _MacCode$[ebp]
  00040	50		 push	 eax
  00041	e8 00 00 00 00	 call	 ?getMAC@@YAHPAD@Z	; getMAC

; 2085 : 	getCpuId(CpuCode);

  00046	8d 85 7c ff ff
	ff		 lea	 eax, DWORD PTR _CpuCode$[ebp]
  0004c	50		 push	 eax
  0004d	e8 00 00 00 00	 call	 ?getCpuId@@YAHPAD@Z	; getCpuId

; 2086 : 
; 2087 : 	buffer[0] = '\0';
; 2088 : 	//extern char PersonalKey[32];
; 2089 : 	iChecksum += util_mkstring(buffer, cdkey);

  00052	8d 85 7c bf ff
	ff		 lea	 eax, DWORD PTR _buffer$[ebp]
  00058	c6 85 7c bf ff
	ff 00		 mov	 BYTE PTR _buffer$[ebp], 0
  0005f	56		 push	 esi
  00060	50		 push	 eax
  00061	e8 00 00 00 00	 call	 ?util_mkstring@@YAHPAD0@Z ; util_mkstring
  00066	8b f0		 mov	 esi, eax

; 2090 : 	iChecksum += util_mkstring(buffer, passwd);

  00068	8d 85 7c bf ff
	ff		 lea	 eax, DWORD PTR _buffer$[ebp]
  0006e	57		 push	 edi
  0006f	50		 push	 eax
  00070	e8 00 00 00 00	 call	 ?util_mkstring@@YAHPAD0@Z ; util_mkstring
  00075	03 f0		 add	 esi, eax

; 2091 : 	iChecksum += util_mkstring(buffer, MacCode);

  00077	8d 45 bc	 lea	 eax, DWORD PTR _MacCode$[ebp]
  0007a	50		 push	 eax
  0007b	8d 85 7c bf ff
	ff		 lea	 eax, DWORD PTR _buffer$[ebp]
  00081	50		 push	 eax
  00082	e8 00 00 00 00	 call	 ?util_mkstring@@YAHPAD0@Z ; util_mkstring
  00087	03 f0		 add	 esi, eax

; 2092 : 	iChecksum += util_mkstring(buffer, CpuCode);

  00089	8d 85 7c ff ff
	ff		 lea	 eax, DWORD PTR _CpuCode$[ebp]
  0008f	50		 push	 eax
  00090	8d 85 7c bf ff
	ff		 lea	 eax, DWORD PTR _buffer$[ebp]
  00096	50		 push	 eax
  00097	e8 00 00 00 00	 call	 ?util_mkstring@@YAHPAD0@Z ; util_mkstring
  0009c	03 f0		 add	 esi, eax

; 2093 : 	iChecksum += util_mkstring(buffer, _ÊúçÂä°Âô®Ê†áËØÜ);

  0009e	8d 85 7c bf ff
	ff		 lea	 eax, DWORD PTR _buffer$[ebp]
  000a4	68 00 00 00 00	 push	 OFFSET ??_C@_08NLHEDILN@ShiQiMax@
  000a9	50		 push	 eax
  000aa	e8 00 00 00 00	 call	 ?util_mkstring@@YAHPAD0@Z ; util_mkstring
  000af	03 f0		 add	 esi, eax

; 2094 : 	util_mkint(buffer, iChecksum);

  000b1	8d 85 7c bf ff
	ff		 lea	 eax, DWORD PTR _buffer$[ebp]
  000b7	56		 push	 esi
  000b8	50		 push	 eax
  000b9	e8 00 00 00 00	 call	 ?util_mkint@@YAHPADH@Z	; util_mkint

; 2095 : 
; 2096 : 	util_SendMesg(fd, LSSPROTO_CLIENTLOGIN_SEND, buffer);   //0x47  71

  000be	8d 85 7c bf ff
	ff		 lea	 eax, DWORD PTR _buffer$[ebp]
  000c4	50		 push	 eax
  000c5	6a 47		 push	 71			; 00000047H
  000c7	ff 75 08	 push	 DWORD PTR _fd$[ebp]
  000ca	e8 00 00 00 00	 call	 ?util_SendMesg@@YAXHHPAD@Z ; util_SendMesg

; 2097 : }

  000cf	8b 4d fc	 mov	 ecx, DWORD PTR __$ArrayPad$[ebp]
  000d2	83 c4 44	 add	 esp, 68			; 00000044H
  000d5	33 cd		 xor	 ecx, ebp
  000d7	5f		 pop	 edi
  000d8	5e		 pop	 esi
  000d9	e8 00 00 00 00	 call	 @__security_check_cookie@4
  000de	8b e5		 mov	 esp, ebp
  000e0	5d		 pop	 ebp
  000e1	c3		 ret	 0
?lssproto_ClientLogin_send@@YAXHPAD0@Z ENDP		; lssproto_ClientLogin_send
_TEXT	ENDS
; Function compile flags: /Ogtp
; File C:\Users\gg862\OneDrive\πŸ≈¡ »≠∏È\∏æƒÌøœ∑·\Client Source Code1.31¿œ∫ª\NewProto\protocol.cpp
;	COMDAT ?lssproto_SP_send@@YAXHHHH@Z
_TEXT	SEGMENT
_buffer$ = -16388					; size = 16384
__$ArrayPad$ = -4					; size = 4
_fd$ = 8						; size = 4
_x$ = 12						; size = 4
_y$ = 16						; size = 4
_dir$ = 20						; size = 4
?lssproto_SP_send@@YAXHHHH@Z PROC			; lssproto_SP_send, COMDAT

; 2048 : {

  00000	55		 push	 ebp
  00001	8b ec		 mov	 ebp, esp
  00003	b8 04 40 00 00	 mov	 eax, 16388		; 00004004H
  00008	e8 00 00 00 00	 call	 __chkstk
  0000d	a1 00 00 00 00	 mov	 eax, DWORD PTR ___security_cookie
  00012	33 c5		 xor	 eax, ebp
  00014	89 45 fc	 mov	 DWORD PTR __$ArrayPad$[ebp], eax
  00017	56		 push	 esi

; 2049 : 	char buffer[16384];
; 2050 : 	int iChecksum=0;
; 2051 : 
; 2052 : 	buffer[0] = '\0';
; 2053 : 	iChecksum += util_mkint(buffer, x);

  00018	ff 75 0c	 push	 DWORD PTR _x$[ebp]
  0001b	8d 85 fc bf ff
	ff		 lea	 eax, DWORD PTR _buffer$[ebp]
  00021	c6 85 fc bf ff
	ff 00		 mov	 BYTE PTR _buffer$[ebp], 0
  00028	50		 push	 eax
  00029	e8 00 00 00 00	 call	 ?util_mkint@@YAHPADH@Z	; util_mkint
  0002e	83 c4 08	 add	 esp, 8
  00031	8b f0		 mov	 esi, eax

; 2054 : 
; 2055 : 	if (g_ÊúçÂä°Âô® == SERVER_Âè∞Êúç)

  00033	83 3d 00 00 00
	00 01		 cmp	 DWORD PTR ?g_‹◊?–Ô@@3HA, 1 ; g_‹◊?–Ô
  0003a	75 16		 jne	 SHORT $LN2@lssproto_S

; 2056 : 	{
; 2057 : 		iChecksum += util_mkint(buffer, intÂè∞ÊúçÂèëÂåÖ);

  0003c	8d 85 fc bf ff
	ff		 lea	 eax, DWORD PTR _buffer$[ebp]
  00042	68 21 ac 12 00	 push	 1223713			; 0012ac21H
  00047	50		 push	 eax
  00048	e8 00 00 00 00	 call	 ?util_mkint@@YAHPADH@Z	; util_mkint
  0004d	83 c4 08	 add	 esp, 8
  00050	03 f0		 add	 esi, eax
$LN2@lssproto_S:

; 2058 : 	}
; 2059 : 
; 2060 : 	iChecksum += util_mkint(buffer, y);

  00052	ff 75 10	 push	 DWORD PTR _y$[ebp]
  00055	8d 85 fc bf ff
	ff		 lea	 eax, DWORD PTR _buffer$[ebp]
  0005b	50		 push	 eax
  0005c	e8 00 00 00 00	 call	 ?util_mkint@@YAHPADH@Z	; util_mkint

; 2061 : 	iChecksum += util_mkint(buffer, dir);

  00061	ff 75 14	 push	 DWORD PTR _dir$[ebp]
  00064	03 f0		 add	 esi, eax
  00066	8d 85 fc bf ff
	ff		 lea	 eax, DWORD PTR _buffer$[ebp]
  0006c	50		 push	 eax
  0006d	e8 00 00 00 00	 call	 ?util_mkint@@YAHPADH@Z	; util_mkint
  00072	03 f0		 add	 esi, eax

; 2062 : 	util_mkint(buffer, iChecksum);

  00074	8d 85 fc bf ff
	ff		 lea	 eax, DWORD PTR _buffer$[ebp]
  0007a	56		 push	 esi
  0007b	50		 push	 eax
  0007c	e8 00 00 00 00	 call	 ?util_mkint@@YAHPADH@Z	; util_mkint

; 2063 : 	util_SendMesg(fd, LSSPROTO_SP_SEND, buffer);  //0x46  70

  00081	8d 85 fc bf ff
	ff		 lea	 eax, DWORD PTR _buffer$[ebp]
  00087	50		 push	 eax
  00088	6a 46		 push	 70			; 00000046H
  0008a	ff 75 08	 push	 DWORD PTR _fd$[ebp]
  0008d	e8 00 00 00 00	 call	 ?util_SendMesg@@YAXHHPAD@Z ; util_SendMesg

; 2064 : }

  00092	8b 4d fc	 mov	 ecx, DWORD PTR __$ArrayPad$[ebp]
  00095	83 c4 24	 add	 esp, 36			; 00000024H
  00098	33 cd		 xor	 ecx, ebp
  0009a	5e		 pop	 esi
  0009b	e8 00 00 00 00	 call	 @__security_check_cookie@4
  000a0	8b e5		 mov	 esp, ebp
  000a2	5d		 pop	 ebp
  000a3	c3		 ret	 0
?lssproto_SP_send@@YAXHHHH@Z ENDP			; lssproto_SP_send
_TEXT	ENDS
; Function compile flags: /Ogtp
; File C:\Users\gg862\OneDrive\πŸ≈¡ »≠∏È\∏æƒÌøœ∑·\Client Source Code1.31¿œ∫ª\NewProto\protocol.cpp
;	COMDAT ?lssproto_WN_send@@YAXHHHHHHPAD@Z
_TEXT	SEGMENT
_buffer$ = -60004					; size = 60000
__$ArrayPad$ = -4					; size = 4
_fd$ = 8						; size = 4
_x$ = 12						; size = 4
_y$ = 16						; size = 4
_seqno$ = 20						; size = 4
_objindex$ = 24						; size = 4
_select$ = 28						; size = 4
_data$ = 32						; size = 4
?lssproto_WN_send@@YAXHHHHHHPAD@Z PROC			; lssproto_WN_send, COMDAT

; 2021 : {

  00000	55		 push	 ebp
  00001	8b ec		 mov	 ebp, esp
  00003	b8 64 ea 00 00	 mov	 eax, 60004		; 0000ea64H
  00008	e8 00 00 00 00	 call	 __chkstk
  0000d	a1 00 00 00 00	 mov	 eax, DWORD PTR ___security_cookie
  00012	33 c5		 xor	 eax, ebp
  00014	89 45 fc	 mov	 DWORD PTR __$ArrayPad$[ebp], eax
  00017	56		 push	 esi
  00018	57		 push	 edi

; 2022 : //	char buffer[16384];
; 2023 : 	char buffer[60000];
; 2024 : 	int iChecksum=0;
; 2025 : 
; 2026 : 	buffer[0] = '\0';
; 2027 : 	iChecksum += util_mkint(buffer, x);

  00019	ff 75 0c	 push	 DWORD PTR _x$[ebp]
  0001c	8b 7d 20	 mov	 edi, DWORD PTR _data$[ebp]
  0001f	8d 85 9c 15 ff
	ff		 lea	 eax, DWORD PTR _buffer$[ebp]
  00025	50		 push	 eax
  00026	c6 85 9c 15 ff
	ff 00		 mov	 BYTE PTR _buffer$[ebp], 0
  0002d	e8 00 00 00 00	 call	 ?util_mkint@@YAHPADH@Z	; util_mkint

; 2028 : 	iChecksum += util_mkint(buffer, y);

  00032	ff 75 10	 push	 DWORD PTR _y$[ebp]
  00035	8b f0		 mov	 esi, eax
  00037	8d 85 9c 15 ff
	ff		 lea	 eax, DWORD PTR _buffer$[ebp]
  0003d	50		 push	 eax
  0003e	e8 00 00 00 00	 call	 ?util_mkint@@YAHPADH@Z	; util_mkint

; 2029 : 	iChecksum += util_mkint(buffer, seqno);

  00043	ff 75 14	 push	 DWORD PTR _seqno$[ebp]
  00046	03 f0		 add	 esi, eax
  00048	8d 85 9c 15 ff
	ff		 lea	 eax, DWORD PTR _buffer$[ebp]
  0004e	50		 push	 eax
  0004f	e8 00 00 00 00	 call	 ?util_mkint@@YAHPADH@Z	; util_mkint
  00054	83 c4 18	 add	 esp, 24			; 00000018H
  00057	03 f0		 add	 esi, eax

; 2030 : 
; 2031 : 	if (g_ÊúçÂä°Âô® == SERVER_Âè∞Êúç)

  00059	83 3d 00 00 00
	00 01		 cmp	 DWORD PTR ?g_‹◊?–Ô@@3HA, 1 ; g_‹◊?–Ô
  00060	75 16		 jne	 SHORT $LN2@lssproto_W

; 2032 : 	{
; 2033 : 		iChecksum += util_mkint(buffer, intÂè∞ÊúçÂèëÂåÖ);

  00062	8d 85 9c 15 ff
	ff		 lea	 eax, DWORD PTR _buffer$[ebp]
  00068	68 21 ac 12 00	 push	 1223713			; 0012ac21H
  0006d	50		 push	 eax
  0006e	e8 00 00 00 00	 call	 ?util_mkint@@YAHPADH@Z	; util_mkint
  00073	83 c4 08	 add	 esp, 8
  00076	03 f0		 add	 esi, eax
$LN2@lssproto_W:

; 2034 : 	}
; 2035 : 
; 2036 : 	iChecksum += util_mkint(buffer, objindex);

  00078	ff 75 18	 push	 DWORD PTR _objindex$[ebp]
  0007b	8d 85 9c 15 ff
	ff		 lea	 eax, DWORD PTR _buffer$[ebp]
  00081	50		 push	 eax
  00082	e8 00 00 00 00	 call	 ?util_mkint@@YAHPADH@Z	; util_mkint

; 2037 : 	iChecksum += util_mkint(buffer, select);

  00087	ff 75 1c	 push	 DWORD PTR _select$[ebp]
  0008a	03 f0		 add	 esi, eax
  0008c	8d 85 9c 15 ff
	ff		 lea	 eax, DWORD PTR _buffer$[ebp]
  00092	50		 push	 eax
  00093	e8 00 00 00 00	 call	 ?util_mkint@@YAHPADH@Z	; util_mkint
  00098	03 f0		 add	 esi, eax

; 2038 : 	//char* data2 = new char[5000];
; 2039 : 	//memset(data2, 0, 5000);
; 2040 : 	//memset(data2, 97, 1000);
; 2041 : 	//iChecksum += util_mkstring(buffer, data2);
; 2042 : 	iChecksum += util_mkstring(buffer, data);

  0009a	8d 85 9c 15 ff
	ff		 lea	 eax, DWORD PTR _buffer$[ebp]
  000a0	57		 push	 edi
  000a1	50		 push	 eax
  000a2	e8 00 00 00 00	 call	 ?util_mkstring@@YAHPAD0@Z ; util_mkstring
  000a7	03 f0		 add	 esi, eax

; 2043 : 	util_mkint(buffer, iChecksum);

  000a9	8d 85 9c 15 ff
	ff		 lea	 eax, DWORD PTR _buffer$[ebp]
  000af	56		 push	 esi
  000b0	50		 push	 eax
  000b1	e8 00 00 00 00	 call	 ?util_mkint@@YAHPADH@Z	; util_mkint

; 2044 : 	util_SendMesg(fd, LSSPROTO_WN_SEND, buffer);  //0x43  67

  000b6	8d 85 9c 15 ff
	ff		 lea	 eax, DWORD PTR _buffer$[ebp]
  000bc	50		 push	 eax
  000bd	6a 43		 push	 67			; 00000043H
  000bf	ff 75 08	 push	 DWORD PTR _fd$[ebp]
  000c2	e8 00 00 00 00	 call	 ?util_SendMesg@@YAXHHPAD@Z ; util_SendMesg

; 2045 : }

  000c7	8b 4d fc	 mov	 ecx, DWORD PTR __$ArrayPad$[ebp]
  000ca	83 c4 2c	 add	 esp, 44			; 0000002cH
  000cd	33 cd		 xor	 ecx, ebp
  000cf	5f		 pop	 edi
  000d0	5e		 pop	 esi
  000d1	e8 00 00 00 00	 call	 @__security_check_cookie@4
  000d6	8b e5		 mov	 esp, ebp
  000d8	5d		 pop	 ebp
  000d9	c3		 ret	 0
?lssproto_WN_send@@YAXHHHHHHPAD@Z ENDP			; lssproto_WN_send
_TEXT	ENDS
; Function compile flags: /Ogtp
; File C:\Users\gg862\OneDrive\πŸ≈¡ »≠∏È\∏æƒÌøœ∑·\Client Source Code1.31¿œ∫ª\NewProto\protocol.cpp
;	COMDAT ?lssproto_KN_send@@YAXHHPAD@Z
_TEXT	SEGMENT
_buffer$ = -16388					; size = 16384
__$ArrayPad$ = -4					; size = 4
_fd$ = 8						; size = 4
_havepetindex$ = 12					; size = 4
_data$ = 16						; size = 4
?lssproto_KN_send@@YAXHHPAD@Z PROC			; lssproto_KN_send, COMDAT

; 2003 : {

  00000	55		 push	 ebp
  00001	8b ec		 mov	 ebp, esp
  00003	b8 04 40 00 00	 mov	 eax, 16388		; 00004004H
  00008	e8 00 00 00 00	 call	 __chkstk
  0000d	a1 00 00 00 00	 mov	 eax, DWORD PTR ___security_cookie
  00012	33 c5		 xor	 eax, ebp
  00014	89 45 fc	 mov	 DWORD PTR __$ArrayPad$[ebp], eax
  00017	56		 push	 esi
  00018	57		 push	 edi

; 2004 : 	char buffer[16384];
; 2005 : 	int iChecksum=0;
; 2006 : 
; 2007 : 	buffer[0] = '\0';
; 2008 : 	iChecksum += util_mkint(buffer, havepetindex);

  00019	ff 75 0c	 push	 DWORD PTR _havepetindex$[ebp]
  0001c	8b 7d 10	 mov	 edi, DWORD PTR _data$[ebp]
  0001f	8d 85 fc bf ff
	ff		 lea	 eax, DWORD PTR _buffer$[ebp]
  00025	50		 push	 eax
  00026	c6 85 fc bf ff
	ff 00		 mov	 BYTE PTR _buffer$[ebp], 0
  0002d	e8 00 00 00 00	 call	 ?util_mkint@@YAHPADH@Z	; util_mkint
  00032	83 c4 08	 add	 esp, 8
  00035	8b f0		 mov	 esi, eax

; 2009 : 
; 2010 : 	if (g_ÊúçÂä°Âô® == SERVER_Âè∞Êúç)

  00037	83 3d 00 00 00
	00 01		 cmp	 DWORD PTR ?g_‹◊?–Ô@@3HA, 1 ; g_‹◊?–Ô
  0003e	75 16		 jne	 SHORT $LN2@lssproto_K

; 2011 : 	{
; 2012 : 		iChecksum += util_mkint(buffer, intÂè∞ÊúçÂèëÂåÖ);

  00040	8d 85 fc bf ff
	ff		 lea	 eax, DWORD PTR _buffer$[ebp]
  00046	68 21 ac 12 00	 push	 1223713			; 0012ac21H
  0004b	50		 push	 eax
  0004c	e8 00 00 00 00	 call	 ?util_mkint@@YAHPADH@Z	; util_mkint
  00051	83 c4 08	 add	 esp, 8
  00054	03 f0		 add	 esi, eax
$LN2@lssproto_K:

; 2013 : 	}
; 2014 : 
; 2015 : 	iChecksum += util_mkstring(buffer, data);

  00056	8d 85 fc bf ff
	ff		 lea	 eax, DWORD PTR _buffer$[ebp]
  0005c	57		 push	 edi
  0005d	50		 push	 eax
  0005e	e8 00 00 00 00	 call	 ?util_mkstring@@YAHPAD0@Z ; util_mkstring
  00063	03 f0		 add	 esi, eax

; 2016 : 	util_mkint(buffer, iChecksum);

  00065	8d 85 fc bf ff
	ff		 lea	 eax, DWORD PTR _buffer$[ebp]
  0006b	56		 push	 esi
  0006c	50		 push	 eax
  0006d	e8 00 00 00 00	 call	 ?util_mkint@@YAHPADH@Z	; util_mkint

; 2017 : 	util_SendMesg(fd, LSSPROTO_KN_SEND, buffer);  //0x41  65

  00072	8d 85 fc bf ff
	ff		 lea	 eax, DWORD PTR _buffer$[ebp]
  00078	50		 push	 eax
  00079	6a 41		 push	 65			; 00000041H
  0007b	ff 75 08	 push	 DWORD PTR _fd$[ebp]
  0007e	e8 00 00 00 00	 call	 ?util_SendMesg@@YAXHHPAD@Z ; util_SendMesg

; 2018 : }

  00083	8b 4d fc	 mov	 ecx, DWORD PTR __$ArrayPad$[ebp]
  00086	83 c4 1c	 add	 esp, 28			; 0000001cH
  00089	33 cd		 xor	 ecx, ebp
  0008b	5f		 pop	 edi
  0008c	5e		 pop	 esi
  0008d	e8 00 00 00 00	 call	 @__security_check_cookie@4
  00092	8b e5		 mov	 esp, ebp
  00094	5d		 pop	 ebp
  00095	c3		 ret	 0
?lssproto_KN_send@@YAXHHPAD@Z ENDP			; lssproto_KN_send
_TEXT	ENDS
; Function compile flags: /Ogtp
; File C:\Users\gg862\OneDrive\πŸ≈¡ »≠∏È\∏æƒÌøœ∑·\Client Source Code1.31¿œ∫ª\NewProto\protocol.cpp
;	COMDAT ?lssproto_SKUP_send@@YAXHH@Z
_TEXT	SEGMENT
_buffer$ = -16388					; size = 16384
__$ArrayPad$ = -4					; size = 4
_fd$ = 8						; size = 4
_skillid$ = 12						; size = 4
?lssproto_SKUP_send@@YAXHH@Z PROC			; lssproto_SKUP_send, COMDAT

; 1986 : {

  00000	55		 push	 ebp
  00001	8b ec		 mov	 ebp, esp
  00003	b8 04 40 00 00	 mov	 eax, 16388		; 00004004H
  00008	e8 00 00 00 00	 call	 __chkstk
  0000d	a1 00 00 00 00	 mov	 eax, DWORD PTR ___security_cookie
  00012	33 c5		 xor	 eax, ebp
  00014	89 45 fc	 mov	 DWORD PTR __$ArrayPad$[ebp], eax
  00017	56		 push	 esi

; 1987 : 	char buffer[16384];
; 1988 : 	int iChecksum=0;

  00018	33 f6		 xor	 esi, esi

; 1989 : 
; 1990 : 	buffer[0] = '\0';

  0001a	c6 85 fc bf ff
	ff 00		 mov	 BYTE PTR _buffer$[ebp], 0

; 1991 : 
; 1992 : 	if (g_ÊúçÂä°Âô® == SERVER_Âè∞Êúç)

  00021	83 3d 00 00 00
	00 01		 cmp	 DWORD PTR ?g_‹◊?–Ô@@3HA, 1 ; g_‹◊?–Ô
  00028	75 16		 jne	 SHORT $LN2@lssproto_S

; 1993 : 	{
; 1994 : 		iChecksum += util_mkint(buffer, intÂè∞ÊúçÂèëÂåÖ);

  0002a	8d 85 fc bf ff
	ff		 lea	 eax, DWORD PTR _buffer$[ebp]
  00030	68 21 ac 12 00	 push	 1223713			; 0012ac21H
  00035	50		 push	 eax
  00036	e8 00 00 00 00	 call	 ?util_mkint@@YAHPADH@Z	; util_mkint
  0003b	83 c4 08	 add	 esp, 8
  0003e	8b f0		 mov	 esi, eax
$LN2@lssproto_S:

; 1995 : 	}
; 1996 : 
; 1997 : 	iChecksum += util_mkint(buffer, skillid);

  00040	ff 75 0c	 push	 DWORD PTR _skillid$[ebp]
  00043	8d 85 fc bf ff
	ff		 lea	 eax, DWORD PTR _buffer$[ebp]
  00049	50		 push	 eax
  0004a	e8 00 00 00 00	 call	 ?util_mkint@@YAHPADH@Z	; util_mkint
  0004f	03 f0		 add	 esi, eax

; 1998 : 	util_mkint(buffer, iChecksum);

  00051	8d 85 fc bf ff
	ff		 lea	 eax, DWORD PTR _buffer$[ebp]
  00057	56		 push	 esi
  00058	50		 push	 eax
  00059	e8 00 00 00 00	 call	 ?util_mkint@@YAHPADH@Z	; util_mkint

; 1999 : 	util_SendMesg(fd, LSSPROTO_SKUP_SEND, buffer);//0x40  64

  0005e	8d 85 fc bf ff
	ff		 lea	 eax, DWORD PTR _buffer$[ebp]
  00064	50		 push	 eax
  00065	6a 40		 push	 64			; 00000040H
  00067	ff 75 08	 push	 DWORD PTR _fd$[ebp]
  0006a	e8 00 00 00 00	 call	 ?util_SendMesg@@YAXHHPAD@Z ; util_SendMesg

; 2000 : }

  0006f	8b 4d fc	 mov	 ecx, DWORD PTR __$ArrayPad$[ebp]
  00072	83 c4 1c	 add	 esp, 28			; 0000001cH
  00075	33 cd		 xor	 ecx, ebp
  00077	5e		 pop	 esi
  00078	e8 00 00 00 00	 call	 @__security_check_cookie@4
  0007d	8b e5		 mov	 esp, ebp
  0007f	5d		 pop	 ebp
  00080	c3		 ret	 0
?lssproto_SKUP_send@@YAXHH@Z ENDP			; lssproto_SKUP_send
_TEXT	ENDS
; Function compile flags: /Ogtp
; File C:\Users\gg862\OneDrive\πŸ≈¡ »≠∏È\∏æƒÌøœ∑·\Client Source Code1.31¿œ∫ª\NewProto\protocol.cpp
;	COMDAT ?lssproto_FT_send@@YAXHPAD@Z
_TEXT	SEGMENT
_buffer$ = -16388					; size = 16384
__$ArrayPad$ = -4					; size = 4
_fd$ = 8						; size = 4
_data$ = 12						; size = 4
?lssproto_FT_send@@YAXHPAD@Z PROC			; lssproto_FT_send, COMDAT

; 1969 : {

  00000	55		 push	 ebp
  00001	8b ec		 mov	 ebp, esp
  00003	b8 04 40 00 00	 mov	 eax, 16388		; 00004004H
  00008	e8 00 00 00 00	 call	 __chkstk
  0000d	a1 00 00 00 00	 mov	 eax, DWORD PTR ___security_cookie
  00012	33 c5		 xor	 eax, ebp
  00014	89 45 fc	 mov	 DWORD PTR __$ArrayPad$[ebp], eax
  00017	56		 push	 esi

; 1970 : 	char buffer[16384];
; 1971 : 	int iChecksum=0;

  00018	33 f6		 xor	 esi, esi

; 1972 : 
; 1973 : 	buffer[0] = '\0';

  0001a	c6 85 fc bf ff
	ff 00		 mov	 BYTE PTR _buffer$[ebp], 0

; 1974 : 
; 1975 : 	if (g_ÊúçÂä°Âô® == SERVER_Âè∞Êúç)

  00021	83 3d 00 00 00
	00 01		 cmp	 DWORD PTR ?g_‹◊?–Ô@@3HA, 1 ; g_‹◊?–Ô
  00028	57		 push	 edi
  00029	8b 7d 0c	 mov	 edi, DWORD PTR _data$[ebp]
  0002c	75 16		 jne	 SHORT $LN2@lssproto_F

; 1976 : 	{
; 1977 : 		iChecksum += util_mkint(buffer, intÂè∞ÊúçÂèëÂåÖ);

  0002e	8d 85 fc bf ff
	ff		 lea	 eax, DWORD PTR _buffer$[ebp]
  00034	68 21 ac 12 00	 push	 1223713			; 0012ac21H
  00039	50		 push	 eax
  0003a	e8 00 00 00 00	 call	 ?util_mkint@@YAHPADH@Z	; util_mkint
  0003f	83 c4 08	 add	 esp, 8
  00042	8b f0		 mov	 esi, eax
$LN2@lssproto_F:

; 1978 : 	}
; 1979 : 
; 1980 : 	iChecksum += util_mkstring(buffer, data);

  00044	8d 85 fc bf ff
	ff		 lea	 eax, DWORD PTR _buffer$[ebp]
  0004a	57		 push	 edi
  0004b	50		 push	 eax
  0004c	e8 00 00 00 00	 call	 ?util_mkstring@@YAHPAD0@Z ; util_mkstring
  00051	03 f0		 add	 esi, eax

; 1981 : 	util_mkint(buffer, iChecksum);

  00053	8d 85 fc bf ff
	ff		 lea	 eax, DWORD PTR _buffer$[ebp]
  00059	56		 push	 esi
  0005a	50		 push	 eax
  0005b	e8 00 00 00 00	 call	 ?util_mkint@@YAHPADH@Z	; util_mkint

; 1982 : 	util_SendMesg(fd, LSSPROTO_FT_SEND, buffer);  //0x3e  62

  00060	8d 85 fc bf ff
	ff		 lea	 eax, DWORD PTR _buffer$[ebp]
  00066	50		 push	 eax
  00067	6a 3e		 push	 62			; 0000003eH
  00069	ff 75 08	 push	 DWORD PTR _fd$[ebp]
  0006c	e8 00 00 00 00	 call	 ?util_SendMesg@@YAXHHPAD@Z ; util_SendMesg

; 1983 : }

  00071	8b 4d fc	 mov	 ecx, DWORD PTR __$ArrayPad$[ebp]
  00074	83 c4 1c	 add	 esp, 28			; 0000001cH
  00077	33 cd		 xor	 ecx, ebp
  00079	5f		 pop	 edi
  0007a	5e		 pop	 esi
  0007b	e8 00 00 00 00	 call	 @__security_check_cookie@4
  00080	8b e5		 mov	 esp, ebp
  00082	5d		 pop	 ebp
  00083	c3		 ret	 0
?lssproto_FT_send@@YAXHPAD@Z ENDP			; lssproto_FT_send
_TEXT	ENDS
; Function compile flags: /Ogtp
; File C:\Users\gg862\OneDrive\πŸ≈¡ »≠∏È\∏æƒÌøœ∑·\Client Source Code1.31¿œ∫ª\NewProto\protocol.cpp
;	COMDAT ?lssproto_DT_send@@YAXHH@Z
_TEXT	SEGMENT
_buffer$ = -16388					; size = 16384
__$ArrayPad$ = -4					; size = 4
_fd$ = 8						; size = 4
_titleindex$ = 12					; size = 4
?lssproto_DT_send@@YAXHH@Z PROC				; lssproto_DT_send, COMDAT

; 1954 : {

  00000	55		 push	 ebp
  00001	8b ec		 mov	 ebp, esp
  00003	b8 04 40 00 00	 mov	 eax, 16388		; 00004004H
  00008	e8 00 00 00 00	 call	 __chkstk
  0000d	a1 00 00 00 00	 mov	 eax, DWORD PTR ___security_cookie
  00012	33 c5		 xor	 eax, ebp
  00014	89 45 fc	 mov	 DWORD PTR __$ArrayPad$[ebp], eax
  00017	56		 push	 esi

; 1955 : 	char buffer[16384];
; 1956 : 	int iChecksum=0;

  00018	33 f6		 xor	 esi, esi

; 1957 : 
; 1958 : 	buffer[0] = '\0';

  0001a	c6 85 fc bf ff
	ff 00		 mov	 BYTE PTR _buffer$[ebp], 0

; 1959 : 	if (g_ÊúçÂä°Âô® == SERVER_Âè∞Êúç)

  00021	83 3d 00 00 00
	00 01		 cmp	 DWORD PTR ?g_‹◊?–Ô@@3HA, 1 ; g_‹◊?–Ô
  00028	75 16		 jne	 SHORT $LN2@lssproto_D

; 1960 : 	{
; 1961 : 		iChecksum += util_mkint(buffer, intÂè∞ÊúçÂèëÂåÖ);

  0002a	8d 85 fc bf ff
	ff		 lea	 eax, DWORD PTR _buffer$[ebp]
  00030	68 21 ac 12 00	 push	 1223713			; 0012ac21H
  00035	50		 push	 eax
  00036	e8 00 00 00 00	 call	 ?util_mkint@@YAHPADH@Z	; util_mkint
  0003b	83 c4 08	 add	 esp, 8
  0003e	8b f0		 mov	 esi, eax
$LN2@lssproto_D:

; 1962 : 	}
; 1963 : 	iChecksum += util_mkint(buffer, titleindex);

  00040	ff 75 0c	 push	 DWORD PTR _titleindex$[ebp]
  00043	8d 85 fc bf ff
	ff		 lea	 eax, DWORD PTR _buffer$[ebp]
  00049	50		 push	 eax
  0004a	e8 00 00 00 00	 call	 ?util_mkint@@YAHPADH@Z	; util_mkint
  0004f	03 f0		 add	 esi, eax

; 1964 : 	util_mkint(buffer, iChecksum);

  00051	8d 85 fc bf ff
	ff		 lea	 eax, DWORD PTR _buffer$[ebp]
  00057	56		 push	 esi
  00058	50		 push	 eax
  00059	e8 00 00 00 00	 call	 ?util_mkint@@YAHPADH@Z	; util_mkint

; 1965 : 	util_SendMesg(fd, LSSPROTO_DT_SEND, buffer);  //0x3d  61

  0005e	8d 85 fc bf ff
	ff		 lea	 eax, DWORD PTR _buffer$[ebp]
  00064	50		 push	 eax
  00065	6a 3d		 push	 61			; 0000003dH
  00067	ff 75 08	 push	 DWORD PTR _fd$[ebp]
  0006a	e8 00 00 00 00	 call	 ?util_SendMesg@@YAXHHPAD@Z ; util_SendMesg

; 1966 : }

  0006f	8b 4d fc	 mov	 ecx, DWORD PTR __$ArrayPad$[ebp]
  00072	83 c4 1c	 add	 esp, 28			; 0000001cH
  00075	33 cd		 xor	 ecx, ebp
  00077	5e		 pop	 esi
  00078	e8 00 00 00 00	 call	 @__security_check_cookie@4
  0007d	8b e5		 mov	 esp, ebp
  0007f	5d		 pop	 ebp
  00080	c3		 ret	 0
?lssproto_DT_send@@YAXHH@Z ENDP				; lssproto_DT_send
_TEXT	ENDS
; Function compile flags: /Ogtp
; File C:\Users\gg862\OneDrive\πŸ≈¡ »≠∏È\∏æƒÌøœ∑·\Client Source Code1.31¿œ∫ª\NewProto\protocol.cpp
;	COMDAT ?lssproto_ST_send@@YAXHH@Z
_TEXT	SEGMENT
_buffer$ = -16388					; size = 16384
__$ArrayPad$ = -4					; size = 4
_fd$ = 8						; size = 4
_titleindex$ = 12					; size = 4
?lssproto_ST_send@@YAXHH@Z PROC				; lssproto_ST_send, COMDAT

; 1937 : {

  00000	55		 push	 ebp
  00001	8b ec		 mov	 ebp, esp
  00003	b8 04 40 00 00	 mov	 eax, 16388		; 00004004H
  00008	e8 00 00 00 00	 call	 __chkstk
  0000d	a1 00 00 00 00	 mov	 eax, DWORD PTR ___security_cookie
  00012	33 c5		 xor	 eax, ebp
  00014	89 45 fc	 mov	 DWORD PTR __$ArrayPad$[ebp], eax
  00017	56		 push	 esi

; 1938 : 	char buffer[16384];
; 1939 : 	int iChecksum=0;
; 1940 : 
; 1941 : 	buffer[0] = '\0';
; 1942 : 	iChecksum += util_mkint(buffer, titleindex);

  00018	ff 75 0c	 push	 DWORD PTR _titleindex$[ebp]
  0001b	8d 85 fc bf ff
	ff		 lea	 eax, DWORD PTR _buffer$[ebp]
  00021	c6 85 fc bf ff
	ff 00		 mov	 BYTE PTR _buffer$[ebp], 0
  00028	50		 push	 eax
  00029	e8 00 00 00 00	 call	 ?util_mkint@@YAHPADH@Z	; util_mkint
  0002e	83 c4 08	 add	 esp, 8
  00031	8b f0		 mov	 esi, eax

; 1943 : 
; 1944 : 	if (g_ÊúçÂä°Âô® == SERVER_Âè∞Êúç)

  00033	83 3d 00 00 00
	00 01		 cmp	 DWORD PTR ?g_‹◊?–Ô@@3HA, 1 ; g_‹◊?–Ô
  0003a	75 16		 jne	 SHORT $LN2@lssproto_S

; 1945 : 	{
; 1946 : 		iChecksum += util_mkint(buffer, intÂè∞ÊúçÂèëÂåÖ);

  0003c	8d 85 fc bf ff
	ff		 lea	 eax, DWORD PTR _buffer$[ebp]
  00042	68 21 ac 12 00	 push	 1223713			; 0012ac21H
  00047	50		 push	 eax
  00048	e8 00 00 00 00	 call	 ?util_mkint@@YAHPADH@Z	; util_mkint
  0004d	83 c4 08	 add	 esp, 8
  00050	03 f0		 add	 esi, eax
$LN2@lssproto_S:

; 1947 : 	}
; 1948 : 
; 1949 : 	util_mkint(buffer, iChecksum);

  00052	8d 85 fc bf ff
	ff		 lea	 eax, DWORD PTR _buffer$[ebp]
  00058	56		 push	 esi
  00059	50		 push	 eax
  0005a	e8 00 00 00 00	 call	 ?util_mkint@@YAHPADH@Z	; util_mkint

; 1950 : 	util_SendMesg(fd, LSSPROTO_ST_SEND, buffer); //0x3c 60

  0005f	8d 85 fc bf ff
	ff		 lea	 eax, DWORD PTR _buffer$[ebp]
  00065	50		 push	 eax
  00066	6a 3c		 push	 60			; 0000003cH
  00068	ff 75 08	 push	 DWORD PTR _fd$[ebp]
  0006b	e8 00 00 00 00	 call	 ?util_SendMesg@@YAXHHPAD@Z ; util_SendMesg

; 1951 : }

  00070	8b 4d fc	 mov	 ecx, DWORD PTR __$ArrayPad$[ebp]
  00073	83 c4 14	 add	 esp, 20			; 00000014H
  00076	33 cd		 xor	 ecx, ebp
  00078	5e		 pop	 esi
  00079	e8 00 00 00 00	 call	 @__security_check_cookie@4
  0007e	8b e5		 mov	 esp, ebp
  00080	5d		 pop	 ebp
  00081	c3		 ret	 0
?lssproto_ST_send@@YAXHH@Z ENDP				; lssproto_ST_send
_TEXT	ENDS
; Function compile flags: /Ogtp
; File C:\Users\gg862\OneDrive\πŸ≈¡ »≠∏È\∏æƒÌøœ∑·\Client Source Code1.31¿œ∫ª\NewProto\protocol.cpp
;	COMDAT ?lssproto_PS_send@@YAXHHHHPAD@Z
_TEXT	SEGMENT
_buffer$ = -16388					; size = 16384
__$ArrayPad$ = -4					; size = 4
_fd$ = 8						; size = 4
_havepetindex$ = 12					; size = 4
_havepetskill$ = 16					; size = 4
_toindex$ = 20						; size = 4
_data$ = 24						; size = 4
?lssproto_PS_send@@YAXHHHHPAD@Z PROC			; lssproto_PS_send, COMDAT

; 1917 : {

  00000	55		 push	 ebp
  00001	8b ec		 mov	 ebp, esp
  00003	b8 04 40 00 00	 mov	 eax, 16388		; 00004004H
  00008	e8 00 00 00 00	 call	 __chkstk
  0000d	a1 00 00 00 00	 mov	 eax, DWORD PTR ___security_cookie
  00012	33 c5		 xor	 eax, ebp
  00014	89 45 fc	 mov	 DWORD PTR __$ArrayPad$[ebp], eax
  00017	56		 push	 esi
  00018	57		 push	 edi

; 1918 : 	char buffer[16384];
; 1919 : 	int iChecksum=0;
; 1920 : 
; 1921 : 	buffer[0] = '\0';
; 1922 : 	iChecksum += util_mkint(buffer, havepetindex);

  00019	ff 75 0c	 push	 DWORD PTR _havepetindex$[ebp]
  0001c	8b 7d 18	 mov	 edi, DWORD PTR _data$[ebp]
  0001f	8d 85 fc bf ff
	ff		 lea	 eax, DWORD PTR _buffer$[ebp]
  00025	50		 push	 eax
  00026	c6 85 fc bf ff
	ff 00		 mov	 BYTE PTR _buffer$[ebp], 0
  0002d	e8 00 00 00 00	 call	 ?util_mkint@@YAHPADH@Z	; util_mkint

; 1923 : 	iChecksum += util_mkint(buffer, havepetskill);

  00032	ff 75 10	 push	 DWORD PTR _havepetskill$[ebp]
  00035	8b f0		 mov	 esi, eax
  00037	8d 85 fc bf ff
	ff		 lea	 eax, DWORD PTR _buffer$[ebp]
  0003d	50		 push	 eax
  0003e	e8 00 00 00 00	 call	 ?util_mkint@@YAHPADH@Z	; util_mkint
  00043	83 c4 10	 add	 esp, 16			; 00000010H
  00046	03 f0		 add	 esi, eax

; 1924 : 
; 1925 : 	if (g_ÊúçÂä°Âô® == SERVER_Âè∞Êúç)

  00048	83 3d 00 00 00
	00 01		 cmp	 DWORD PTR ?g_‹◊?–Ô@@3HA, 1 ; g_‹◊?–Ô
  0004f	75 16		 jne	 SHORT $LN2@lssproto_P

; 1926 : 	{
; 1927 : 		iChecksum += util_mkint(buffer, intÂè∞ÊúçÂèëÂåÖ);

  00051	8d 85 fc bf ff
	ff		 lea	 eax, DWORD PTR _buffer$[ebp]
  00057	68 21 ac 12 00	 push	 1223713			; 0012ac21H
  0005c	50		 push	 eax
  0005d	e8 00 00 00 00	 call	 ?util_mkint@@YAHPADH@Z	; util_mkint
  00062	83 c4 08	 add	 esp, 8
  00065	03 f0		 add	 esi, eax
$LN2@lssproto_P:

; 1928 : 	}
; 1929 : 
; 1930 : 	iChecksum += util_mkint(buffer, toindex);

  00067	ff 75 14	 push	 DWORD PTR _toindex$[ebp]
  0006a	8d 85 fc bf ff
	ff		 lea	 eax, DWORD PTR _buffer$[ebp]
  00070	50		 push	 eax
  00071	e8 00 00 00 00	 call	 ?util_mkint@@YAHPADH@Z	; util_mkint
  00076	03 f0		 add	 esi, eax

; 1931 : 	iChecksum += util_mkstring(buffer, data);

  00078	8d 85 fc bf ff
	ff		 lea	 eax, DWORD PTR _buffer$[ebp]
  0007e	57		 push	 edi
  0007f	50		 push	 eax
  00080	e8 00 00 00 00	 call	 ?util_mkstring@@YAHPAD0@Z ; util_mkstring
  00085	03 f0		 add	 esi, eax

; 1932 : 	util_mkint(buffer, iChecksum);

  00087	8d 85 fc bf ff
	ff		 lea	 eax, DWORD PTR _buffer$[ebp]
  0008d	56		 push	 esi
  0008e	50		 push	 eax
  0008f	e8 00 00 00 00	 call	 ?util_mkint@@YAHPADH@Z	; util_mkint

; 1933 : 	util_SendMesg(fd, LSSPROTO_PS_SEND, buffer); //0x3a  58

  00094	8d 85 fc bf ff
	ff		 lea	 eax, DWORD PTR _buffer$[ebp]
  0009a	50		 push	 eax
  0009b	6a 3a		 push	 58			; 0000003aH
  0009d	ff 75 08	 push	 DWORD PTR _fd$[ebp]
  000a0	e8 00 00 00 00	 call	 ?util_SendMesg@@YAXHHPAD@Z ; util_SendMesg

; 1934 : }

  000a5	8b 4d fc	 mov	 ecx, DWORD PTR __$ArrayPad$[ebp]
  000a8	83 c4 24	 add	 esp, 36			; 00000024H
  000ab	33 cd		 xor	 ecx, ebp
  000ad	5f		 pop	 edi
  000ae	5e		 pop	 esi
  000af	e8 00 00 00 00	 call	 @__security_check_cookie@4
  000b4	8b e5		 mov	 esp, ebp
  000b6	5d		 pop	 ebp
  000b7	c3		 ret	 0
?lssproto_PS_send@@YAXHHHHPAD@Z ENDP			; lssproto_PS_send
_TEXT	ENDS
; Function compile flags: /Ogtp
; File C:\Users\gg862\OneDrive\πŸ≈¡ »≠∏È\∏æƒÌøœ∑·\Client Source Code1.31¿œ∫ª\NewProto\protocol.cpp
;	COMDAT ?lssproto_MU_send@@YAXHHHHH@Z
_TEXT	SEGMENT
_buffer$ = -16388					; size = 16384
__$ArrayPad$ = -4					; size = 4
_fd$ = 8						; size = 4
_x$ = 12						; size = 4
_y$ = 16						; size = 4
_array$ = 20						; size = 4
_toindex$ = 24						; size = 4
?lssproto_MU_send@@YAXHHHHH@Z PROC			; lssproto_MU_send, COMDAT

; 1897 : {

  00000	55		 push	 ebp
  00001	8b ec		 mov	 ebp, esp
  00003	b8 04 40 00 00	 mov	 eax, 16388		; 00004004H
  00008	e8 00 00 00 00	 call	 __chkstk
  0000d	a1 00 00 00 00	 mov	 eax, DWORD PTR ___security_cookie
  00012	33 c5		 xor	 eax, ebp
  00014	89 45 fc	 mov	 DWORD PTR __$ArrayPad$[ebp], eax
  00017	56		 push	 esi

; 1898 : 	char buffer[16384];
; 1899 : 	int iChecksum=0;
; 1900 : 
; 1901 : 	buffer[0] = '\0';
; 1902 : 	iChecksum += util_mkint(buffer, x);

  00018	ff 75 0c	 push	 DWORD PTR _x$[ebp]
  0001b	8d 85 fc bf ff
	ff		 lea	 eax, DWORD PTR _buffer$[ebp]
  00021	c6 85 fc bf ff
	ff 00		 mov	 BYTE PTR _buffer$[ebp], 0
  00028	50		 push	 eax
  00029	e8 00 00 00 00	 call	 ?util_mkint@@YAHPADH@Z	; util_mkint

; 1903 : 	iChecksum += util_mkint(buffer, y);

  0002e	ff 75 10	 push	 DWORD PTR _y$[ebp]
  00031	8b f0		 mov	 esi, eax
  00033	8d 85 fc bf ff
	ff		 lea	 eax, DWORD PTR _buffer$[ebp]
  00039	50		 push	 eax
  0003a	e8 00 00 00 00	 call	 ?util_mkint@@YAHPADH@Z	; util_mkint
  0003f	83 c4 10	 add	 esp, 16			; 00000010H
  00042	03 f0		 add	 esi, eax

; 1904 : 
; 1905 : 	if (g_ÊúçÂä°Âô® == SERVER_Âè∞Êúç)

  00044	83 3d 00 00 00
	00 01		 cmp	 DWORD PTR ?g_‹◊?–Ô@@3HA, 1 ; g_‹◊?–Ô
  0004b	75 16		 jne	 SHORT $LN2@lssproto_M

; 1906 : 	{
; 1907 : 		iChecksum += util_mkint(buffer, intÂè∞ÊúçÂèëÂåÖ);

  0004d	8d 85 fc bf ff
	ff		 lea	 eax, DWORD PTR _buffer$[ebp]
  00053	68 21 ac 12 00	 push	 1223713			; 0012ac21H
  00058	50		 push	 eax
  00059	e8 00 00 00 00	 call	 ?util_mkint@@YAHPADH@Z	; util_mkint
  0005e	83 c4 08	 add	 esp, 8
  00061	03 f0		 add	 esi, eax
$LN2@lssproto_M:

; 1908 : 	}
; 1909 : 
; 1910 : 	iChecksum += util_mkint(buffer, array);

  00063	ff 75 14	 push	 DWORD PTR _array$[ebp]
  00066	8d 85 fc bf ff
	ff		 lea	 eax, DWORD PTR _buffer$[ebp]
  0006c	50		 push	 eax
  0006d	e8 00 00 00 00	 call	 ?util_mkint@@YAHPADH@Z	; util_mkint

; 1911 : 	iChecksum += util_mkint(buffer, toindex);

  00072	ff 75 18	 push	 DWORD PTR _toindex$[ebp]
  00075	03 f0		 add	 esi, eax
  00077	8d 85 fc bf ff
	ff		 lea	 eax, DWORD PTR _buffer$[ebp]
  0007d	50		 push	 eax
  0007e	e8 00 00 00 00	 call	 ?util_mkint@@YAHPADH@Z	; util_mkint
  00083	03 f0		 add	 esi, eax

; 1912 : 	util_mkint(buffer, iChecksum);

  00085	8d 85 fc bf ff
	ff		 lea	 eax, DWORD PTR _buffer$[ebp]
  0008b	56		 push	 esi
  0008c	50		 push	 eax
  0008d	e8 00 00 00 00	 call	 ?util_mkint@@YAHPADH@Z	; util_mkint

; 1913 : 	util_SendMesg(fd, LSSPROTO_MU_SEND, buffer);  //0x39  57

  00092	8d 85 fc bf ff
	ff		 lea	 eax, DWORD PTR _buffer$[ebp]
  00098	50		 push	 eax
  00099	6a 39		 push	 57			; 00000039H
  0009b	ff 75 08	 push	 DWORD PTR _fd$[ebp]
  0009e	e8 00 00 00 00	 call	 ?util_SendMesg@@YAXHHPAD@Z ; util_SendMesg

; 1914 : }

  000a3	8b 4d fc	 mov	 ecx, DWORD PTR __$ArrayPad$[ebp]
  000a6	83 c4 24	 add	 esp, 36			; 00000024H
  000a9	33 cd		 xor	 ecx, ebp
  000ab	5e		 pop	 esi
  000ac	e8 00 00 00 00	 call	 @__security_check_cookie@4
  000b1	8b e5		 mov	 esp, ebp
  000b3	5d		 pop	 ebp
  000b4	c3		 ret	 0
?lssproto_MU_send@@YAXHHHHH@Z ENDP			; lssproto_MU_send
_TEXT	ENDS
; Function compile flags: /Ogtp
; File C:\Users\gg862\OneDrive\πŸ≈¡ »≠∏È\∏æƒÌøœ∑·\Client Source Code1.31¿œ∫ª\NewProto\protocol.cpp
;	COMDAT ?lssproto_AC_send@@YAXHHHH@Z
_TEXT	SEGMENT
_buffer$ = -16388					; size = 16384
__$ArrayPad$ = -4					; size = 4
_fd$ = 8						; size = 4
_x$ = 12						; size = 4
_y$ = 16						; size = 4
_actionno$ = 20						; size = 4
?lssproto_AC_send@@YAXHHHH@Z PROC			; lssproto_AC_send, COMDAT

; 1880 : {

  00000	55		 push	 ebp
  00001	8b ec		 mov	 ebp, esp
  00003	b8 04 40 00 00	 mov	 eax, 16388		; 00004004H
  00008	e8 00 00 00 00	 call	 __chkstk
  0000d	a1 00 00 00 00	 mov	 eax, DWORD PTR ___security_cookie
  00012	33 c5		 xor	 eax, ebp
  00014	89 45 fc	 mov	 DWORD PTR __$ArrayPad$[ebp], eax
  00017	56		 push	 esi

; 1881 : 	char buffer[16384];
; 1882 : 	int iChecksum=0;
; 1883 : 
; 1884 : 	buffer[0] = '\0';
; 1885 : 	iChecksum += util_mkint(buffer, x);

  00018	ff 75 0c	 push	 DWORD PTR _x$[ebp]
  0001b	8d 85 fc bf ff
	ff		 lea	 eax, DWORD PTR _buffer$[ebp]
  00021	c6 85 fc bf ff
	ff 00		 mov	 BYTE PTR _buffer$[ebp], 0
  00028	50		 push	 eax
  00029	e8 00 00 00 00	 call	 ?util_mkint@@YAHPADH@Z	; util_mkint
  0002e	83 c4 08	 add	 esp, 8
  00031	8b f0		 mov	 esi, eax

; 1886 : 	if (g_ÊúçÂä°Âô® == SERVER_Âè∞Êúç)

  00033	83 3d 00 00 00
	00 01		 cmp	 DWORD PTR ?g_‹◊?–Ô@@3HA, 1 ; g_‹◊?–Ô
  0003a	75 16		 jne	 SHORT $LN2@lssproto_A

; 1887 : 	{
; 1888 : 		iChecksum += util_mkint(buffer, intÂè∞ÊúçÂèëÂåÖ);

  0003c	8d 85 fc bf ff
	ff		 lea	 eax, DWORD PTR _buffer$[ebp]
  00042	68 21 ac 12 00	 push	 1223713			; 0012ac21H
  00047	50		 push	 eax
  00048	e8 00 00 00 00	 call	 ?util_mkint@@YAHPADH@Z	; util_mkint
  0004d	83 c4 08	 add	 esp, 8
  00050	03 f0		 add	 esi, eax
$LN2@lssproto_A:

; 1889 : 	}
; 1890 : 	iChecksum += util_mkint(buffer, y);

  00052	ff 75 10	 push	 DWORD PTR _y$[ebp]
  00055	8d 85 fc bf ff
	ff		 lea	 eax, DWORD PTR _buffer$[ebp]
  0005b	50		 push	 eax
  0005c	e8 00 00 00 00	 call	 ?util_mkint@@YAHPADH@Z	; util_mkint

; 1891 : 	iChecksum += util_mkint(buffer, actionno);

  00061	ff 75 14	 push	 DWORD PTR _actionno$[ebp]
  00064	03 f0		 add	 esi, eax
  00066	8d 85 fc bf ff
	ff		 lea	 eax, DWORD PTR _buffer$[ebp]
  0006c	50		 push	 eax
  0006d	e8 00 00 00 00	 call	 ?util_mkint@@YAHPADH@Z	; util_mkint
  00072	03 f0		 add	 esi, eax

; 1892 : 	util_mkint(buffer, iChecksum);

  00074	8d 85 fc bf ff
	ff		 lea	 eax, DWORD PTR _buffer$[ebp]
  0007a	56		 push	 esi
  0007b	50		 push	 eax
  0007c	e8 00 00 00 00	 call	 ?util_mkint@@YAHPADH@Z	; util_mkint

; 1893 : 	util_SendMesg(fd, LSSPROTO_AC_SEND, buffer);  //0x38  56

  00081	8d 85 fc bf ff
	ff		 lea	 eax, DWORD PTR _buffer$[ebp]
  00087	50		 push	 eax
  00088	6a 38		 push	 56			; 00000038H
  0008a	ff 75 08	 push	 DWORD PTR _fd$[ebp]
  0008d	e8 00 00 00 00	 call	 ?util_SendMesg@@YAXHHPAD@Z ; util_SendMesg

; 1894 : }

  00092	8b 4d fc	 mov	 ecx, DWORD PTR __$ArrayPad$[ebp]
  00095	83 c4 24	 add	 esp, 36			; 00000024H
  00098	33 cd		 xor	 ecx, ebp
  0009a	5e		 pop	 esi
  0009b	e8 00 00 00 00	 call	 @__security_check_cookie@4
  000a0	8b e5		 mov	 esp, ebp
  000a2	5d		 pop	 ebp
  000a3	c3		 ret	 0
?lssproto_AC_send@@YAXHHHH@Z ENDP			; lssproto_AC_send
_TEXT	ENDS
; Function compile flags: /Ogtp
; File C:\Users\gg862\OneDrive\πŸ≈¡ »≠∏È\∏æƒÌøœ∑·\Client Source Code1.31¿œ∫ª\NewProto\protocol.cpp
;	COMDAT ?lssproto_SPET_send@@YAXHH@Z
_TEXT	SEGMENT
_buffer$ = -16388					; size = 16384
__$ArrayPad$ = -4					; size = 4
_fd$ = 8						; size = 4
_standbypet$ = 12					; size = 4
?lssproto_SPET_send@@YAXHH@Z PROC			; lssproto_SPET_send, COMDAT

; 1862 : {

  00000	55		 push	 ebp
  00001	8b ec		 mov	 ebp, esp
  00003	b8 04 40 00 00	 mov	 eax, 16388		; 00004004H
  00008	e8 00 00 00 00	 call	 __chkstk
  0000d	a1 00 00 00 00	 mov	 eax, DWORD PTR ___security_cookie
  00012	33 c5		 xor	 eax, ebp
  00014	89 45 fc	 mov	 DWORD PTR __$ArrayPad$[ebp], eax
  00017	56		 push	 esi

; 1863 : 	char buffer[16384];
; 1864 : 	int iChecksum=0;
; 1865 : 
; 1866 : 	buffer[0] = '\0';
; 1867 : 	iChecksum += util_mkint(buffer, standbypet);

  00018	ff 75 0c	 push	 DWORD PTR _standbypet$[ebp]
  0001b	8d 85 fc bf ff
	ff		 lea	 eax, DWORD PTR _buffer$[ebp]
  00021	c6 85 fc bf ff
	ff 00		 mov	 BYTE PTR _buffer$[ebp], 0
  00028	50		 push	 eax
  00029	e8 00 00 00 00	 call	 ?util_mkint@@YAHPADH@Z	; util_mkint
  0002e	83 c4 08	 add	 esp, 8
  00031	8b f0		 mov	 esi, eax

; 1868 : 
; 1869 : 	if (g_ÊúçÂä°Âô® == SERVER_Âè∞Êúç)

  00033	83 3d 00 00 00
	00 01		 cmp	 DWORD PTR ?g_‹◊?–Ô@@3HA, 1 ; g_‹◊?–Ô
  0003a	75 16		 jne	 SHORT $LN2@lssproto_S

; 1870 : 	{
; 1871 : 		iChecksum += util_mkint(buffer, intÂè∞ÊúçÂèëÂåÖ);

  0003c	8d 85 fc bf ff
	ff		 lea	 eax, DWORD PTR _buffer$[ebp]
  00042	68 21 ac 12 00	 push	 1223713			; 0012ac21H
  00047	50		 push	 eax
  00048	e8 00 00 00 00	 call	 ?util_mkint@@YAHPADH@Z	; util_mkint
  0004d	83 c4 08	 add	 esp, 8
  00050	03 f0		 add	 esi, eax
$LN2@lssproto_S:

; 1872 : 	}
; 1873 : 
; 1874 : 	util_mkint(buffer, iChecksum);

  00052	8d 85 fc bf ff
	ff		 lea	 eax, DWORD PTR _buffer$[ebp]
  00058	56		 push	 esi
  00059	50		 push	 eax
  0005a	e8 00 00 00 00	 call	 ?util_mkint@@YAHPADH@Z	; util_mkint

; 1875 : 	util_SendMesg(fd, LSSPROTO_SPET_SEND, buffer);  //0x72  114

  0005f	8d 85 fc bf ff
	ff		 lea	 eax, DWORD PTR _buffer$[ebp]
  00065	50		 push	 eax
  00066	6a 72		 push	 114			; 00000072H
  00068	ff 75 08	 push	 DWORD PTR _fd$[ebp]
  0006b	e8 00 00 00 00	 call	 ?util_SendMesg@@YAXHHPAD@Z ; util_SendMesg

; 1876 : }

  00070	8b 4d fc	 mov	 ecx, DWORD PTR __$ArrayPad$[ebp]
  00073	83 c4 14	 add	 esp, 20			; 00000014H
  00076	33 cd		 xor	 ecx, ebp
  00078	5e		 pop	 esi
  00079	e8 00 00 00 00	 call	 @__security_check_cookie@4
  0007e	8b e5		 mov	 esp, ebp
  00080	5d		 pop	 ebp
  00081	c3		 ret	 0
?lssproto_SPET_send@@YAXHH@Z ENDP			; lssproto_SPET_send
_TEXT	ENDS
; Function compile flags: /Ogtp
; File C:\Users\gg862\OneDrive\πŸ≈¡ »≠∏È\∏æƒÌøœ∑·\Client Source Code1.31¿œ∫ª\NewProto\protocol.cpp
;	COMDAT ?lssproto_KS_send@@YAXHH@Z
_TEXT	SEGMENT
_buffer$ = -16388					; size = 16384
__$ArrayPad$ = -4					; size = 4
_fd$ = 8						; size = 4
_petarray$ = 12						; size = 4
?lssproto_KS_send@@YAXHH@Z PROC				; lssproto_KS_send, COMDAT

; 1844 : {

  00000	55		 push	 ebp
  00001	8b ec		 mov	 ebp, esp
  00003	b8 04 40 00 00	 mov	 eax, 16388		; 00004004H
  00008	e8 00 00 00 00	 call	 __chkstk
  0000d	a1 00 00 00 00	 mov	 eax, DWORD PTR ___security_cookie
  00012	33 c5		 xor	 eax, ebp
  00014	89 45 fc	 mov	 DWORD PTR __$ArrayPad$[ebp], eax
  00017	56		 push	 esi

; 1845 : 	char buffer[16384];
; 1846 : 	int iChecksum=0;

  00018	33 f6		 xor	 esi, esi

; 1847 : 
; 1848 : 	buffer[0] = '\0';

  0001a	c6 85 fc bf ff
	ff 00		 mov	 BYTE PTR _buffer$[ebp], 0

; 1849 : 
; 1850 : 	if (g_ÊúçÂä°Âô® == SERVER_Âè∞Êúç)

  00021	83 3d 00 00 00
	00 01		 cmp	 DWORD PTR ?g_‹◊?–Ô@@3HA, 1 ; g_‹◊?–Ô
  00028	75 16		 jne	 SHORT $LN2@lssproto_K

; 1851 : 	{
; 1852 : 		iChecksum += util_mkint(buffer, intÂè∞ÊúçÂèëÂåÖ);

  0002a	8d 85 fc bf ff
	ff		 lea	 eax, DWORD PTR _buffer$[ebp]
  00030	68 21 ac 12 00	 push	 1223713			; 0012ac21H
  00035	50		 push	 eax
  00036	e8 00 00 00 00	 call	 ?util_mkint@@YAHPADH@Z	; util_mkint
  0003b	83 c4 08	 add	 esp, 8
  0003e	8b f0		 mov	 esi, eax
$LN2@lssproto_K:

; 1853 : 	}
; 1854 : 
; 1855 : 	iChecksum += util_mkint(buffer, petarray);

  00040	ff 75 0c	 push	 DWORD PTR _petarray$[ebp]
  00043	8d 85 fc bf ff
	ff		 lea	 eax, DWORD PTR _buffer$[ebp]
  00049	50		 push	 eax
  0004a	e8 00 00 00 00	 call	 ?util_mkint@@YAHPADH@Z	; util_mkint
  0004f	03 f0		 add	 esi, eax

; 1856 : 	util_mkint(buffer, iChecksum);

  00051	8d 85 fc bf ff
	ff		 lea	 eax, DWORD PTR _buffer$[ebp]
  00057	56		 push	 esi
  00058	50		 push	 eax
  00059	e8 00 00 00 00	 call	 ?util_mkint@@YAHPADH@Z	; util_mkint

; 1857 : 	util_SendMesg(fd, LSSPROTO_KS_SEND, buffer); //0x36  54

  0005e	8d 85 fc bf ff
	ff		 lea	 eax, DWORD PTR _buffer$[ebp]
  00064	50		 push	 eax
  00065	6a 36		 push	 54			; 00000036H
  00067	ff 75 08	 push	 DWORD PTR _fd$[ebp]
  0006a	e8 00 00 00 00	 call	 ?util_SendMesg@@YAXHHPAD@Z ; util_SendMesg

; 1858 : }

  0006f	8b 4d fc	 mov	 ecx, DWORD PTR __$ArrayPad$[ebp]
  00072	83 c4 1c	 add	 esp, 28			; 0000001cH
  00075	33 cd		 xor	 ecx, ebp
  00077	5e		 pop	 esi
  00078	e8 00 00 00 00	 call	 @__security_check_cookie@4
  0007d	8b e5		 mov	 esp, ebp
  0007f	5d		 pop	 ebp
  00080	c3		 ret	 0
?lssproto_KS_send@@YAXHH@Z ENDP				; lssproto_KS_send
_TEXT	ENDS
; Function compile flags: /Ogtp
; File C:\Users\gg862\OneDrive\πŸ≈¡ »≠∏È\∏æƒÌøœ∑·\Client Source Code1.31¿œ∫ª\NewProto\protocol.cpp
;	COMDAT ?lssproto_PR_send@@YAXHHHH@Z
_TEXT	SEGMENT
_buffer$ = -16388					; size = 16384
__$ArrayPad$ = -4					; size = 4
_fd$ = 8						; size = 4
_x$ = 12						; size = 4
_y$ = 16						; size = 4
_request$ = 20						; size = 4
?lssproto_PR_send@@YAXHHHH@Z PROC			; lssproto_PR_send, COMDAT

; 1825 : {

  00000	55		 push	 ebp
  00001	8b ec		 mov	 ebp, esp
  00003	b8 04 40 00 00	 mov	 eax, 16388		; 00004004H
  00008	e8 00 00 00 00	 call	 __chkstk
  0000d	a1 00 00 00 00	 mov	 eax, DWORD PTR ___security_cookie
  00012	33 c5		 xor	 eax, ebp
  00014	89 45 fc	 mov	 DWORD PTR __$ArrayPad$[ebp], eax
  00017	56		 push	 esi

; 1826 : 	char buffer[16384];
; 1827 : 	int iChecksum=0;
; 1828 : 
; 1829 : 	buffer[0] = '\0';
; 1830 : 	iChecksum += util_mkint(buffer, x);

  00018	ff 75 0c	 push	 DWORD PTR _x$[ebp]
  0001b	8d 85 fc bf ff
	ff		 lea	 eax, DWORD PTR _buffer$[ebp]
  00021	c6 85 fc bf ff
	ff 00		 mov	 BYTE PTR _buffer$[ebp], 0
  00028	50		 push	 eax
  00029	e8 00 00 00 00	 call	 ?util_mkint@@YAHPADH@Z	; util_mkint

; 1831 : 	iChecksum += util_mkint(buffer, y);

  0002e	ff 75 10	 push	 DWORD PTR _y$[ebp]
  00031	8b f0		 mov	 esi, eax
  00033	8d 85 fc bf ff
	ff		 lea	 eax, DWORD PTR _buffer$[ebp]
  00039	50		 push	 eax
  0003a	e8 00 00 00 00	 call	 ?util_mkint@@YAHPADH@Z	; util_mkint
  0003f	83 c4 10	 add	 esp, 16			; 00000010H
  00042	03 f0		 add	 esi, eax

; 1832 : 
; 1833 : 	if (g_ÊúçÂä°Âô® == SERVER_Âè∞Êúç)

  00044	83 3d 00 00 00
	00 01		 cmp	 DWORD PTR ?g_‹◊?–Ô@@3HA, 1 ; g_‹◊?–Ô
  0004b	75 16		 jne	 SHORT $LN2@lssproto_P

; 1834 : 	{
; 1835 : 		iChecksum += util_mkint(buffer, intÂè∞ÊúçÂèëÂåÖ);

  0004d	8d 85 fc bf ff
	ff		 lea	 eax, DWORD PTR _buffer$[ebp]
  00053	68 21 ac 12 00	 push	 1223713			; 0012ac21H
  00058	50		 push	 eax
  00059	e8 00 00 00 00	 call	 ?util_mkint@@YAHPADH@Z	; util_mkint
  0005e	83 c4 08	 add	 esp, 8
  00061	03 f0		 add	 esi, eax
$LN2@lssproto_P:

; 1836 : 	}
; 1837 : 
; 1838 : 	iChecksum += util_mkint(buffer, request);

  00063	ff 75 14	 push	 DWORD PTR _request$[ebp]
  00066	8d 85 fc bf ff
	ff		 lea	 eax, DWORD PTR _buffer$[ebp]
  0006c	50		 push	 eax
  0006d	e8 00 00 00 00	 call	 ?util_mkint@@YAHPADH@Z	; util_mkint
  00072	03 f0		 add	 esi, eax

; 1839 : 	util_mkint(buffer, iChecksum);

  00074	8d 85 fc bf ff
	ff		 lea	 eax, DWORD PTR _buffer$[ebp]
  0007a	56		 push	 esi
  0007b	50		 push	 eax
  0007c	e8 00 00 00 00	 call	 ?util_mkint@@YAHPADH@Z	; util_mkint

; 1840 : 	util_SendMesg(fd, LSSPROTO_PR_SEND, buffer); //0x34  52

  00081	8d 85 fc bf ff
	ff		 lea	 eax, DWORD PTR _buffer$[ebp]
  00087	50		 push	 eax
  00088	6a 34		 push	 52			; 00000034H
  0008a	ff 75 08	 push	 DWORD PTR _fd$[ebp]
  0008d	e8 00 00 00 00	 call	 ?util_SendMesg@@YAXHHPAD@Z ; util_SendMesg

; 1841 : }

  00092	8b 4d fc	 mov	 ecx, DWORD PTR __$ArrayPad$[ebp]
  00095	83 c4 1c	 add	 esp, 28			; 0000001cH
  00098	33 cd		 xor	 ecx, ebp
  0009a	5e		 pop	 esi
  0009b	e8 00 00 00 00	 call	 @__security_check_cookie@4
  000a0	8b e5		 mov	 esp, ebp
  000a2	5d		 pop	 ebp
  000a3	c3		 ret	 0
?lssproto_PR_send@@YAXHHHH@Z ENDP			; lssproto_PR_send
_TEXT	ENDS
; Function compile flags: /Ogtp
; File C:\Users\gg862\OneDrive\πŸ≈¡ »≠∏È\∏æƒÌøœ∑·\Client Source Code1.31¿œ∫ª\NewProto\protocol.cpp
;	COMDAT ?lssproto_HL_send@@YAXHH@Z
_TEXT	SEGMENT
_buffer$ = -16388					; size = 16384
__$ArrayPad$ = -4					; size = 4
_fd$ = 8						; size = 4
_flg$ = 12						; size = 4
?lssproto_HL_send@@YAXHH@Z PROC				; lssproto_HL_send, COMDAT

; 1808 : {

  00000	55		 push	 ebp
  00001	8b ec		 mov	 ebp, esp
  00003	b8 04 40 00 00	 mov	 eax, 16388		; 00004004H
  00008	e8 00 00 00 00	 call	 __chkstk
  0000d	a1 00 00 00 00	 mov	 eax, DWORD PTR ___security_cookie
  00012	33 c5		 xor	 eax, ebp
  00014	89 45 fc	 mov	 DWORD PTR __$ArrayPad$[ebp], eax
  00017	56		 push	 esi

; 1809 : 	char buffer[16384];
; 1810 : 	int iChecksum=0;
; 1811 : 
; 1812 : 	buffer[0] = '\0';
; 1813 : 	iChecksum += util_mkint(buffer, flg);

  00018	ff 75 0c	 push	 DWORD PTR _flg$[ebp]
  0001b	8d 85 fc bf ff
	ff		 lea	 eax, DWORD PTR _buffer$[ebp]
  00021	c6 85 fc bf ff
	ff 00		 mov	 BYTE PTR _buffer$[ebp], 0
  00028	50		 push	 eax
  00029	e8 00 00 00 00	 call	 ?util_mkint@@YAHPADH@Z	; util_mkint
  0002e	83 c4 08	 add	 esp, 8
  00031	8b f0		 mov	 esi, eax

; 1814 : 
; 1815 : 	if (g_ÊúçÂä°Âô® == SERVER_Âè∞Êúç)

  00033	83 3d 00 00 00
	00 01		 cmp	 DWORD PTR ?g_‹◊?–Ô@@3HA, 1 ; g_‹◊?–Ô
  0003a	75 16		 jne	 SHORT $LN2@lssproto_H

; 1816 : 	{
; 1817 : 		iChecksum += util_mkint(buffer, intÂè∞ÊúçÂèëÂåÖ);

  0003c	8d 85 fc bf ff
	ff		 lea	 eax, DWORD PTR _buffer$[ebp]
  00042	68 21 ac 12 00	 push	 1223713			; 0012ac21H
  00047	50		 push	 eax
  00048	e8 00 00 00 00	 call	 ?util_mkint@@YAHPADH@Z	; util_mkint
  0004d	83 c4 08	 add	 esp, 8
  00050	03 f0		 add	 esi, eax
$LN2@lssproto_H:

; 1818 : 	}
; 1819 : 
; 1820 : 	util_mkint(buffer, iChecksum);

  00052	8d 85 fc bf ff
	ff		 lea	 eax, DWORD PTR _buffer$[ebp]
  00058	56		 push	 esi
  00059	50		 push	 eax
  0005a	e8 00 00 00 00	 call	 ?util_mkint@@YAHPADH@Z	; util_mkint

; 1821 : 	util_SendMesg(fd, LSSPROTO_HL_SEND, buffer); //0x32  50

  0005f	8d 85 fc bf ff
	ff		 lea	 eax, DWORD PTR _buffer$[ebp]
  00065	50		 push	 eax
  00066	6a 32		 push	 50			; 00000032H
  00068	ff 75 08	 push	 DWORD PTR _fd$[ebp]
  0006b	e8 00 00 00 00	 call	 ?util_SendMesg@@YAXHHPAD@Z ; util_SendMesg

; 1822 : }

  00070	8b 4d fc	 mov	 ecx, DWORD PTR __$ArrayPad$[ebp]
  00073	83 c4 14	 add	 esp, 20			; 00000014H
  00076	33 cd		 xor	 ecx, ebp
  00078	5e		 pop	 esi
  00079	e8 00 00 00 00	 call	 @__security_check_cookie@4
  0007e	8b e5		 mov	 esp, ebp
  00080	5d		 pop	 ebp
  00081	c3		 ret	 0
?lssproto_HL_send@@YAXHH@Z ENDP				; lssproto_HL_send
_TEXT	ENDS
; Function compile flags: /Ogtp
; File C:\Users\gg862\OneDrive\πŸ≈¡ »≠∏È\∏æƒÌøœ∑·\Client Source Code1.31¿œ∫ª\NewProto\protocol.cpp
;	COMDAT ?lssproto_FS_send@@YAXHH@Z
_TEXT	SEGMENT
_buffer$ = -16388					; size = 16384
__$ArrayPad$ = -4					; size = 4
_fd$ = 8						; size = 4
_flg$ = 12						; size = 4
?lssproto_FS_send@@YAXHH@Z PROC				; lssproto_FS_send, COMDAT

; 1791 : {

  00000	55		 push	 ebp
  00001	8b ec		 mov	 ebp, esp
  00003	b8 04 40 00 00	 mov	 eax, 16388		; 00004004H
  00008	e8 00 00 00 00	 call	 __chkstk
  0000d	a1 00 00 00 00	 mov	 eax, DWORD PTR ___security_cookie
  00012	33 c5		 xor	 eax, ebp
  00014	89 45 fc	 mov	 DWORD PTR __$ArrayPad$[ebp], eax
  00017	56		 push	 esi

; 1792 : 	char buffer[16384];
; 1793 : 	int iChecksum=0;

  00018	33 f6		 xor	 esi, esi

; 1794 : 
; 1795 : 	buffer[0] = '\0';

  0001a	c6 85 fc bf ff
	ff 00		 mov	 BYTE PTR _buffer$[ebp], 0

; 1796 : 
; 1797 : 	if (g_ÊúçÂä°Âô® == SERVER_Âè∞Êúç)

  00021	83 3d 00 00 00
	00 01		 cmp	 DWORD PTR ?g_‹◊?–Ô@@3HA, 1 ; g_‹◊?–Ô
  00028	75 16		 jne	 SHORT $LN2@lssproto_F

; 1798 : 	{
; 1799 : 		iChecksum += util_mkint(buffer, intÂè∞ÊúçÂèëÂåÖ);

  0002a	8d 85 fc bf ff
	ff		 lea	 eax, DWORD PTR _buffer$[ebp]
  00030	68 21 ac 12 00	 push	 1223713			; 0012ac21H
  00035	50		 push	 eax
  00036	e8 00 00 00 00	 call	 ?util_mkint@@YAHPADH@Z	; util_mkint
  0003b	83 c4 08	 add	 esp, 8
  0003e	8b f0		 mov	 esi, eax
$LN2@lssproto_F:

; 1800 : 	}
; 1801 : 
; 1802 : 	iChecksum += util_mkint(buffer, flg);

  00040	ff 75 0c	 push	 DWORD PTR _flg$[ebp]
  00043	8d 85 fc bf ff
	ff		 lea	 eax, DWORD PTR _buffer$[ebp]
  00049	50		 push	 eax
  0004a	e8 00 00 00 00	 call	 ?util_mkint@@YAHPADH@Z	; util_mkint
  0004f	03 f0		 add	 esi, eax

; 1803 : 	util_mkint(buffer, iChecksum);

  00051	8d 85 fc bf ff
	ff		 lea	 eax, DWORD PTR _buffer$[ebp]
  00057	56		 push	 esi
  00058	50		 push	 eax
  00059	e8 00 00 00 00	 call	 ?util_mkint@@YAHPADH@Z	; util_mkint

; 1804 : 	util_SendMesg(fd, LSSPROTO_FS_SEND, buffer); //0x30  48

  0005e	8d 85 fc bf ff
	ff		 lea	 eax, DWORD PTR _buffer$[ebp]
  00064	50		 push	 eax
  00065	6a 30		 push	 48			; 00000030H
  00067	ff 75 08	 push	 DWORD PTR _fd$[ebp]
  0006a	e8 00 00 00 00	 call	 ?util_SendMesg@@YAXHHPAD@Z ; util_SendMesg

; 1805 : }

  0006f	8b 4d fc	 mov	 ecx, DWORD PTR __$ArrayPad$[ebp]
  00072	83 c4 1c	 add	 esp, 28			; 0000001cH
  00075	33 cd		 xor	 ecx, ebp
  00077	5e		 pop	 esi
  00078	e8 00 00 00 00	 call	 @__security_check_cookie@4
  0007d	8b e5		 mov	 esp, ebp
  0007f	5d		 pop	 ebp
  00080	c3		 ret	 0
?lssproto_FS_send@@YAXHH@Z ENDP				; lssproto_FS_send
_TEXT	ENDS
; Function compile flags: /Ogtp
; File C:\Users\gg862\OneDrive\πŸ≈¡ »≠∏È\∏æƒÌøœ∑·\Client Source Code1.31¿œ∫ª\NewProto\protocol.cpp
;	COMDAT ?lssproto_S_send@@YAXHPAD@Z
_TEXT	SEGMENT
_buffer$ = -16388					; size = 16384
__$ArrayPad$ = -4					; size = 4
_fd$ = 8						; size = 4
_category$ = 12						; size = 4
?lssproto_S_send@@YAXHPAD@Z PROC			; lssproto_S_send, COMDAT

; 1774 : {

  00000	55		 push	 ebp
  00001	8b ec		 mov	 ebp, esp
  00003	b8 04 40 00 00	 mov	 eax, 16388		; 00004004H
  00008	e8 00 00 00 00	 call	 __chkstk
  0000d	a1 00 00 00 00	 mov	 eax, DWORD PTR ___security_cookie
  00012	33 c5		 xor	 eax, ebp
  00014	89 45 fc	 mov	 DWORD PTR __$ArrayPad$[ebp], eax
  00017	56		 push	 esi

; 1775 : 	char buffer[16384];
; 1776 : 	int iChecksum=0;

  00018	33 f6		 xor	 esi, esi

; 1777 : 
; 1778 : 	buffer[0] = '\0';

  0001a	c6 85 fc bf ff
	ff 00		 mov	 BYTE PTR _buffer$[ebp], 0

; 1779 : 
; 1780 : 	if (g_ÊúçÂä°Âô® == SERVER_Âè∞Êúç)

  00021	83 3d 00 00 00
	00 01		 cmp	 DWORD PTR ?g_‹◊?–Ô@@3HA, 1 ; g_‹◊?–Ô
  00028	57		 push	 edi
  00029	8b 7d 0c	 mov	 edi, DWORD PTR _category$[ebp]
  0002c	75 16		 jne	 SHORT $LN2@lssproto_S

; 1781 : 	{
; 1782 : 		iChecksum += util_mkint(buffer, intÂè∞ÊúçÂèëÂåÖ);

  0002e	8d 85 fc bf ff
	ff		 lea	 eax, DWORD PTR _buffer$[ebp]
  00034	68 21 ac 12 00	 push	 1223713			; 0012ac21H
  00039	50		 push	 eax
  0003a	e8 00 00 00 00	 call	 ?util_mkint@@YAHPADH@Z	; util_mkint
  0003f	83 c4 08	 add	 esp, 8
  00042	8b f0		 mov	 esi, eax
$LN2@lssproto_S:

; 1783 : 	}
; 1784 : 
; 1785 : 	iChecksum += util_mkstring(buffer, category);

  00044	8d 85 fc bf ff
	ff		 lea	 eax, DWORD PTR _buffer$[ebp]
  0004a	57		 push	 edi
  0004b	50		 push	 eax
  0004c	e8 00 00 00 00	 call	 ?util_mkstring@@YAHPAD0@Z ; util_mkstring
  00051	03 f0		 add	 esi, eax

; 1786 : 	util_mkint(buffer, iChecksum);

  00053	8d 85 fc bf ff
	ff		 lea	 eax, DWORD PTR _buffer$[ebp]
  00059	56		 push	 esi
  0005a	50		 push	 eax
  0005b	e8 00 00 00 00	 call	 ?util_mkint@@YAHPADH@Z	; util_mkint

; 1787 : 	util_SendMesg(fd, LSSPROTO_S_SEND, buffer);  //0x2d  45

  00060	8d 85 fc bf ff
	ff		 lea	 eax, DWORD PTR _buffer$[ebp]
  00066	50		 push	 eax
  00067	6a 2d		 push	 45			; 0000002dH
  00069	ff 75 08	 push	 DWORD PTR _fd$[ebp]
  0006c	e8 00 00 00 00	 call	 ?util_SendMesg@@YAXHHPAD@Z ; util_SendMesg

; 1788 : }

  00071	8b 4d fc	 mov	 ecx, DWORD PTR __$ArrayPad$[ebp]
  00074	83 c4 1c	 add	 esp, 28			; 0000001cH
  00077	33 cd		 xor	 ecx, ebp
  00079	5f		 pop	 edi
  0007a	5e		 pop	 esi
  0007b	e8 00 00 00 00	 call	 @__security_check_cookie@4
  00080	8b e5		 mov	 esp, ebp
  00082	5d		 pop	 ebp
  00083	c3		 ret	 0
?lssproto_S_send@@YAXHPAD@Z ENDP			; lssproto_S_send
_TEXT	ENDS
; Function compile flags: /Ogtp
; File C:\Users\gg862\OneDrive\πŸ≈¡ »≠∏È\∏æƒÌøœ∑·\Client Source Code1.31¿œ∫ª\NewProto\protocol.cpp
;	COMDAT ?lssproto_C_send@@YAXHH@Z
_TEXT	SEGMENT
_buffer$ = -16388					; size = 16384
__$ArrayPad$ = -4					; size = 4
_fd$ = 8						; size = 4
_index$ = 12						; size = 4
?lssproto_C_send@@YAXHH@Z PROC				; lssproto_C_send, COMDAT

; 1759 : {

  00000	55		 push	 ebp
  00001	8b ec		 mov	 ebp, esp
  00003	b8 04 40 00 00	 mov	 eax, 16388		; 00004004H
  00008	e8 00 00 00 00	 call	 __chkstk
  0000d	a1 00 00 00 00	 mov	 eax, DWORD PTR ___security_cookie
  00012	33 c5		 xor	 eax, ebp
  00014	89 45 fc	 mov	 DWORD PTR __$ArrayPad$[ebp], eax
  00017	56		 push	 esi

; 1760 : 	char buffer[16384];
; 1761 : 	int iChecksum=0;

  00018	33 f6		 xor	 esi, esi

; 1762 : 
; 1763 : 	buffer[0] = '\0';

  0001a	c6 85 fc bf ff
	ff 00		 mov	 BYTE PTR _buffer$[ebp], 0

; 1764 : 	if (g_ÊúçÂä°Âô® == SERVER_Âè∞Êúç)

  00021	83 3d 00 00 00
	00 01		 cmp	 DWORD PTR ?g_‹◊?–Ô@@3HA, 1 ; g_‹◊?–Ô
  00028	75 16		 jne	 SHORT $LN2@lssproto_C

; 1765 : 	{
; 1766 : 		iChecksum += util_mkint(buffer, intÂè∞ÊúçÂèëÂåÖ);

  0002a	8d 85 fc bf ff
	ff		 lea	 eax, DWORD PTR _buffer$[ebp]
  00030	68 21 ac 12 00	 push	 1223713			; 0012ac21H
  00035	50		 push	 eax
  00036	e8 00 00 00 00	 call	 ?util_mkint@@YAHPADH@Z	; util_mkint
  0003b	83 c4 08	 add	 esp, 8
  0003e	8b f0		 mov	 esi, eax
$LN2@lssproto_C:

; 1767 : 	}
; 1768 : 	iChecksum += util_mkint(buffer, index);

  00040	ff 75 0c	 push	 DWORD PTR _index$[ebp]
  00043	8d 85 fc bf ff
	ff		 lea	 eax, DWORD PTR _buffer$[ebp]
  00049	50		 push	 eax
  0004a	e8 00 00 00 00	 call	 ?util_mkint@@YAHPADH@Z	; util_mkint
  0004f	03 f0		 add	 esi, eax

; 1769 : 	util_mkint(buffer, iChecksum);

  00051	8d 85 fc bf ff
	ff		 lea	 eax, DWORD PTR _buffer$[ebp]
  00057	56		 push	 esi
  00058	50		 push	 eax
  00059	e8 00 00 00 00	 call	 ?util_mkint@@YAHPADH@Z	; util_mkint

; 1770 : 	util_SendMesg(fd, LSSPROTO_C_SEND, buffer); // 0x28  40

  0005e	8d 85 fc bf ff
	ff		 lea	 eax, DWORD PTR _buffer$[ebp]
  00064	50		 push	 eax
  00065	6a 28		 push	 40			; 00000028H
  00067	ff 75 08	 push	 DWORD PTR _fd$[ebp]
  0006a	e8 00 00 00 00	 call	 ?util_SendMesg@@YAXHHPAD@Z ; util_SendMesg

; 1771 : }

  0006f	8b 4d fc	 mov	 ecx, DWORD PTR __$ArrayPad$[ebp]
  00072	83 c4 1c	 add	 esp, 28			; 0000001cH
  00075	33 cd		 xor	 ecx, ebp
  00077	5e		 pop	 esi
  00078	e8 00 00 00 00	 call	 @__security_check_cookie@4
  0007d	8b e5		 mov	 esp, ebp
  0007f	5d		 pop	 ebp
  00080	c3		 ret	 0
?lssproto_C_send@@YAXHH@Z ENDP				; lssproto_C_send
_TEXT	ENDS
; Function compile flags: /Ogtp
; File C:\Users\gg862\OneDrive\πŸ≈¡ »≠∏È\∏æƒÌøœ∑·\Client Source Code1.31¿œ∫ª\NewProto\protocol.cpp
;	COMDAT ?lssproto_M_send@@YAXHHHHHH@Z
_TEXT	SEGMENT
_buffer$ = -16388					; size = 16384
__$ArrayPad$ = -4					; size = 4
_fd$ = 8						; size = 4
_fl$ = 12						; size = 4
_x1$ = 16						; size = 4
_y1$ = 20						; size = 4
_x2$ = 24						; size = 4
_y2$ = 28						; size = 4
?lssproto_M_send@@YAXHHHHHH@Z PROC			; lssproto_M_send, COMDAT

; 1738 : {

  00000	55		 push	 ebp
  00001	8b ec		 mov	 ebp, esp
  00003	b8 04 40 00 00	 mov	 eax, 16388		; 00004004H
  00008	e8 00 00 00 00	 call	 __chkstk
  0000d	a1 00 00 00 00	 mov	 eax, DWORD PTR ___security_cookie
  00012	33 c5		 xor	 eax, ebp
  00014	89 45 fc	 mov	 DWORD PTR __$ArrayPad$[ebp], eax
  00017	56		 push	 esi

; 1739 : 	char buffer[16384];
; 1740 : 	int iChecksum=0;
; 1741 : 
; 1742 : 	buffer[0] = '\0';
; 1743 : 	iChecksum += util_mkint(buffer, fl);

  00018	ff 75 0c	 push	 DWORD PTR _fl$[ebp]
  0001b	8d 85 fc bf ff
	ff		 lea	 eax, DWORD PTR _buffer$[ebp]
  00021	c6 85 fc bf ff
	ff 00		 mov	 BYTE PTR _buffer$[ebp], 0
  00028	50		 push	 eax
  00029	e8 00 00 00 00	 call	 ?util_mkint@@YAHPADH@Z	; util_mkint

; 1744 : 	iChecksum += util_mkint(buffer, x1);

  0002e	ff 75 10	 push	 DWORD PTR _x1$[ebp]
  00031	8b f0		 mov	 esi, eax
  00033	8d 85 fc bf ff
	ff		 lea	 eax, DWORD PTR _buffer$[ebp]
  00039	50		 push	 eax
  0003a	e8 00 00 00 00	 call	 ?util_mkint@@YAHPADH@Z	; util_mkint

; 1745 : 	iChecksum += util_mkint(buffer, y1);

  0003f	ff 75 14	 push	 DWORD PTR _y1$[ebp]
  00042	03 f0		 add	 esi, eax
  00044	8d 85 fc bf ff
	ff		 lea	 eax, DWORD PTR _buffer$[ebp]
  0004a	50		 push	 eax
  0004b	e8 00 00 00 00	 call	 ?util_mkint@@YAHPADH@Z	; util_mkint
  00050	83 c4 18	 add	 esp, 24			; 00000018H
  00053	03 f0		 add	 esi, eax

; 1746 : 
; 1747 : 	if (g_ÊúçÂä°Âô® == SERVER_Âè∞Êúç)

  00055	83 3d 00 00 00
	00 01		 cmp	 DWORD PTR ?g_‹◊?–Ô@@3HA, 1 ; g_‹◊?–Ô
  0005c	75 16		 jne	 SHORT $LN2@lssproto_M

; 1748 : 	{
; 1749 : 		iChecksum += util_mkint(buffer, intÂè∞ÊúçÂèëÂåÖ);

  0005e	8d 85 fc bf ff
	ff		 lea	 eax, DWORD PTR _buffer$[ebp]
  00064	68 21 ac 12 00	 push	 1223713			; 0012ac21H
  00069	50		 push	 eax
  0006a	e8 00 00 00 00	 call	 ?util_mkint@@YAHPADH@Z	; util_mkint
  0006f	83 c4 08	 add	 esp, 8
  00072	03 f0		 add	 esi, eax
$LN2@lssproto_M:

; 1750 : 	}
; 1751 : 
; 1752 : 	iChecksum += util_mkint(buffer, x2);

  00074	ff 75 18	 push	 DWORD PTR _x2$[ebp]
  00077	8d 85 fc bf ff
	ff		 lea	 eax, DWORD PTR _buffer$[ebp]
  0007d	50		 push	 eax
  0007e	e8 00 00 00 00	 call	 ?util_mkint@@YAHPADH@Z	; util_mkint

; 1753 : 	iChecksum += util_mkint(buffer, y2);

  00083	ff 75 1c	 push	 DWORD PTR _y2$[ebp]
  00086	03 f0		 add	 esi, eax
  00088	8d 85 fc bf ff
	ff		 lea	 eax, DWORD PTR _buffer$[ebp]
  0008e	50		 push	 eax
  0008f	e8 00 00 00 00	 call	 ?util_mkint@@YAHPADH@Z	; util_mkint
  00094	03 f0		 add	 esi, eax

; 1754 : 	util_mkint(buffer, iChecksum);

  00096	8d 85 fc bf ff
	ff		 lea	 eax, DWORD PTR _buffer$[ebp]
  0009c	56		 push	 esi
  0009d	50		 push	 eax
  0009e	e8 00 00 00 00	 call	 ?util_mkint@@YAHPADH@Z	; util_mkint

; 1755 : 	util_SendMesg(fd, LSSPROTO_M_SEND, buffer); //0x26  38

  000a3	8d 85 fc bf ff
	ff		 lea	 eax, DWORD PTR _buffer$[ebp]
  000a9	50		 push	 eax
  000aa	6a 26		 push	 38			; 00000026H
  000ac	ff 75 08	 push	 DWORD PTR _fd$[ebp]
  000af	e8 00 00 00 00	 call	 ?util_SendMesg@@YAXHHPAD@Z ; util_SendMesg

; 1756 : }

  000b4	8b 4d fc	 mov	 ecx, DWORD PTR __$ArrayPad$[ebp]
  000b7	83 c4 24	 add	 esp, 36			; 00000024H
  000ba	33 cd		 xor	 ecx, ebp
  000bc	5e		 pop	 esi
  000bd	e8 00 00 00 00	 call	 @__security_check_cookie@4
  000c2	8b e5		 mov	 esp, ebp
  000c4	5d		 pop	 ebp
  000c5	c3		 ret	 0
?lssproto_M_send@@YAXHHHHHH@Z ENDP			; lssproto_M_send
_TEXT	ENDS
; Function compile flags: /Ogtp
; File C:\Users\gg862\OneDrive\πŸ≈¡ »≠∏È\∏æƒÌøœ∑·\Client Source Code1.31¿œ∫ª\NewProto\protocol.cpp
;	COMDAT ?lssproto_TK_send@@YAXHHHPADHH@Z
_TEXT	SEGMENT
_buffer$ = -16388					; size = 16384
__$ArrayPad$ = -4					; size = 4
_fd$ = 8						; size = 4
_x$ = 12						; size = 4
_y$ = 16						; size = 4
_message$ = 20						; size = 4
_color$ = 24						; size = 4
_area$ = 28						; size = 4
?lssproto_TK_send@@YAXHHHPADHH@Z PROC			; lssproto_TK_send, COMDAT

; 1717 : {

  00000	55		 push	 ebp
  00001	8b ec		 mov	 ebp, esp
  00003	b8 04 40 00 00	 mov	 eax, 16388		; 00004004H
  00008	e8 00 00 00 00	 call	 __chkstk
  0000d	a1 00 00 00 00	 mov	 eax, DWORD PTR ___security_cookie
  00012	33 c5		 xor	 eax, ebp
  00014	89 45 fc	 mov	 DWORD PTR __$ArrayPad$[ebp], eax
  00017	56		 push	 esi
  00018	8b 75 14	 mov	 esi, DWORD PTR _message$[ebp]

; 1718 : 	char buffer[16384];
; 1719 : 	int iChecksum=0;
; 1720 : 
; 1721 : 	buffer[0] = '\0';
; 1722 : 	iChecksum += util_mkint(buffer, x);

  0001b	8d 85 fc bf ff
	ff		 lea	 eax, DWORD PTR _buffer$[ebp]
  00021	57		 push	 edi
  00022	ff 75 0c	 push	 DWORD PTR _x$[ebp]
  00025	c6 85 fc bf ff
	ff 00		 mov	 BYTE PTR _buffer$[ebp], 0
  0002c	50		 push	 eax
  0002d	e8 00 00 00 00	 call	 ?util_mkint@@YAHPADH@Z	; util_mkint

; 1723 : 	iChecksum += util_mkint(buffer, y);

  00032	ff 75 10	 push	 DWORD PTR _y$[ebp]
  00035	8b f8		 mov	 edi, eax
  00037	8d 85 fc bf ff
	ff		 lea	 eax, DWORD PTR _buffer$[ebp]
  0003d	50		 push	 eax
  0003e	e8 00 00 00 00	 call	 ?util_mkint@@YAHPADH@Z	; util_mkint
  00043	03 f8		 add	 edi, eax

; 1724 : 	iChecksum += util_mkstring(buffer, message);

  00045	8d 85 fc bf ff
	ff		 lea	 eax, DWORD PTR _buffer$[ebp]
  0004b	56		 push	 esi
  0004c	50		 push	 eax
  0004d	e8 00 00 00 00	 call	 ?util_mkstring@@YAHPAD0@Z ; util_mkstring
  00052	83 c4 18	 add	 esp, 24			; 00000018H
  00055	03 f8		 add	 edi, eax

; 1725 : 
; 1726 : 	if (g_ÊúçÂä°Âô® == SERVER_Âè∞Êúç)

  00057	83 3d 00 00 00
	00 01		 cmp	 DWORD PTR ?g_‹◊?–Ô@@3HA, 1 ; g_‹◊?–Ô
  0005e	75 16		 jne	 SHORT $LN2@lssproto_T

; 1727 : 	{
; 1728 : 		iChecksum += util_mkint(buffer, intÂè∞ÊúçÂèëÂåÖ);

  00060	8d 85 fc bf ff
	ff		 lea	 eax, DWORD PTR _buffer$[ebp]
  00066	68 21 ac 12 00	 push	 1223713			; 0012ac21H
  0006b	50		 push	 eax
  0006c	e8 00 00 00 00	 call	 ?util_mkint@@YAHPADH@Z	; util_mkint
  00071	83 c4 08	 add	 esp, 8
  00074	03 f8		 add	 edi, eax
$LN2@lssproto_T:

; 1729 : 	}
; 1730 : 
; 1731 : 	iChecksum += util_mkint(buffer, color);

  00076	ff 75 18	 push	 DWORD PTR _color$[ebp]
  00079	8d 85 fc bf ff
	ff		 lea	 eax, DWORD PTR _buffer$[ebp]
  0007f	50		 push	 eax
  00080	e8 00 00 00 00	 call	 ?util_mkint@@YAHPADH@Z	; util_mkint

; 1732 : 	iChecksum += util_mkint(buffer, area);

  00085	ff 75 1c	 push	 DWORD PTR _area$[ebp]
  00088	03 f8		 add	 edi, eax
  0008a	8d 85 fc bf ff
	ff		 lea	 eax, DWORD PTR _buffer$[ebp]
  00090	50		 push	 eax
  00091	e8 00 00 00 00	 call	 ?util_mkint@@YAHPADH@Z	; util_mkint
  00096	03 f8		 add	 edi, eax

; 1733 : 	util_mkint(buffer, iChecksum);

  00098	8d 85 fc bf ff
	ff		 lea	 eax, DWORD PTR _buffer$[ebp]
  0009e	57		 push	 edi
  0009f	50		 push	 eax
  000a0	e8 00 00 00 00	 call	 ?util_mkint@@YAHPADH@Z	; util_mkint

; 1734 : 	util_SendMesg(fd, LSSPROTO_TK_SEND, buffer);  //0x23  35

  000a5	8d 85 fc bf ff
	ff		 lea	 eax, DWORD PTR _buffer$[ebp]
  000ab	50		 push	 eax
  000ac	6a 23		 push	 35			; 00000023H
  000ae	ff 75 08	 push	 DWORD PTR _fd$[ebp]
  000b1	e8 00 00 00 00	 call	 ?util_SendMesg@@YAXHHPAD@Z ; util_SendMesg

; 1735 : }

  000b6	8b 4d fc	 mov	 ecx, DWORD PTR __$ArrayPad$[ebp]
  000b9	83 c4 24	 add	 esp, 36			; 00000024H
  000bc	33 cd		 xor	 ecx, ebp
  000be	5f		 pop	 edi
  000bf	5e		 pop	 esi
  000c0	e8 00 00 00 00	 call	 @__security_check_cookie@4
  000c5	8b e5		 mov	 esp, ebp
  000c7	5d		 pop	 ebp
  000c8	c3		 ret	 0
?lssproto_TK_send@@YAXHHHPADHH@Z ENDP			; lssproto_TK_send
_TEXT	ENDS
; Function compile flags: /Ogtp
; File C:\Users\gg862\OneDrive\πŸ≈¡ »≠∏È\∏æƒÌøœ∑·\Client Source Code1.31¿œ∫ª\NewProto\protocol.cpp
;	COMDAT ?lssproto_L_send@@YAXHH@Z
_TEXT	SEGMENT
_buffer$ = -16388					; size = 16384
__$ArrayPad$ = -4					; size = 4
_fd$ = 8						; size = 4
_dir$ = 12						; size = 4
?lssproto_L_send@@YAXHH@Z PROC				; lssproto_L_send, COMDAT

; 1700 : {

  00000	55		 push	 ebp
  00001	8b ec		 mov	 ebp, esp
  00003	b8 04 40 00 00	 mov	 eax, 16388		; 00004004H
  00008	e8 00 00 00 00	 call	 __chkstk
  0000d	a1 00 00 00 00	 mov	 eax, DWORD PTR ___security_cookie
  00012	33 c5		 xor	 eax, ebp
  00014	89 45 fc	 mov	 DWORD PTR __$ArrayPad$[ebp], eax
  00017	56		 push	 esi

; 1701 : 	char buffer[16384];
; 1702 : 	int iChecksum=0;
; 1703 : 
; 1704 : 	buffer[0] = '\0';
; 1705 : 	iChecksum += util_mkint(buffer, dir);

  00018	ff 75 0c	 push	 DWORD PTR _dir$[ebp]
  0001b	8d 85 fc bf ff
	ff		 lea	 eax, DWORD PTR _buffer$[ebp]
  00021	c6 85 fc bf ff
	ff 00		 mov	 BYTE PTR _buffer$[ebp], 0
  00028	50		 push	 eax
  00029	e8 00 00 00 00	 call	 ?util_mkint@@YAHPADH@Z	; util_mkint
  0002e	83 c4 08	 add	 esp, 8
  00031	8b f0		 mov	 esi, eax

; 1706 : 
; 1707 : 	if (g_ÊúçÂä°Âô® == SERVER_Âè∞Êúç)

  00033	83 3d 00 00 00
	00 01		 cmp	 DWORD PTR ?g_‹◊?–Ô@@3HA, 1 ; g_‹◊?–Ô
  0003a	75 16		 jne	 SHORT $LN2@lssproto_L

; 1708 : 	{
; 1709 : 		iChecksum += util_mkint(buffer, intÂè∞ÊúçÂèëÂåÖ);

  0003c	8d 85 fc bf ff
	ff		 lea	 eax, DWORD PTR _buffer$[ebp]
  00042	68 21 ac 12 00	 push	 1223713			; 0012ac21H
  00047	50		 push	 eax
  00048	e8 00 00 00 00	 call	 ?util_mkint@@YAHPADH@Z	; util_mkint
  0004d	83 c4 08	 add	 esp, 8
  00050	03 f0		 add	 esi, eax
$LN2@lssproto_L:

; 1710 : 	}
; 1711 : 
; 1712 : 	util_mkint(buffer, iChecksum);

  00052	8d 85 fc bf ff
	ff		 lea	 eax, DWORD PTR _buffer$[ebp]
  00058	56		 push	 esi
  00059	50		 push	 eax
  0005a	e8 00 00 00 00	 call	 ?util_mkint@@YAHPADH@Z	; util_mkint

; 1713 : 	util_SendMesg(fd, LSSPROTO_L_SEND, buffer); //0x22 34

  0005f	8d 85 fc bf ff
	ff		 lea	 eax, DWORD PTR _buffer$[ebp]
  00065	50		 push	 eax
  00066	6a 22		 push	 34			; 00000022H
  00068	ff 75 08	 push	 DWORD PTR _fd$[ebp]
  0006b	e8 00 00 00 00	 call	 ?util_SendMesg@@YAXHHPAD@Z ; util_SendMesg

; 1714 : }

  00070	8b 4d fc	 mov	 ecx, DWORD PTR __$ArrayPad$[ebp]
  00073	83 c4 14	 add	 esp, 20			; 00000014H
  00076	33 cd		 xor	 ecx, ebp
  00078	5e		 pop	 esi
  00079	e8 00 00 00 00	 call	 @__security_check_cookie@4
  0007e	8b e5		 mov	 esp, ebp
  00080	5d		 pop	 ebp
  00081	c3		 ret	 0
?lssproto_L_send@@YAXHH@Z ENDP				; lssproto_L_send
_TEXT	ENDS
; Function compile flags: /Ogtp
; File C:\Users\gg862\OneDrive\πŸ≈¡ »≠∏È\∏æƒÌøœ∑·\Client Source Code1.31¿œ∫ª\NewProto\protocol.cpp
;	COMDAT ?lssproto_AAB_send@@YAXHHH@Z
_TEXT	SEGMENT
_buffer$ = -16388					; size = 16384
__$ArrayPad$ = -4					; size = 4
_fd$ = 8						; size = 4
_x$ = 12						; size = 4
_y$ = 16						; size = 4
?lssproto_AAB_send@@YAXHHH@Z PROC			; lssproto_AAB_send, COMDAT

; 1684 : {

  00000	55		 push	 ebp
  00001	8b ec		 mov	 ebp, esp
  00003	b8 04 40 00 00	 mov	 eax, 16388		; 00004004H
  00008	e8 00 00 00 00	 call	 __chkstk
  0000d	a1 00 00 00 00	 mov	 eax, DWORD PTR ___security_cookie
  00012	33 c5		 xor	 eax, ebp
  00014	89 45 fc	 mov	 DWORD PTR __$ArrayPad$[ebp], eax
  00017	56		 push	 esi

; 1685 : 	char buffer[16384];
; 1686 : 	int iChecksum=0;
; 1687 : 
; 1688 : 	buffer[0] = '\0';
; 1689 : 	iChecksum += util_mkint(buffer, x);

  00018	ff 75 0c	 push	 DWORD PTR _x$[ebp]
  0001b	8d 85 fc bf ff
	ff		 lea	 eax, DWORD PTR _buffer$[ebp]
  00021	c6 85 fc bf ff
	ff 00		 mov	 BYTE PTR _buffer$[ebp], 0
  00028	50		 push	 eax
  00029	e8 00 00 00 00	 call	 ?util_mkint@@YAHPADH@Z	; util_mkint
  0002e	83 c4 08	 add	 esp, 8
  00031	8b f0		 mov	 esi, eax

; 1690 : 	if (g_ÊúçÂä°Âô® == SERVER_Âè∞Êúç)

  00033	83 3d 00 00 00
	00 01		 cmp	 DWORD PTR ?g_‹◊?–Ô@@3HA, 1 ; g_‹◊?–Ô
  0003a	75 16		 jne	 SHORT $LN2@lssproto_A

; 1691 : 	{
; 1692 : 		iChecksum += util_mkint(buffer, intÂè∞ÊúçÂèëÂåÖ);

  0003c	8d 85 fc bf ff
	ff		 lea	 eax, DWORD PTR _buffer$[ebp]
  00042	68 21 ac 12 00	 push	 1223713			; 0012ac21H
  00047	50		 push	 eax
  00048	e8 00 00 00 00	 call	 ?util_mkint@@YAHPADH@Z	; util_mkint
  0004d	83 c4 08	 add	 esp, 8
  00050	03 f0		 add	 esi, eax
$LN2@lssproto_A:

; 1693 : 	}
; 1694 : 	iChecksum += util_mkint(buffer, y);

  00052	ff 75 10	 push	 DWORD PTR _y$[ebp]
  00055	8d 85 fc bf ff
	ff		 lea	 eax, DWORD PTR _buffer$[ebp]
  0005b	50		 push	 eax
  0005c	e8 00 00 00 00	 call	 ?util_mkint@@YAHPADH@Z	; util_mkint
  00061	03 f0		 add	 esi, eax

; 1695 : 	util_mkint(buffer, iChecksum);

  00063	8d 85 fc bf ff
	ff		 lea	 eax, DWORD PTR _buffer$[ebp]
  00069	56		 push	 esi
  0006a	50		 push	 eax
  0006b	e8 00 00 00 00	 call	 ?util_mkint@@YAHPADH@Z	; util_mkint

; 1696 : 	util_SendMesg(fd, LSSPROTO_AAB_SEND, buffer);   //0x21  33

  00070	8d 85 fc bf ff
	ff		 lea	 eax, DWORD PTR _buffer$[ebp]
  00076	50		 push	 eax
  00077	6a 21		 push	 33			; 00000021H
  00079	ff 75 08	 push	 DWORD PTR _fd$[ebp]
  0007c	e8 00 00 00 00	 call	 ?util_SendMesg@@YAXHHPAD@Z ; util_SendMesg

; 1697 : }

  00081	8b 4d fc	 mov	 ecx, DWORD PTR __$ArrayPad$[ebp]
  00084	83 c4 1c	 add	 esp, 28			; 0000001cH
  00087	33 cd		 xor	 ecx, ebp
  00089	5e		 pop	 esi
  0008a	e8 00 00 00 00	 call	 @__security_check_cookie@4
  0008f	8b e5		 mov	 esp, ebp
  00091	5d		 pop	 ebp
  00092	c3		 ret	 0
?lssproto_AAB_send@@YAXHHH@Z ENDP			; lssproto_AAB_send
_TEXT	ENDS
; Function compile flags: /Ogtp
; File C:\Users\gg862\OneDrive\πŸ≈¡ »≠∏È\∏æƒÌøœ∑·\Client Source Code1.31¿œ∫ª\NewProto\protocol.cpp
;	COMDAT ?lssproto_DAB_send@@YAXHH@Z
_TEXT	SEGMENT
_buffer$ = -16388					; size = 16384
__$ArrayPad$ = -4					; size = 4
_fd$ = 8						; size = 4
_index$ = 12						; size = 4
?lssproto_DAB_send@@YAXHH@Z PROC			; lssproto_DAB_send, COMDAT

; 1669 : {

  00000	55		 push	 ebp
  00001	8b ec		 mov	 ebp, esp
  00003	b8 04 40 00 00	 mov	 eax, 16388		; 00004004H
  00008	e8 00 00 00 00	 call	 __chkstk
  0000d	a1 00 00 00 00	 mov	 eax, DWORD PTR ___security_cookie
  00012	33 c5		 xor	 eax, ebp
  00014	89 45 fc	 mov	 DWORD PTR __$ArrayPad$[ebp], eax
  00017	56		 push	 esi

; 1670 : 	char buffer[16384];
; 1671 : 	int iChecksum=0;

  00018	33 f6		 xor	 esi, esi

; 1672 : 
; 1673 : 	buffer[0] = '\0';

  0001a	c6 85 fc bf ff
	ff 00		 mov	 BYTE PTR _buffer$[ebp], 0

; 1674 : 	if (g_ÊúçÂä°Âô® == SERVER_Âè∞Êúç)

  00021	83 3d 00 00 00
	00 01		 cmp	 DWORD PTR ?g_‹◊?–Ô@@3HA, 1 ; g_‹◊?–Ô
  00028	75 16		 jne	 SHORT $LN2@lssproto_D

; 1675 : 	{
; 1676 : 		iChecksum += util_mkint(buffer, intÂè∞ÊúçÂèëÂåÖ);

  0002a	8d 85 fc bf ff
	ff		 lea	 eax, DWORD PTR _buffer$[ebp]
  00030	68 21 ac 12 00	 push	 1223713			; 0012ac21H
  00035	50		 push	 eax
  00036	e8 00 00 00 00	 call	 ?util_mkint@@YAHPADH@Z	; util_mkint
  0003b	83 c4 08	 add	 esp, 8
  0003e	8b f0		 mov	 esi, eax
$LN2@lssproto_D:

; 1677 : 	}
; 1678 : 	iChecksum += util_mkint(buffer, index);

  00040	ff 75 0c	 push	 DWORD PTR _index$[ebp]
  00043	8d 85 fc bf ff
	ff		 lea	 eax, DWORD PTR _buffer$[ebp]
  00049	50		 push	 eax
  0004a	e8 00 00 00 00	 call	 ?util_mkint@@YAHPADH@Z	; util_mkint
  0004f	03 f0		 add	 esi, eax

; 1679 : 	util_mkint(buffer, iChecksum);

  00051	8d 85 fc bf ff
	ff		 lea	 eax, DWORD PTR _buffer$[ebp]
  00057	56		 push	 esi
  00058	50		 push	 eax
  00059	e8 00 00 00 00	 call	 ?util_mkint@@YAHPADH@Z	; util_mkint

; 1680 : 	util_SendMesg(fd, LSSPROTO_DAB_SEND, buffer);  //0x20 32

  0005e	8d 85 fc bf ff
	ff		 lea	 eax, DWORD PTR _buffer$[ebp]
  00064	50		 push	 eax
  00065	6a 20		 push	 32			; 00000020H
  00067	ff 75 08	 push	 DWORD PTR _fd$[ebp]
  0006a	e8 00 00 00 00	 call	 ?util_SendMesg@@YAXHHPAD@Z ; util_SendMesg

; 1681 : }

  0006f	8b 4d fc	 mov	 ecx, DWORD PTR __$ArrayPad$[ebp]
  00072	83 c4 1c	 add	 esp, 28			; 0000001cH
  00075	33 cd		 xor	 ecx, ebp
  00077	5e		 pop	 esi
  00078	e8 00 00 00 00	 call	 @__security_check_cookie@4
  0007d	8b e5		 mov	 esp, ebp
  0007f	5d		 pop	 ebp
  00080	c3		 ret	 0
?lssproto_DAB_send@@YAXHH@Z ENDP			; lssproto_DAB_send
_TEXT	ENDS
; Function compile flags: /Ogtp
; File C:\Users\gg862\OneDrive\πŸ≈¡ »≠∏È\∏æƒÌøœ∑·\Client Source Code1.31¿œ∫ª\NewProto\protocol.cpp
;	COMDAT ?lssproto_AB_send@@YAXH@Z
_TEXT	SEGMENT
_buffer$ = -16388					; size = 16384
__$ArrayPad$ = -4					; size = 4
_fd$ = 8						; size = 4
?lssproto_AB_send@@YAXH@Z PROC				; lssproto_AB_send, COMDAT

; 1655 : {

  00000	55		 push	 ebp
  00001	8b ec		 mov	 ebp, esp
  00003	b8 04 40 00 00	 mov	 eax, 16388		; 00004004H
  00008	e8 00 00 00 00	 call	 __chkstk
  0000d	a1 00 00 00 00	 mov	 eax, DWORD PTR ___security_cookie
  00012	33 c5		 xor	 eax, ebp
  00014	89 45 fc	 mov	 DWORD PTR __$ArrayPad$[ebp], eax

; 1656 : 	char buffer[16384];
; 1657 : 	int iChecksum=0;

  00017	33 c0		 xor	 eax, eax

; 1658 : 
; 1659 : 	buffer[0] = '\0';
; 1660 : 	if (g_ÊúçÂä°Âô® == SERVER_Âè∞Êúç)

  00019	83 3d 00 00 00
	00 01		 cmp	 DWORD PTR ?g_‹◊?–Ô@@3HA, 1 ; g_‹◊?–Ô
  00020	88 85 fc bf ff
	ff		 mov	 BYTE PTR _buffer$[ebp], al
  00026	75 14		 jne	 SHORT $LN2@lssproto_A

; 1661 : 	{
; 1662 : 		iChecksum += util_mkint(buffer, intÂè∞ÊúçÂèëÂåÖ);

  00028	8d 85 fc bf ff
	ff		 lea	 eax, DWORD PTR _buffer$[ebp]
  0002e	68 21 ac 12 00	 push	 1223713			; 0012ac21H
  00033	50		 push	 eax
  00034	e8 00 00 00 00	 call	 ?util_mkint@@YAHPADH@Z	; util_mkint
  00039	83 c4 08	 add	 esp, 8
$LN2@lssproto_A:

; 1663 : 	}
; 1664 : 	util_mkint(buffer, iChecksum);

  0003c	50		 push	 eax
  0003d	8d 85 fc bf ff
	ff		 lea	 eax, DWORD PTR _buffer$[ebp]
  00043	50		 push	 eax
  00044	e8 00 00 00 00	 call	 ?util_mkint@@YAHPADH@Z	; util_mkint

; 1665 : 	util_SendMesg(fd, LSSPROTO_AB_SEND, buffer); //1D  29

  00049	8d 85 fc bf ff
	ff		 lea	 eax, DWORD PTR _buffer$[ebp]
  0004f	50		 push	 eax
  00050	6a 1d		 push	 29			; 0000001dH
  00052	ff 75 08	 push	 DWORD PTR _fd$[ebp]
  00055	e8 00 00 00 00	 call	 ?util_SendMesg@@YAXHHPAD@Z ; util_SendMesg

; 1666 : }

  0005a	8b 4d fc	 mov	 ecx, DWORD PTR __$ArrayPad$[ebp]
  0005d	83 c4 14	 add	 esp, 20			; 00000014H
  00060	33 cd		 xor	 ecx, ebp
  00062	e8 00 00 00 00	 call	 @__security_check_cookie@4
  00067	8b e5		 mov	 esp, ebp
  00069	5d		 pop	 ebp
  0006a	c3		 ret	 0
?lssproto_AB_send@@YAXH@Z ENDP				; lssproto_AB_send
_TEXT	ENDS
; Function compile flags: /Ogtp
; File C:\Users\gg862\OneDrive\πŸ≈¡ »≠∏È\∏æƒÌøœ∑·\Client Source Code1.31¿œ∫ª\NewProto\protocol.cpp
;	COMDAT ?lssproto_PMSG_send@@YAXHHHHPADH@Z
_TEXT	SEGMENT
_buffer$ = -16388					; size = 16384
__$ArrayPad$ = -4					; size = 4
_fd$ = 8						; size = 4
_index$ = 12						; size = 4
_petindex$ = 16						; size = 4
_itemindex$ = 20					; size = 4
_message$ = 24						; size = 4
_color$ = 28						; size = 4
?lssproto_PMSG_send@@YAXHHHHPADH@Z PROC			; lssproto_PMSG_send, COMDAT

; 1622 : {

  00000	55		 push	 ebp
  00001	8b ec		 mov	 ebp, esp
  00003	b8 04 40 00 00	 mov	 eax, 16388		; 00004004H
  00008	e8 00 00 00 00	 call	 __chkstk
  0000d	a1 00 00 00 00	 mov	 eax, DWORD PTR ___security_cookie
  00012	33 c5		 xor	 eax, ebp
  00014	89 45 fc	 mov	 DWORD PTR __$ArrayPad$[ebp], eax
  00017	56		 push	 esi
  00018	57		 push	 edi

; 1623 : 	char buffer[16384];
; 1624 : 	int iChecksum=0;
; 1625 : 
; 1626 : 	buffer[0] = '\0';
; 1627 : 	iChecksum += util_mkint(buffer, index);

  00019	ff 75 0c	 push	 DWORD PTR _index$[ebp]
  0001c	8b 7d 18	 mov	 edi, DWORD PTR _message$[ebp]
  0001f	8d 85 fc bf ff
	ff		 lea	 eax, DWORD PTR _buffer$[ebp]
  00025	50		 push	 eax
  00026	c6 85 fc bf ff
	ff 00		 mov	 BYTE PTR _buffer$[ebp], 0
  0002d	e8 00 00 00 00	 call	 ?util_mkint@@YAHPADH@Z	; util_mkint

; 1628 : 	iChecksum += util_mkint(buffer, petindex);

  00032	ff 75 10	 push	 DWORD PTR _petindex$[ebp]
  00035	8b f0		 mov	 esi, eax
  00037	8d 85 fc bf ff
	ff		 lea	 eax, DWORD PTR _buffer$[ebp]
  0003d	50		 push	 eax
  0003e	e8 00 00 00 00	 call	 ?util_mkint@@YAHPADH@Z	; util_mkint

; 1629 : 	iChecksum += util_mkint(buffer, itemindex);

  00043	ff 75 14	 push	 DWORD PTR _itemindex$[ebp]
  00046	03 f0		 add	 esi, eax
  00048	8d 85 fc bf ff
	ff		 lea	 eax, DWORD PTR _buffer$[ebp]
  0004e	50		 push	 eax
  0004f	e8 00 00 00 00	 call	 ?util_mkint@@YAHPADH@Z	; util_mkint
  00054	83 c4 18	 add	 esp, 24			; 00000018H
  00057	03 f0		 add	 esi, eax

; 1630 : 
; 1631 : 	if (g_ÊúçÂä°Âô® == SERVER_Âè∞Êúç)

  00059	83 3d 00 00 00
	00 01		 cmp	 DWORD PTR ?g_‹◊?–Ô@@3HA, 1 ; g_‹◊?–Ô
  00060	75 16		 jne	 SHORT $LN2@lssproto_P

; 1632 : 	{
; 1633 : 		iChecksum += util_mkint(buffer, intÂè∞ÊúçÂèëÂåÖ);

  00062	8d 85 fc bf ff
	ff		 lea	 eax, DWORD PTR _buffer$[ebp]
  00068	68 21 ac 12 00	 push	 1223713			; 0012ac21H
  0006d	50		 push	 eax
  0006e	e8 00 00 00 00	 call	 ?util_mkint@@YAHPADH@Z	; util_mkint
  00073	83 c4 08	 add	 esp, 8
  00076	03 f0		 add	 esi, eax
$LN2@lssproto_P:

; 1634 : 	}
; 1635 : 
; 1636 : 	iChecksum += util_mkstring(buffer, message);

  00078	8d 85 fc bf ff
	ff		 lea	 eax, DWORD PTR _buffer$[ebp]
  0007e	57		 push	 edi
  0007f	50		 push	 eax
  00080	e8 00 00 00 00	 call	 ?util_mkstring@@YAHPAD0@Z ; util_mkstring

; 1637 : 	iChecksum += util_mkint(buffer, color);

  00085	ff 75 1c	 push	 DWORD PTR _color$[ebp]
  00088	03 f0		 add	 esi, eax
  0008a	8d 85 fc bf ff
	ff		 lea	 eax, DWORD PTR _buffer$[ebp]
  00090	50		 push	 eax
  00091	e8 00 00 00 00	 call	 ?util_mkint@@YAHPADH@Z	; util_mkint
  00096	03 f0		 add	 esi, eax

; 1638 : 	util_mkint(buffer, iChecksum);

  00098	8d 85 fc bf ff
	ff		 lea	 eax, DWORD PTR _buffer$[ebp]
  0009e	56		 push	 esi
  0009f	50		 push	 eax
  000a0	e8 00 00 00 00	 call	 ?util_mkint@@YAHPADH@Z	; util_mkint

; 1639 : 	util_SendMesg(fd, LSSPROTO_PMSG_SEND, buffer);  //0x1b  27

  000a5	8d 85 fc bf ff
	ff		 lea	 eax, DWORD PTR _buffer$[ebp]
  000ab	50		 push	 eax
  000ac	6a 1b		 push	 27			; 0000001bH
  000ae	ff 75 08	 push	 DWORD PTR _fd$[ebp]
  000b1	e8 00 00 00 00	 call	 ?util_SendMesg@@YAXHHPAD@Z ; util_SendMesg

; 1640 : }

  000b6	8b 4d fc	 mov	 ecx, DWORD PTR __$ArrayPad$[ebp]
  000b9	83 c4 24	 add	 esp, 36			; 00000024H
  000bc	33 cd		 xor	 ecx, ebp
  000be	5f		 pop	 edi
  000bf	5e		 pop	 esi
  000c0	e8 00 00 00 00	 call	 @__security_check_cookie@4
  000c5	8b e5		 mov	 esp, ebp
  000c7	5d		 pop	 ebp
  000c8	c3		 ret	 0
?lssproto_PMSG_send@@YAXHHHHPADH@Z ENDP			; lssproto_PMSG_send
_TEXT	ENDS
; Function compile flags: /Ogtp
; File C:\Users\gg862\OneDrive\πŸ≈¡ »≠∏È\∏æƒÌøœ∑·\Client Source Code1.31¿œ∫ª\NewProto\protocol.cpp
;	COMDAT ?lssproto_MSG_send@@YAXHHPADH@Z
_TEXT	SEGMENT
_buffer$ = -16388					; size = 16384
__$ArrayPad$ = -4					; size = 4
_fd$ = 8						; size = 4
_index$ = 12						; size = 4
_message$ = 16						; size = 4
_color$ = 20						; size = 4
?lssproto_MSG_send@@YAXHHPADH@Z PROC			; lssproto_MSG_send, COMDAT

; 1603 : {

  00000	55		 push	 ebp
  00001	8b ec		 mov	 ebp, esp
  00003	b8 04 40 00 00	 mov	 eax, 16388		; 00004004H
  00008	e8 00 00 00 00	 call	 __chkstk
  0000d	a1 00 00 00 00	 mov	 eax, DWORD PTR ___security_cookie
  00012	33 c5		 xor	 eax, ebp
  00014	89 45 fc	 mov	 DWORD PTR __$ArrayPad$[ebp], eax
  00017	56		 push	 esi

; 1604 : 	char buffer[16384];
; 1605 : 	int iChecksum=0;

  00018	33 f6		 xor	 esi, esi

; 1606 : 
; 1607 : 	buffer[0] = '\0';

  0001a	c6 85 fc bf ff
	ff 00		 mov	 BYTE PTR _buffer$[ebp], 0

; 1608 : 
; 1609 : 	if (g_ÊúçÂä°Âô® == SERVER_Âè∞Êúç)

  00021	83 3d 00 00 00
	00 01		 cmp	 DWORD PTR ?g_‹◊?–Ô@@3HA, 1 ; g_‹◊?–Ô
  00028	57		 push	 edi
  00029	8b 7d 10	 mov	 edi, DWORD PTR _message$[ebp]
  0002c	75 16		 jne	 SHORT $LN2@lssproto_M

; 1610 : 	{
; 1611 : 		iChecksum += util_mkint(buffer, intÂè∞ÊúçÂèëÂåÖ);

  0002e	8d 85 fc bf ff
	ff		 lea	 eax, DWORD PTR _buffer$[ebp]
  00034	68 21 ac 12 00	 push	 1223713			; 0012ac21H
  00039	50		 push	 eax
  0003a	e8 00 00 00 00	 call	 ?util_mkint@@YAHPADH@Z	; util_mkint
  0003f	83 c4 08	 add	 esp, 8
  00042	8b f0		 mov	 esi, eax
$LN2@lssproto_M:

; 1612 : 	}
; 1613 : 
; 1614 : 	iChecksum += util_mkint(buffer, index);

  00044	ff 75 0c	 push	 DWORD PTR _index$[ebp]
  00047	8d 85 fc bf ff
	ff		 lea	 eax, DWORD PTR _buffer$[ebp]
  0004d	50		 push	 eax
  0004e	e8 00 00 00 00	 call	 ?util_mkint@@YAHPADH@Z	; util_mkint
  00053	03 f0		 add	 esi, eax

; 1615 : 	iChecksum += util_mkstring(buffer, message);

  00055	8d 85 fc bf ff
	ff		 lea	 eax, DWORD PTR _buffer$[ebp]
  0005b	57		 push	 edi
  0005c	50		 push	 eax
  0005d	e8 00 00 00 00	 call	 ?util_mkstring@@YAHPAD0@Z ; util_mkstring

; 1616 : 	iChecksum += util_mkint(buffer, color);

  00062	ff 75 14	 push	 DWORD PTR _color$[ebp]
  00065	03 f0		 add	 esi, eax
  00067	8d 85 fc bf ff
	ff		 lea	 eax, DWORD PTR _buffer$[ebp]
  0006d	50		 push	 eax
  0006e	e8 00 00 00 00	 call	 ?util_mkint@@YAHPADH@Z	; util_mkint
  00073	03 f0		 add	 esi, eax

; 1617 : 	util_mkint(buffer, iChecksum);

  00075	8d 85 fc bf ff
	ff		 lea	 eax, DWORD PTR _buffer$[ebp]
  0007b	56		 push	 esi
  0007c	50		 push	 eax
  0007d	e8 00 00 00 00	 call	 ?util_mkint@@YAHPADH@Z	; util_mkint

; 1618 : 	util_SendMesg(fd, LSSPROTO_MSG_SEND, buffer); //0x19 25

  00082	8d 85 fc bf ff
	ff		 lea	 eax, DWORD PTR _buffer$[ebp]
  00088	50		 push	 eax
  00089	6a 19		 push	 25			; 00000019H
  0008b	ff 75 08	 push	 DWORD PTR _fd$[ebp]
  0008e	e8 00 00 00 00	 call	 ?util_SendMesg@@YAXHHPAD@Z ; util_SendMesg

; 1619 : }

  00093	8b 4d fc	 mov	 ecx, DWORD PTR __$ArrayPad$[ebp]
  00096	83 c4 2c	 add	 esp, 44			; 0000002cH
  00099	33 cd		 xor	 ecx, ebp
  0009b	5f		 pop	 edi
  0009c	5e		 pop	 esi
  0009d	e8 00 00 00 00	 call	 @__security_check_cookie@4
  000a2	8b e5		 mov	 esp, ebp
  000a4	5d		 pop	 ebp
  000a5	c3		 ret	 0
?lssproto_MSG_send@@YAXHHPADH@Z ENDP			; lssproto_MSG_send
_TEXT	ENDS
; Function compile flags: /Ogtp
; File C:\Users\gg862\OneDrive\πŸ≈¡ »≠∏È\∏æƒÌøœ∑·\Client Source Code1.31¿œ∫ª\NewProto\protocol.cpp
;	COMDAT ?lssproto_MI_send@@YAXHHH@Z
_TEXT	SEGMENT
_buffer$ = -16388					; size = 16384
__$ArrayPad$ = -4					; size = 4
_fd$ = 8						; size = 4
_fromindex$ = 12					; size = 4
_toindex$ = 16						; size = 4
?lssproto_MI_send@@YAXHHH@Z PROC			; lssproto_MI_send, COMDAT

; 1585 : {

  00000	55		 push	 ebp
  00001	8b ec		 mov	 ebp, esp
  00003	b8 04 40 00 00	 mov	 eax, 16388		; 00004004H
  00008	e8 00 00 00 00	 call	 __chkstk
  0000d	a1 00 00 00 00	 mov	 eax, DWORD PTR ___security_cookie
  00012	33 c5		 xor	 eax, ebp
  00014	89 45 fc	 mov	 DWORD PTR __$ArrayPad$[ebp], eax
  00017	56		 push	 esi

; 1586 : 	char buffer[16384];
; 1587 : 	int iChecksum=0;

  00018	33 f6		 xor	 esi, esi

; 1588 : 
; 1589 : 	buffer[0] = '\0';

  0001a	c6 85 fc bf ff
	ff 00		 mov	 BYTE PTR _buffer$[ebp], 0

; 1590 : 
; 1591 : 	if (g_ÊúçÂä°Âô® == SERVER_Âè∞Êúç)

  00021	83 3d 00 00 00
	00 01		 cmp	 DWORD PTR ?g_‹◊?–Ô@@3HA, 1 ; g_‹◊?–Ô
  00028	75 16		 jne	 SHORT $LN2@lssproto_M

; 1592 : 	{
; 1593 : 		iChecksum += util_mkint(buffer, intÂè∞ÊúçÂèëÂåÖ);

  0002a	8d 85 fc bf ff
	ff		 lea	 eax, DWORD PTR _buffer$[ebp]
  00030	68 21 ac 12 00	 push	 1223713			; 0012ac21H
  00035	50		 push	 eax
  00036	e8 00 00 00 00	 call	 ?util_mkint@@YAHPADH@Z	; util_mkint
  0003b	83 c4 08	 add	 esp, 8
  0003e	8b f0		 mov	 esi, eax
$LN2@lssproto_M:

; 1594 : 	}
; 1595 : 
; 1596 : 	iChecksum += util_mkint(buffer, fromindex);

  00040	ff 75 0c	 push	 DWORD PTR _fromindex$[ebp]
  00043	8d 85 fc bf ff
	ff		 lea	 eax, DWORD PTR _buffer$[ebp]
  00049	50		 push	 eax
  0004a	e8 00 00 00 00	 call	 ?util_mkint@@YAHPADH@Z	; util_mkint

; 1597 : 	iChecksum += util_mkint(buffer, toindex);

  0004f	ff 75 10	 push	 DWORD PTR _toindex$[ebp]
  00052	03 f0		 add	 esi, eax
  00054	8d 85 fc bf ff
	ff		 lea	 eax, DWORD PTR _buffer$[ebp]
  0005a	50		 push	 eax
  0005b	e8 00 00 00 00	 call	 ?util_mkint@@YAHPADH@Z	; util_mkint
  00060	03 f0		 add	 esi, eax

; 1598 : 	util_mkint(buffer, iChecksum);

  00062	8d 85 fc bf ff
	ff		 lea	 eax, DWORD PTR _buffer$[ebp]
  00068	56		 push	 esi
  00069	50		 push	 eax
  0006a	e8 00 00 00 00	 call	 ?util_mkint@@YAHPADH@Z	; util_mkint

; 1599 : 	util_SendMesg(fd, LSSPROTO_MI_SEND, buffer);  //0x17  23

  0006f	8d 85 fc bf ff
	ff		 lea	 eax, DWORD PTR _buffer$[ebp]
  00075	50		 push	 eax
  00076	6a 17		 push	 23			; 00000017H
  00078	ff 75 08	 push	 DWORD PTR _fd$[ebp]
  0007b	e8 00 00 00 00	 call	 ?util_SendMesg@@YAXHHPAD@Z ; util_SendMesg

; 1600 : }

  00080	8b 4d fc	 mov	 ecx, DWORD PTR __$ArrayPad$[ebp]
  00083	83 c4 24	 add	 esp, 36			; 00000024H
  00086	33 cd		 xor	 ecx, ebp
  00088	5e		 pop	 esi
  00089	e8 00 00 00 00	 call	 @__security_check_cookie@4
  0008e	8b e5		 mov	 esp, ebp
  00090	5d		 pop	 ebp
  00091	c3		 ret	 0
?lssproto_MI_send@@YAXHHH@Z ENDP			; lssproto_MI_send
_TEXT	ENDS
; Function compile flags: /Ogtp
; File C:\Users\gg862\OneDrive\πŸ≈¡ »≠∏È\∏æƒÌøœ∑·\Client Source Code1.31¿œ∫ª\NewProto\protocol.cpp
;	COMDAT ?lssproto_DP_send@@YAXHHHH@Z
_TEXT	SEGMENT
_buffer$ = -16388					; size = 16384
__$ArrayPad$ = -4					; size = 4
_fd$ = 8						; size = 4
_x$ = 12						; size = 4
_y$ = 16						; size = 4
_petindex$ = 20						; size = 4
?lssproto_DP_send@@YAXHHHH@Z PROC			; lssproto_DP_send, COMDAT

; 1566 : {

  00000	55		 push	 ebp
  00001	8b ec		 mov	 ebp, esp
  00003	b8 04 40 00 00	 mov	 eax, 16388		; 00004004H
  00008	e8 00 00 00 00	 call	 __chkstk
  0000d	a1 00 00 00 00	 mov	 eax, DWORD PTR ___security_cookie
  00012	33 c5		 xor	 eax, ebp
  00014	89 45 fc	 mov	 DWORD PTR __$ArrayPad$[ebp], eax
  00017	56		 push	 esi

; 1567 : 	char buffer[16384];
; 1568 : 	int iChecksum=0;

  00018	33 f6		 xor	 esi, esi

; 1569 : 
; 1570 : 	buffer[0] = '\0';

  0001a	c6 85 fc bf ff
	ff 00		 mov	 BYTE PTR _buffer$[ebp], 0

; 1571 : 
; 1572 : 	if (g_ÊúçÂä°Âô® == SERVER_Âè∞Êúç)

  00021	83 3d 00 00 00
	00 01		 cmp	 DWORD PTR ?g_‹◊?–Ô@@3HA, 1 ; g_‹◊?–Ô
  00028	75 16		 jne	 SHORT $LN2@lssproto_D

; 1573 : 	{
; 1574 : 		iChecksum += util_mkint(buffer, intÂè∞ÊúçÂèëÂåÖ);

  0002a	8d 85 fc bf ff
	ff		 lea	 eax, DWORD PTR _buffer$[ebp]
  00030	68 21 ac 12 00	 push	 1223713			; 0012ac21H
  00035	50		 push	 eax
  00036	e8 00 00 00 00	 call	 ?util_mkint@@YAHPADH@Z	; util_mkint
  0003b	83 c4 08	 add	 esp, 8
  0003e	8b f0		 mov	 esi, eax
$LN2@lssproto_D:

; 1575 : 	}
; 1576 : 
; 1577 : 	iChecksum += util_mkint(buffer, x);

  00040	ff 75 0c	 push	 DWORD PTR _x$[ebp]
  00043	8d 85 fc bf ff
	ff		 lea	 eax, DWORD PTR _buffer$[ebp]
  00049	50		 push	 eax
  0004a	e8 00 00 00 00	 call	 ?util_mkint@@YAHPADH@Z	; util_mkint

; 1578 : 	iChecksum += util_mkint(buffer, y);

  0004f	ff 75 10	 push	 DWORD PTR _y$[ebp]
  00052	03 f0		 add	 esi, eax
  00054	8d 85 fc bf ff
	ff		 lea	 eax, DWORD PTR _buffer$[ebp]
  0005a	50		 push	 eax
  0005b	e8 00 00 00 00	 call	 ?util_mkint@@YAHPADH@Z	; util_mkint

; 1579 : 	iChecksum += util_mkint(buffer, petindex);

  00060	ff 75 14	 push	 DWORD PTR _petindex$[ebp]
  00063	03 f0		 add	 esi, eax
  00065	8d 85 fc bf ff
	ff		 lea	 eax, DWORD PTR _buffer$[ebp]
  0006b	50		 push	 eax
  0006c	e8 00 00 00 00	 call	 ?util_mkint@@YAHPADH@Z	; util_mkint
  00071	03 f0		 add	 esi, eax

; 1580 : 	util_mkint(buffer, iChecksum);

  00073	8d 85 fc bf ff
	ff		 lea	 eax, DWORD PTR _buffer$[ebp]
  00079	56		 push	 esi
  0007a	50		 push	 eax
  0007b	e8 00 00 00 00	 call	 ?util_mkint@@YAHPADH@Z	; util_mkint

; 1581 : 	util_SendMesg(fd, LSSPROTO_DP_SEND, buffer); //0x15  21

  00080	8d 85 fc bf ff
	ff		 lea	 eax, DWORD PTR _buffer$[ebp]
  00086	50		 push	 eax
  00087	6a 15		 push	 21			; 00000015H
  00089	ff 75 08	 push	 DWORD PTR _fd$[ebp]
  0008c	e8 00 00 00 00	 call	 ?util_SendMesg@@YAXHHPAD@Z ; util_SendMesg

; 1582 : }

  00091	8b 4d fc	 mov	 ecx, DWORD PTR __$ArrayPad$[ebp]
  00094	83 c4 2c	 add	 esp, 44			; 0000002cH
  00097	33 cd		 xor	 ecx, ebp
  00099	5e		 pop	 esi
  0009a	e8 00 00 00 00	 call	 @__security_check_cookie@4
  0009f	8b e5		 mov	 esp, ebp
  000a1	5d		 pop	 ebp
  000a2	c3		 ret	 0
?lssproto_DP_send@@YAXHHHH@Z ENDP			; lssproto_DP_send
_TEXT	ENDS
; Function compile flags: /Ogtp
; File C:\Users\gg862\OneDrive\πŸ≈¡ »≠∏È\∏æƒÌøœ∑·\Client Source Code1.31¿œ∫ª\NewProto\protocol.cpp
;	COMDAT ?lssproto_DG_send@@YAXHHHH@Z
_TEXT	SEGMENT
_buffer$ = -16388					; size = 16384
__$ArrayPad$ = -4					; size = 4
_fd$ = 8						; size = 4
_x$ = 12						; size = 4
_y$ = 16						; size = 4
_amount$ = 20						; size = 4
?lssproto_DG_send@@YAXHHHH@Z PROC			; lssproto_DG_send, COMDAT

; 1547 : {

  00000	55		 push	 ebp
  00001	8b ec		 mov	 ebp, esp
  00003	b8 04 40 00 00	 mov	 eax, 16388		; 00004004H
  00008	e8 00 00 00 00	 call	 __chkstk
  0000d	a1 00 00 00 00	 mov	 eax, DWORD PTR ___security_cookie
  00012	33 c5		 xor	 eax, ebp
  00014	89 45 fc	 mov	 DWORD PTR __$ArrayPad$[ebp], eax
  00017	56		 push	 esi

; 1548 : 	char buffer[16384];
; 1549 : 	int iChecksum=0;
; 1550 : 
; 1551 : 	buffer[0] = '\0';
; 1552 : 	iChecksum += util_mkint(buffer, x);

  00018	ff 75 0c	 push	 DWORD PTR _x$[ebp]
  0001b	8d 85 fc bf ff
	ff		 lea	 eax, DWORD PTR _buffer$[ebp]
  00021	c6 85 fc bf ff
	ff 00		 mov	 BYTE PTR _buffer$[ebp], 0
  00028	50		 push	 eax
  00029	e8 00 00 00 00	 call	 ?util_mkint@@YAHPADH@Z	; util_mkint

; 1553 : 	iChecksum += util_mkint(buffer, y);

  0002e	ff 75 10	 push	 DWORD PTR _y$[ebp]
  00031	8b f0		 mov	 esi, eax
  00033	8d 85 fc bf ff
	ff		 lea	 eax, DWORD PTR _buffer$[ebp]
  00039	50		 push	 eax
  0003a	e8 00 00 00 00	 call	 ?util_mkint@@YAHPADH@Z	; util_mkint
  0003f	83 c4 10	 add	 esp, 16			; 00000010H
  00042	03 f0		 add	 esi, eax

; 1554 : 
; 1555 : 	if (g_ÊúçÂä°Âô® == SERVER_Âè∞Êúç)

  00044	83 3d 00 00 00
	00 01		 cmp	 DWORD PTR ?g_‹◊?–Ô@@3HA, 1 ; g_‹◊?–Ô
  0004b	75 16		 jne	 SHORT $LN2@lssproto_D

; 1556 : 	{
; 1557 : 		iChecksum += util_mkint(buffer, intÂè∞ÊúçÂèëÂåÖ);

  0004d	8d 85 fc bf ff
	ff		 lea	 eax, DWORD PTR _buffer$[ebp]
  00053	68 21 ac 12 00	 push	 1223713			; 0012ac21H
  00058	50		 push	 eax
  00059	e8 00 00 00 00	 call	 ?util_mkint@@YAHPADH@Z	; util_mkint
  0005e	83 c4 08	 add	 esp, 8
  00061	03 f0		 add	 esi, eax
$LN2@lssproto_D:

; 1558 : 	}
; 1559 : 
; 1560 : 	iChecksum += util_mkint(buffer, amount);

  00063	ff 75 14	 push	 DWORD PTR _amount$[ebp]
  00066	8d 85 fc bf ff
	ff		 lea	 eax, DWORD PTR _buffer$[ebp]
  0006c	50		 push	 eax
  0006d	e8 00 00 00 00	 call	 ?util_mkint@@YAHPADH@Z	; util_mkint
  00072	03 f0		 add	 esi, eax

; 1561 : 	util_mkint(buffer, iChecksum);

  00074	8d 85 fc bf ff
	ff		 lea	 eax, DWORD PTR _buffer$[ebp]
  0007a	56		 push	 esi
  0007b	50		 push	 eax
  0007c	e8 00 00 00 00	 call	 ?util_mkint@@YAHPADH@Z	; util_mkint

; 1562 : 	util_SendMesg(fd, LSSPROTO_DG_SEND, buffer);  //0x14  20

  00081	8d 85 fc bf ff
	ff		 lea	 eax, DWORD PTR _buffer$[ebp]
  00087	50		 push	 eax
  00088	6a 14		 push	 20			; 00000014H
  0008a	ff 75 08	 push	 DWORD PTR _fd$[ebp]
  0008d	e8 00 00 00 00	 call	 ?util_SendMesg@@YAXHHPAD@Z ; util_SendMesg

; 1563 : }

  00092	8b 4d fc	 mov	 ecx, DWORD PTR __$ArrayPad$[ebp]
  00095	83 c4 1c	 add	 esp, 28			; 0000001cH
  00098	33 cd		 xor	 ecx, ebp
  0009a	5e		 pop	 esi
  0009b	e8 00 00 00 00	 call	 @__security_check_cookie@4
  000a0	8b e5		 mov	 esp, ebp
  000a2	5d		 pop	 ebp
  000a3	c3		 ret	 0
?lssproto_DG_send@@YAXHHHH@Z ENDP			; lssproto_DG_send
_TEXT	ENDS
; Function compile flags: /Ogtp
; File C:\Users\gg862\OneDrive\πŸ≈¡ »≠∏È\∏æƒÌøœ∑·\Client Source Code1.31¿œ∫ª\NewProto\protocol.cpp
;	COMDAT ?lssproto_DI_send@@YAXHHHH@Z
_TEXT	SEGMENT
_buffer$ = -16388					; size = 16384
__$ArrayPad$ = -4					; size = 4
_fd$ = 8						; size = 4
_x$ = 12						; size = 4
_y$ = 16						; size = 4
_itemindex$ = 20					; size = 4
?lssproto_DI_send@@YAXHHHH@Z PROC			; lssproto_DI_send, COMDAT

; 1528 : {

  00000	55		 push	 ebp
  00001	8b ec		 mov	 ebp, esp
  00003	b8 04 40 00 00	 mov	 eax, 16388		; 00004004H
  00008	e8 00 00 00 00	 call	 __chkstk
  0000d	a1 00 00 00 00	 mov	 eax, DWORD PTR ___security_cookie
  00012	33 c5		 xor	 eax, ebp
  00014	89 45 fc	 mov	 DWORD PTR __$ArrayPad$[ebp], eax
  00017	56		 push	 esi

; 1529 : 	char buffer[16384];
; 1530 : 	int iChecksum=0;
; 1531 : 
; 1532 : 	buffer[0] = '\0';
; 1533 : 	iChecksum += util_mkint(buffer, x);

  00018	ff 75 0c	 push	 DWORD PTR _x$[ebp]
  0001b	8d 85 fc bf ff
	ff		 lea	 eax, DWORD PTR _buffer$[ebp]
  00021	c6 85 fc bf ff
	ff 00		 mov	 BYTE PTR _buffer$[ebp], 0
  00028	50		 push	 eax
  00029	e8 00 00 00 00	 call	 ?util_mkint@@YAHPADH@Z	; util_mkint
  0002e	83 c4 08	 add	 esp, 8
  00031	8b f0		 mov	 esi, eax

; 1534 : 
; 1535 : 	if (g_ÊúçÂä°Âô® == SERVER_Âè∞Êúç)

  00033	83 3d 00 00 00
	00 01		 cmp	 DWORD PTR ?g_‹◊?–Ô@@3HA, 1 ; g_‹◊?–Ô
  0003a	75 16		 jne	 SHORT $LN2@lssproto_D

; 1536 : 	{
; 1537 : 		iChecksum += util_mkint(buffer, intÂè∞ÊúçÂèëÂåÖ);

  0003c	8d 85 fc bf ff
	ff		 lea	 eax, DWORD PTR _buffer$[ebp]
  00042	68 21 ac 12 00	 push	 1223713			; 0012ac21H
  00047	50		 push	 eax
  00048	e8 00 00 00 00	 call	 ?util_mkint@@YAHPADH@Z	; util_mkint
  0004d	83 c4 08	 add	 esp, 8
  00050	03 f0		 add	 esi, eax
$LN2@lssproto_D:

; 1538 : 	}
; 1539 : 
; 1540 : 	iChecksum += util_mkint(buffer, y);

  00052	ff 75 10	 push	 DWORD PTR _y$[ebp]
  00055	8d 85 fc bf ff
	ff		 lea	 eax, DWORD PTR _buffer$[ebp]
  0005b	50		 push	 eax
  0005c	e8 00 00 00 00	 call	 ?util_mkint@@YAHPADH@Z	; util_mkint

; 1541 : 	iChecksum += util_mkint(buffer, itemindex);

  00061	ff 75 14	 push	 DWORD PTR _itemindex$[ebp]
  00064	03 f0		 add	 esi, eax
  00066	8d 85 fc bf ff
	ff		 lea	 eax, DWORD PTR _buffer$[ebp]
  0006c	50		 push	 eax
  0006d	e8 00 00 00 00	 call	 ?util_mkint@@YAHPADH@Z	; util_mkint
  00072	03 f0		 add	 esi, eax

; 1542 : 	util_mkint(buffer, iChecksum);

  00074	8d 85 fc bf ff
	ff		 lea	 eax, DWORD PTR _buffer$[ebp]
  0007a	56		 push	 esi
  0007b	50		 push	 eax
  0007c	e8 00 00 00 00	 call	 ?util_mkint@@YAHPADH@Z	; util_mkint

; 1543 : 	util_SendMesg(fd, LSSPROTO_DI_SEND, buffer);  //0x13  19

  00081	8d 85 fc bf ff
	ff		 lea	 eax, DWORD PTR _buffer$[ebp]
  00087	50		 push	 eax
  00088	6a 13		 push	 19			; 00000013H
  0008a	ff 75 08	 push	 DWORD PTR _fd$[ebp]
  0008d	e8 00 00 00 00	 call	 ?util_SendMesg@@YAXHHPAD@Z ; util_SendMesg

; 1544 : }

  00092	8b 4d fc	 mov	 ecx, DWORD PTR __$ArrayPad$[ebp]
  00095	83 c4 24	 add	 esp, 36			; 00000024H
  00098	33 cd		 xor	 ecx, ebp
  0009a	5e		 pop	 esi
  0009b	e8 00 00 00 00	 call	 @__security_check_cookie@4
  000a0	8b e5		 mov	 esp, ebp
  000a2	5d		 pop	 ebp
  000a3	c3		 ret	 0
?lssproto_DI_send@@YAXHHHH@Z ENDP			; lssproto_DI_send
_TEXT	ENDS
; Function compile flags: /Ogtp
; File C:\Users\gg862\OneDrive\πŸ≈¡ »≠∏È\∏æƒÌøœ∑·\Client Source Code1.31¿œ∫ª\NewProto\protocol.cpp
;	COMDAT ?lssproto_PI_send@@YAXHHHH@Z
_TEXT	SEGMENT
_buffer$ = -16388					; size = 16384
__$ArrayPad$ = -4					; size = 4
_fd$ = 8						; size = 4
_x$ = 12						; size = 4
_y$ = 16						; size = 4
_dir$ = 20						; size = 4
?lssproto_PI_send@@YAXHHHH@Z PROC			; lssproto_PI_send, COMDAT

; 1509 : {

  00000	55		 push	 ebp
  00001	8b ec		 mov	 ebp, esp
  00003	b8 04 40 00 00	 mov	 eax, 16388		; 00004004H
  00008	e8 00 00 00 00	 call	 __chkstk
  0000d	a1 00 00 00 00	 mov	 eax, DWORD PTR ___security_cookie
  00012	33 c5		 xor	 eax, ebp
  00014	89 45 fc	 mov	 DWORD PTR __$ArrayPad$[ebp], eax
  00017	56		 push	 esi

; 1510 : 	char buffer[16384];
; 1511 : 	int iChecksum=0;
; 1512 : 
; 1513 : 	buffer[0] = '\0';
; 1514 : 	iChecksum += util_mkint(buffer, x);

  00018	ff 75 0c	 push	 DWORD PTR _x$[ebp]
  0001b	8d 85 fc bf ff
	ff		 lea	 eax, DWORD PTR _buffer$[ebp]
  00021	c6 85 fc bf ff
	ff 00		 mov	 BYTE PTR _buffer$[ebp], 0
  00028	50		 push	 eax
  00029	e8 00 00 00 00	 call	 ?util_mkint@@YAHPADH@Z	; util_mkint

; 1515 : 	iChecksum += util_mkint(buffer, y);

  0002e	ff 75 10	 push	 DWORD PTR _y$[ebp]
  00031	8b f0		 mov	 esi, eax
  00033	8d 85 fc bf ff
	ff		 lea	 eax, DWORD PTR _buffer$[ebp]
  00039	50		 push	 eax
  0003a	e8 00 00 00 00	 call	 ?util_mkint@@YAHPADH@Z	; util_mkint
  0003f	83 c4 10	 add	 esp, 16			; 00000010H
  00042	03 f0		 add	 esi, eax

; 1516 : 
; 1517 : 	if (g_ÊúçÂä°Âô® == SERVER_Âè∞Êúç)

  00044	83 3d 00 00 00
	00 01		 cmp	 DWORD PTR ?g_‹◊?–Ô@@3HA, 1 ; g_‹◊?–Ô
  0004b	75 16		 jne	 SHORT $LN2@lssproto_P

; 1518 : 	{
; 1519 : 		iChecksum += util_mkint(buffer, intÂè∞ÊúçÂèëÂåÖ);

  0004d	8d 85 fc bf ff
	ff		 lea	 eax, DWORD PTR _buffer$[ebp]
  00053	68 21 ac 12 00	 push	 1223713			; 0012ac21H
  00058	50		 push	 eax
  00059	e8 00 00 00 00	 call	 ?util_mkint@@YAHPADH@Z	; util_mkint
  0005e	83 c4 08	 add	 esp, 8
  00061	03 f0		 add	 esi, eax
$LN2@lssproto_P:

; 1520 : 	}
; 1521 : 
; 1522 : 	iChecksum += util_mkint(buffer, dir);

  00063	ff 75 14	 push	 DWORD PTR _dir$[ebp]
  00066	8d 85 fc bf ff
	ff		 lea	 eax, DWORD PTR _buffer$[ebp]
  0006c	50		 push	 eax
  0006d	e8 00 00 00 00	 call	 ?util_mkint@@YAHPADH@Z	; util_mkint
  00072	03 f0		 add	 esi, eax

; 1523 : 	util_mkint(buffer, iChecksum);

  00074	8d 85 fc bf ff
	ff		 lea	 eax, DWORD PTR _buffer$[ebp]
  0007a	56		 push	 esi
  0007b	50		 push	 eax
  0007c	e8 00 00 00 00	 call	 ?util_mkint@@YAHPADH@Z	; util_mkint

; 1524 : 	util_SendMesg(fd, LSSPROTO_PI_SEND, buffer); //0x12  18

  00081	8d 85 fc bf ff
	ff		 lea	 eax, DWORD PTR _buffer$[ebp]
  00087	50		 push	 eax
  00088	6a 12		 push	 18			; 00000012H
  0008a	ff 75 08	 push	 DWORD PTR _fd$[ebp]
  0008d	e8 00 00 00 00	 call	 ?util_SendMesg@@YAXHHPAD@Z ; util_SendMesg

; 1525 : }

  00092	8b 4d fc	 mov	 ecx, DWORD PTR __$ArrayPad$[ebp]
  00095	83 c4 1c	 add	 esp, 28			; 0000001cH
  00098	33 cd		 xor	 ecx, ebp
  0009a	5e		 pop	 esi
  0009b	e8 00 00 00 00	 call	 @__security_check_cookie@4
  000a0	8b e5		 mov	 esp, ebp
  000a2	5d		 pop	 ebp
  000a3	c3		 ret	 0
?lssproto_PI_send@@YAXHHHH@Z ENDP			; lssproto_PI_send
_TEXT	ENDS
; Function compile flags: /Ogtp
; File C:\Users\gg862\OneDrive\πŸ≈¡ »≠∏È\∏æƒÌøœ∑·\Client Source Code1.31¿œ∫ª\NewProto\protocol.cpp
;	COMDAT ?lssproto_ID_send@@YAXHHHHH@Z
_TEXT	SEGMENT
_buffer$ = -16388					; size = 16384
__$ArrayPad$ = -4					; size = 4
_fd$ = 8						; size = 4
_x$ = 12						; size = 4
_y$ = 16						; size = 4
_haveitemindex$ = 20					; size = 4
_toindex$ = 24						; size = 4
?lssproto_ID_send@@YAXHHHHH@Z PROC			; lssproto_ID_send, COMDAT

; 1491 : {

  00000	55		 push	 ebp
  00001	8b ec		 mov	 ebp, esp
  00003	b8 04 40 00 00	 mov	 eax, 16388		; 00004004H
  00008	e8 00 00 00 00	 call	 __chkstk
  0000d	a1 00 00 00 00	 mov	 eax, DWORD PTR ___security_cookie
  00012	33 c5		 xor	 eax, ebp
  00014	89 45 fc	 mov	 DWORD PTR __$ArrayPad$[ebp], eax
  00017	56		 push	 esi

; 1492 : 	char buffer[16384];
; 1493 : 	int iChecksum=0;
; 1494 : 
; 1495 : 	buffer[0] = '\0';
; 1496 : 	iChecksum += util_mkint(buffer, x);

  00018	ff 75 0c	 push	 DWORD PTR _x$[ebp]
  0001b	8d 85 fc bf ff
	ff		 lea	 eax, DWORD PTR _buffer$[ebp]
  00021	c6 85 fc bf ff
	ff 00		 mov	 BYTE PTR _buffer$[ebp], 0
  00028	50		 push	 eax
  00029	e8 00 00 00 00	 call	 ?util_mkint@@YAHPADH@Z	; util_mkint

; 1497 : 	iChecksum += util_mkint(buffer, y);

  0002e	ff 75 10	 push	 DWORD PTR _y$[ebp]
  00031	8b f0		 mov	 esi, eax
  00033	8d 85 fc bf ff
	ff		 lea	 eax, DWORD PTR _buffer$[ebp]
  00039	50		 push	 eax
  0003a	e8 00 00 00 00	 call	 ?util_mkint@@YAHPADH@Z	; util_mkint
  0003f	83 c4 10	 add	 esp, 16			; 00000010H
  00042	03 f0		 add	 esi, eax

; 1498 : 	if (g_ÊúçÂä°Âô® == SERVER_Âè∞Êúç)

  00044	83 3d 00 00 00
	00 01		 cmp	 DWORD PTR ?g_‹◊?–Ô@@3HA, 1 ; g_‹◊?–Ô
  0004b	75 16		 jne	 SHORT $LN2@lssproto_I

; 1499 : 	{
; 1500 : 		iChecksum += util_mkint(buffer, intÂè∞ÊúçÂèëÂåÖ);

  0004d	8d 85 fc bf ff
	ff		 lea	 eax, DWORD PTR _buffer$[ebp]
  00053	68 21 ac 12 00	 push	 1223713			; 0012ac21H
  00058	50		 push	 eax
  00059	e8 00 00 00 00	 call	 ?util_mkint@@YAHPADH@Z	; util_mkint
  0005e	83 c4 08	 add	 esp, 8
  00061	03 f0		 add	 esi, eax
$LN2@lssproto_I:

; 1501 : 	}
; 1502 : 	iChecksum += util_mkint(buffer, haveitemindex);

  00063	ff 75 14	 push	 DWORD PTR _haveitemindex$[ebp]
  00066	8d 85 fc bf ff
	ff		 lea	 eax, DWORD PTR _buffer$[ebp]
  0006c	50		 push	 eax
  0006d	e8 00 00 00 00	 call	 ?util_mkint@@YAHPADH@Z	; util_mkint

; 1503 : 	iChecksum += util_mkint(buffer, toindex);

  00072	ff 75 18	 push	 DWORD PTR _toindex$[ebp]
  00075	03 f0		 add	 esi, eax
  00077	8d 85 fc bf ff
	ff		 lea	 eax, DWORD PTR _buffer$[ebp]
  0007d	50		 push	 eax
  0007e	e8 00 00 00 00	 call	 ?util_mkint@@YAHPADH@Z	; util_mkint
  00083	03 f0		 add	 esi, eax

; 1504 : 	util_mkint(buffer, iChecksum);

  00085	8d 85 fc bf ff
	ff		 lea	 eax, DWORD PTR _buffer$[ebp]
  0008b	56		 push	 esi
  0008c	50		 push	 eax
  0008d	e8 00 00 00 00	 call	 ?util_mkint@@YAHPADH@Z	; util_mkint

; 1505 : 	util_SendMesg(fd, LSSPROTO_ID_SEND, buffer); //0x11 17

  00092	8d 85 fc bf ff
	ff		 lea	 eax, DWORD PTR _buffer$[ebp]
  00098	50		 push	 eax
  00099	6a 11		 push	 17			; 00000011H
  0009b	ff 75 08	 push	 DWORD PTR _fd$[ebp]
  0009e	e8 00 00 00 00	 call	 ?util_SendMesg@@YAXHHPAD@Z ; util_SendMesg

; 1506 : }

  000a3	8b 4d fc	 mov	 ecx, DWORD PTR __$ArrayPad$[ebp]
  000a6	83 c4 24	 add	 esp, 36			; 00000024H
  000a9	33 cd		 xor	 ecx, ebp
  000ab	5e		 pop	 esi
  000ac	e8 00 00 00 00	 call	 @__security_check_cookie@4
  000b1	8b e5		 mov	 esp, ebp
  000b3	5d		 pop	 ebp
  000b4	c3		 ret	 0
?lssproto_ID_send@@YAXHHHHH@Z ENDP			; lssproto_ID_send
_TEXT	ENDS
; Function compile flags: /Ogtp
; File C:\Users\gg862\OneDrive\πŸ≈¡ »≠∏È\∏æƒÌøœ∑·\Client Source Code1.31¿œ∫ª\NewProto\protocol.cpp
;	COMDAT ?lssproto_SKD_send@@YAXHHH@Z
_TEXT	SEGMENT
_buffer$ = -16388					; size = 16384
__$ArrayPad$ = -4					; size = 4
_fd$ = 8						; size = 4
_dir$ = 12						; size = 4
_index$ = 16						; size = 4
?lssproto_SKD_send@@YAXHHH@Z PROC			; lssproto_SKD_send, COMDAT

; 1473 : {

  00000	55		 push	 ebp
  00001	8b ec		 mov	 ebp, esp
  00003	b8 04 40 00 00	 mov	 eax, 16388		; 00004004H
  00008	e8 00 00 00 00	 call	 __chkstk
  0000d	a1 00 00 00 00	 mov	 eax, DWORD PTR ___security_cookie
  00012	33 c5		 xor	 eax, ebp
  00014	89 45 fc	 mov	 DWORD PTR __$ArrayPad$[ebp], eax
  00017	56		 push	 esi

; 1474 : 	char buffer[16384];
; 1475 : 	int iChecksum=0;
; 1476 : 
; 1477 : 	buffer[0] = '\0';
; 1478 : 	iChecksum += util_mkint(buffer, dir);

  00018	ff 75 0c	 push	 DWORD PTR _dir$[ebp]
  0001b	8d 85 fc bf ff
	ff		 lea	 eax, DWORD PTR _buffer$[ebp]
  00021	c6 85 fc bf ff
	ff 00		 mov	 BYTE PTR _buffer$[ebp], 0
  00028	50		 push	 eax
  00029	e8 00 00 00 00	 call	 ?util_mkint@@YAHPADH@Z	; util_mkint
  0002e	83 c4 08	 add	 esp, 8
  00031	8b f0		 mov	 esi, eax

; 1479 : 
; 1480 : 	if (g_ÊúçÂä°Âô® == SERVER_Âè∞Êúç)

  00033	83 3d 00 00 00
	00 01		 cmp	 DWORD PTR ?g_‹◊?–Ô@@3HA, 1 ; g_‹◊?–Ô
  0003a	75 16		 jne	 SHORT $LN2@lssproto_S

; 1481 : 	{
; 1482 : 		iChecksum += util_mkint(buffer, intÂè∞ÊúçÂèëÂåÖ);

  0003c	8d 85 fc bf ff
	ff		 lea	 eax, DWORD PTR _buffer$[ebp]
  00042	68 21 ac 12 00	 push	 1223713			; 0012ac21H
  00047	50		 push	 eax
  00048	e8 00 00 00 00	 call	 ?util_mkint@@YAHPADH@Z	; util_mkint
  0004d	83 c4 08	 add	 esp, 8
  00050	03 f0		 add	 esi, eax
$LN2@lssproto_S:

; 1483 : 	}
; 1484 : 
; 1485 : 	iChecksum += util_mkint(buffer, index);

  00052	ff 75 10	 push	 DWORD PTR _index$[ebp]
  00055	8d 85 fc bf ff
	ff		 lea	 eax, DWORD PTR _buffer$[ebp]
  0005b	50		 push	 eax
  0005c	e8 00 00 00 00	 call	 ?util_mkint@@YAHPADH@Z	; util_mkint
  00061	03 f0		 add	 esi, eax

; 1486 : 	util_mkint(buffer, iChecksum);

  00063	8d 85 fc bf ff
	ff		 lea	 eax, DWORD PTR _buffer$[ebp]
  00069	56		 push	 esi
  0006a	50		 push	 eax
  0006b	e8 00 00 00 00	 call	 ?util_mkint@@YAHPADH@Z	; util_mkint

; 1487 : 	util_SendMesg(fd, LSSPROTO_SKD_SEND, buffer);  //0x10  16

  00070	8d 85 fc bf ff
	ff		 lea	 eax, DWORD PTR _buffer$[ebp]
  00076	50		 push	 eax
  00077	6a 10		 push	 16			; 00000010H
  00079	ff 75 08	 push	 DWORD PTR _fd$[ebp]
  0007c	e8 00 00 00 00	 call	 ?util_SendMesg@@YAXHHPAD@Z ; util_SendMesg

; 1488 : }

  00081	8b 4d fc	 mov	 ecx, DWORD PTR __$ArrayPad$[ebp]
  00084	83 c4 1c	 add	 esp, 28			; 0000001cH
  00087	33 cd		 xor	 ecx, ebp
  00089	5e		 pop	 esi
  0008a	e8 00 00 00 00	 call	 @__security_check_cookie@4
  0008f	8b e5		 mov	 esp, ebp
  00091	5d		 pop	 ebp
  00092	c3		 ret	 0
?lssproto_SKD_send@@YAXHHH@Z ENDP			; lssproto_SKD_send
_TEXT	ENDS
; Function compile flags: /Ogtp
; File C:\Users\gg862\OneDrive\πŸ≈¡ »≠∏È\∏æƒÌøœ∑·\Client Source Code1.31¿œ∫ª\NewProto\protocol.cpp
;	COMDAT ?lssproto_B_send@@YAXHPAD@Z
_TEXT	SEGMENT
_buffer$ = -16388					; size = 16384
__$ArrayPad$ = -4					; size = 4
_fd$ = 8						; size = 4
_command$ = 12						; size = 4
?lssproto_B_send@@YAXHPAD@Z PROC			; lssproto_B_send, COMDAT

; 1456 : {

  00000	55		 push	 ebp
  00001	8b ec		 mov	 ebp, esp
  00003	b8 04 40 00 00	 mov	 eax, 16388		; 00004004H
  00008	e8 00 00 00 00	 call	 __chkstk
  0000d	a1 00 00 00 00	 mov	 eax, DWORD PTR ___security_cookie
  00012	33 c5		 xor	 eax, ebp
  00014	89 45 fc	 mov	 DWORD PTR __$ArrayPad$[ebp], eax
  00017	8b 45 0c	 mov	 eax, DWORD PTR _command$[ebp]
  0001a	56		 push	 esi

; 1457 : 	char buffer[16384];
; 1458 : 	int iChecksum=0;
; 1459 : 
; 1460 : 	LogToSenddata( command );
; 1461 : 
; 1462 : 	buffer[0] = '\0';
; 1463 : 	iChecksum += util_mkstring(buffer, command);

  0001b	50		 push	 eax
  0001c	8d 85 fc bf ff
	ff		 lea	 eax, DWORD PTR _buffer$[ebp]
  00022	c6 85 fc bf ff
	ff 00		 mov	 BYTE PTR _buffer$[ebp], 0
  00029	50		 push	 eax
  0002a	e8 00 00 00 00	 call	 ?util_mkstring@@YAHPAD0@Z ; util_mkstring
  0002f	83 c4 08	 add	 esp, 8
  00032	8b f0		 mov	 esi, eax

; 1464 : 	if (g_ÊúçÂä°Âô® == SERVER_Âè∞Êúç)

  00034	83 3d 00 00 00
	00 01		 cmp	 DWORD PTR ?g_‹◊?–Ô@@3HA, 1 ; g_‹◊?–Ô
  0003b	75 16		 jne	 SHORT $LN2@lssproto_B

; 1465 : 	{
; 1466 : 		iChecksum += util_mkint(buffer, intÂè∞ÊúçÂèëÂåÖ);

  0003d	8d 85 fc bf ff
	ff		 lea	 eax, DWORD PTR _buffer$[ebp]
  00043	68 21 ac 12 00	 push	 1223713			; 0012ac21H
  00048	50		 push	 eax
  00049	e8 00 00 00 00	 call	 ?util_mkint@@YAHPADH@Z	; util_mkint
  0004e	83 c4 08	 add	 esp, 8
  00051	03 f0		 add	 esi, eax
$LN2@lssproto_B:

; 1467 : 	}
; 1468 : 	util_mkint(buffer, iChecksum);

  00053	8d 85 fc bf ff
	ff		 lea	 eax, DWORD PTR _buffer$[ebp]
  00059	56		 push	 esi
  0005a	50		 push	 eax
  0005b	e8 00 00 00 00	 call	 ?util_mkint@@YAHPADH@Z	; util_mkint

; 1469 : 	util_SendMesg(fd, LSSPROTO_B_SEND, buffer);  //E 14

  00060	8d 85 fc bf ff
	ff		 lea	 eax, DWORD PTR _buffer$[ebp]
  00066	50		 push	 eax
  00067	6a 0e		 push	 14			; 0000000eH
  00069	ff 75 08	 push	 DWORD PTR _fd$[ebp]
  0006c	e8 00 00 00 00	 call	 ?util_SendMesg@@YAXHHPAD@Z ; util_SendMesg

; 1470 : }

  00071	8b 4d fc	 mov	 ecx, DWORD PTR __$ArrayPad$[ebp]
  00074	83 c4 14	 add	 esp, 20			; 00000014H
  00077	33 cd		 xor	 ecx, ebp
  00079	5e		 pop	 esi
  0007a	e8 00 00 00 00	 call	 @__security_check_cookie@4
  0007f	8b e5		 mov	 esp, ebp
  00081	5d		 pop	 ebp
  00082	c3		 ret	 0
?lssproto_B_send@@YAXHPAD@Z ENDP			; lssproto_B_send
_TEXT	ENDS
; Function compile flags: /Ogtp
; File C:\Users\gg862\OneDrive\πŸ≈¡ »≠∏È\∏æƒÌøœ∑·\Client Source Code1.31¿œ∫ª\NewProto\protocol.cpp
;	COMDAT ?lssproto_LB_send@@YAXHHH@Z
_TEXT	SEGMENT
_buffer$ = -16388					; size = 16384
__$ArrayPad$ = -4					; size = 4
_fd$ = 8						; size = 4
_x$ = 12						; size = 4
_y$ = 16						; size = 4
?lssproto_LB_send@@YAXHHH@Z PROC			; lssproto_LB_send, COMDAT

; 1438 : {

  00000	55		 push	 ebp
  00001	8b ec		 mov	 ebp, esp
  00003	b8 04 40 00 00	 mov	 eax, 16388		; 00004004H
  00008	e8 00 00 00 00	 call	 __chkstk
  0000d	a1 00 00 00 00	 mov	 eax, DWORD PTR ___security_cookie
  00012	33 c5		 xor	 eax, ebp
  00014	89 45 fc	 mov	 DWORD PTR __$ArrayPad$[ebp], eax
  00017	56		 push	 esi

; 1439 : 	char buffer[16384];
; 1440 : 	int iChecksum=0;
; 1441 : 
; 1442 : 	buffer[0] = '\0';
; 1443 : 	iChecksum += util_mkint(buffer, x);

  00018	ff 75 0c	 push	 DWORD PTR _x$[ebp]
  0001b	8d 85 fc bf ff
	ff		 lea	 eax, DWORD PTR _buffer$[ebp]
  00021	c6 85 fc bf ff
	ff 00		 mov	 BYTE PTR _buffer$[ebp], 0
  00028	50		 push	 eax
  00029	e8 00 00 00 00	 call	 ?util_mkint@@YAHPADH@Z	; util_mkint
  0002e	83 c4 08	 add	 esp, 8
  00031	8b f0		 mov	 esi, eax

; 1444 : 
; 1445 : 	if (g_ÊúçÂä°Âô® == SERVER_Âè∞Êúç)

  00033	83 3d 00 00 00
	00 01		 cmp	 DWORD PTR ?g_‹◊?–Ô@@3HA, 1 ; g_‹◊?–Ô
  0003a	75 16		 jne	 SHORT $LN2@lssproto_L

; 1446 : 	{
; 1447 : 		iChecksum += util_mkint(buffer, intÂè∞ÊúçÂèëÂåÖ);

  0003c	8d 85 fc bf ff
	ff		 lea	 eax, DWORD PTR _buffer$[ebp]
  00042	68 21 ac 12 00	 push	 1223713			; 0012ac21H
  00047	50		 push	 eax
  00048	e8 00 00 00 00	 call	 ?util_mkint@@YAHPADH@Z	; util_mkint
  0004d	83 c4 08	 add	 esp, 8
  00050	03 f0		 add	 esi, eax
$LN2@lssproto_L:

; 1448 : 	}
; 1449 : 
; 1450 : 	iChecksum += util_mkint(buffer, y);

  00052	ff 75 10	 push	 DWORD PTR _y$[ebp]
  00055	8d 85 fc bf ff
	ff		 lea	 eax, DWORD PTR _buffer$[ebp]
  0005b	50		 push	 eax
  0005c	e8 00 00 00 00	 call	 ?util_mkint@@YAHPADH@Z	; util_mkint
  00061	03 f0		 add	 esi, eax

; 1451 : 	util_mkint(buffer, iChecksum);

  00063	8d 85 fc bf ff
	ff		 lea	 eax, DWORD PTR _buffer$[ebp]
  00069	56		 push	 esi
  0006a	50		 push	 eax
  0006b	e8 00 00 00 00	 call	 ?util_mkint@@YAHPADH@Z	; util_mkint

; 1452 : 	util_SendMesg(fd, LSSPROTO_LB_SEND, buffer);  //0xB 11

  00070	8d 85 fc bf ff
	ff		 lea	 eax, DWORD PTR _buffer$[ebp]
  00076	50		 push	 eax
  00077	6a 0b		 push	 11			; 0000000bH
  00079	ff 75 08	 push	 DWORD PTR _fd$[ebp]
  0007c	e8 00 00 00 00	 call	 ?util_SendMesg@@YAXHHPAD@Z ; util_SendMesg

; 1453 : }

  00081	8b 4d fc	 mov	 ecx, DWORD PTR __$ArrayPad$[ebp]
  00084	83 c4 1c	 add	 esp, 28			; 0000001cH
  00087	33 cd		 xor	 ecx, ebp
  00089	5e		 pop	 esi
  0008a	e8 00 00 00 00	 call	 @__security_check_cookie@4
  0008f	8b e5		 mov	 esp, ebp
  00091	5d		 pop	 ebp
  00092	c3		 ret	 0
?lssproto_LB_send@@YAXHHH@Z ENDP			; lssproto_LB_send
_TEXT	ENDS
; Function compile flags: /Ogtp
; File C:\Users\gg862\OneDrive\πŸ≈¡ »≠∏È\∏æƒÌøœ∑·\Client Source Code1.31¿œ∫ª\NewProto\protocol.cpp
;	COMDAT ?lssproto_JB_send@@YAXHHH@Z
_TEXT	SEGMENT
_buffer$ = -16388					; size = 16384
__$ArrayPad$ = -4					; size = 4
_fd$ = 8						; size = 4
_x$ = 12						; size = 4
_y$ = 16						; size = 4
?lssproto_JB_send@@YAXHHH@Z PROC			; lssproto_JB_send, COMDAT

; 1420 : {

  00000	55		 push	 ebp
  00001	8b ec		 mov	 ebp, esp
  00003	b8 04 40 00 00	 mov	 eax, 16388		; 00004004H
  00008	e8 00 00 00 00	 call	 __chkstk
  0000d	a1 00 00 00 00	 mov	 eax, DWORD PTR ___security_cookie
  00012	33 c5		 xor	 eax, ebp
  00014	89 45 fc	 mov	 DWORD PTR __$ArrayPad$[ebp], eax
  00017	56		 push	 esi

; 1421 : 	char buffer[16384];
; 1422 : 	int iChecksum=0;

  00018	33 f6		 xor	 esi, esi

; 1423 : 
; 1424 : 	buffer[0] = '\0';

  0001a	c6 85 fc bf ff
	ff 00		 mov	 BYTE PTR _buffer$[ebp], 0

; 1425 : 
; 1426 : 	if (g_ÊúçÂä°Âô® == SERVER_Âè∞Êúç)

  00021	83 3d 00 00 00
	00 01		 cmp	 DWORD PTR ?g_‹◊?–Ô@@3HA, 1 ; g_‹◊?–Ô
  00028	75 16		 jne	 SHORT $LN2@lssproto_J

; 1427 : 	{
; 1428 : 		iChecksum += util_mkint(buffer, intÂè∞ÊúçÂèëÂåÖ);

  0002a	8d 85 fc bf ff
	ff		 lea	 eax, DWORD PTR _buffer$[ebp]
  00030	68 21 ac 12 00	 push	 1223713			; 0012ac21H
  00035	50		 push	 eax
  00036	e8 00 00 00 00	 call	 ?util_mkint@@YAHPADH@Z	; util_mkint
  0003b	83 c4 08	 add	 esp, 8
  0003e	8b f0		 mov	 esi, eax
$LN2@lssproto_J:

; 1429 : 	}
; 1430 : 
; 1431 : 	iChecksum += util_mkint(buffer, x);

  00040	ff 75 0c	 push	 DWORD PTR _x$[ebp]
  00043	8d 85 fc bf ff
	ff		 lea	 eax, DWORD PTR _buffer$[ebp]
  00049	50		 push	 eax
  0004a	e8 00 00 00 00	 call	 ?util_mkint@@YAHPADH@Z	; util_mkint

; 1432 : 	iChecksum += util_mkint(buffer, y);

  0004f	ff 75 10	 push	 DWORD PTR _y$[ebp]
  00052	03 f0		 add	 esi, eax
  00054	8d 85 fc bf ff
	ff		 lea	 eax, DWORD PTR _buffer$[ebp]
  0005a	50		 push	 eax
  0005b	e8 00 00 00 00	 call	 ?util_mkint@@YAHPADH@Z	; util_mkint
  00060	03 f0		 add	 esi, eax

; 1433 : 	util_mkint(buffer, iChecksum);

  00062	8d 85 fc bf ff
	ff		 lea	 eax, DWORD PTR _buffer$[ebp]
  00068	56		 push	 esi
  00069	50		 push	 eax
  0006a	e8 00 00 00 00	 call	 ?util_mkint@@YAHPADH@Z	; util_mkint

; 1434 : 	util_SendMesg(fd, LSSPROTO_JB_SEND, buffer); //0xA  10

  0006f	8d 85 fc bf ff
	ff		 lea	 eax, DWORD PTR _buffer$[ebp]
  00075	50		 push	 eax
  00076	6a 0a		 push	 10			; 0000000aH
  00078	ff 75 08	 push	 DWORD PTR _fd$[ebp]
  0007b	e8 00 00 00 00	 call	 ?util_SendMesg@@YAXHHPAD@Z ; util_SendMesg

; 1435 : }

  00080	8b 4d fc	 mov	 ecx, DWORD PTR __$ArrayPad$[ebp]
  00083	83 c4 24	 add	 esp, 36			; 00000024H
  00086	33 cd		 xor	 ecx, ebp
  00088	5e		 pop	 esi
  00089	e8 00 00 00 00	 call	 @__security_check_cookie@4
  0008e	8b e5		 mov	 esp, ebp
  00090	5d		 pop	 ebp
  00091	c3		 ret	 0
?lssproto_JB_send@@YAXHHH@Z ENDP			; lssproto_JB_send
_TEXT	ENDS
; Function compile flags: /Ogtp
; File C:\Users\gg862\OneDrive\πŸ≈¡ »≠∏È\∏æƒÌøœ∑·\Client Source Code1.31¿œ∫ª\NewProto\protocol.cpp
;	COMDAT ?lssproto_BU_send@@YAXHH@Z
_TEXT	SEGMENT
_buffer$ = -16388					; size = 16384
__$ArrayPad$ = -4					; size = 4
_fd$ = 8						; size = 4
_dummy$ = 12						; size = 4
?lssproto_BU_send@@YAXHH@Z PROC				; lssproto_BU_send, COMDAT

; 1405 : {

  00000	55		 push	 ebp
  00001	8b ec		 mov	 ebp, esp
  00003	b8 04 40 00 00	 mov	 eax, 16388		; 00004004H
  00008	e8 00 00 00 00	 call	 __chkstk
  0000d	a1 00 00 00 00	 mov	 eax, DWORD PTR ___security_cookie
  00012	33 c5		 xor	 eax, ebp
  00014	89 45 fc	 mov	 DWORD PTR __$ArrayPad$[ebp], eax
  00017	56		 push	 esi

; 1406 : 	char buffer[16384];
; 1407 : 	int iChecksum=0;
; 1408 : 
; 1409 : 	buffer[0] = '\0';
; 1410 : 	iChecksum += util_mkint(buffer, dummy);

  00018	ff 75 0c	 push	 DWORD PTR _dummy$[ebp]
  0001b	8d 85 fc bf ff
	ff		 lea	 eax, DWORD PTR _buffer$[ebp]
  00021	c6 85 fc bf ff
	ff 00		 mov	 BYTE PTR _buffer$[ebp], 0
  00028	50		 push	 eax
  00029	e8 00 00 00 00	 call	 ?util_mkint@@YAHPADH@Z	; util_mkint
  0002e	83 c4 08	 add	 esp, 8
  00031	8b f0		 mov	 esi, eax

; 1411 : 	if (g_ÊúçÂä°Âô® == SERVER_Âè∞Êúç)

  00033	83 3d 00 00 00
	00 01		 cmp	 DWORD PTR ?g_‹◊?–Ô@@3HA, 1 ; g_‹◊?–Ô
  0003a	75 16		 jne	 SHORT $LN2@lssproto_B

; 1412 : 	{
; 1413 : 		iChecksum += util_mkint(buffer, intÂè∞ÊúçÂèëÂåÖ);

  0003c	8d 85 fc bf ff
	ff		 lea	 eax, DWORD PTR _buffer$[ebp]
  00042	68 21 ac 12 00	 push	 1223713			; 0012ac21H
  00047	50		 push	 eax
  00048	e8 00 00 00 00	 call	 ?util_mkint@@YAHPADH@Z	; util_mkint
  0004d	83 c4 08	 add	 esp, 8
  00050	03 f0		 add	 esi, eax
$LN2@lssproto_B:

; 1414 : 	}
; 1415 : 	util_mkint(buffer, iChecksum);

  00052	8d 85 fc bf ff
	ff		 lea	 eax, DWORD PTR _buffer$[ebp]
  00058	56		 push	 esi
  00059	50		 push	 eax
  0005a	e8 00 00 00 00	 call	 ?util_mkint@@YAHPADH@Z	; util_mkint

; 1416 : 	util_SendMesg(fd, LSSPROTO_BU_SEND, buffer); //9

  0005f	8d 85 fc bf ff
	ff		 lea	 eax, DWORD PTR _buffer$[ebp]
  00065	50		 push	 eax
  00066	6a 09		 push	 9
  00068	ff 75 08	 push	 DWORD PTR _fd$[ebp]
  0006b	e8 00 00 00 00	 call	 ?util_SendMesg@@YAXHHPAD@Z ; util_SendMesg

; 1417 : }

  00070	8b 4d fc	 mov	 ecx, DWORD PTR __$ArrayPad$[ebp]
  00073	83 c4 14	 add	 esp, 20			; 00000014H
  00076	33 cd		 xor	 ecx, ebp
  00078	5e		 pop	 esi
  00079	e8 00 00 00 00	 call	 @__security_check_cookie@4
  0007e	8b e5		 mov	 esp, ebp
  00080	5d		 pop	 ebp
  00081	c3		 ret	 0
?lssproto_BU_send@@YAXHH@Z ENDP				; lssproto_BU_send
_TEXT	ENDS
; Function compile flags: /Ogtp
; File C:\Users\gg862\OneDrive\πŸ≈¡ »≠∏È\∏æƒÌøœ∑·\Client Source Code1.31¿œ∫ª\NewProto\protocol.cpp
;	COMDAT ?lssproto_EO_send@@YAXHH@Z
_TEXT	SEGMENT
_buffer$ = -16388					; size = 16384
__$ArrayPad$ = -4					; size = 4
_fd$ = 8						; size = 4
_dummy$ = 12						; size = 4
?lssproto_EO_send@@YAXHH@Z PROC				; lssproto_EO_send, COMDAT

; 1388 : {

  00000	55		 push	 ebp
  00001	8b ec		 mov	 ebp, esp
  00003	b8 04 40 00 00	 mov	 eax, 16388		; 00004004H
  00008	e8 00 00 00 00	 call	 __chkstk
  0000d	a1 00 00 00 00	 mov	 eax, DWORD PTR ___security_cookie
  00012	33 c5		 xor	 eax, ebp
  00014	89 45 fc	 mov	 DWORD PTR __$ArrayPad$[ebp], eax
  00017	56		 push	 esi

; 1389 : 	char buffer[16384];
; 1390 : 	int iChecksum=0;
; 1391 : 
; 1392 : 	buffer[0] = '\0';
; 1393 : 	iChecksum += util_mkint(buffer, dummy);

  00018	ff 75 0c	 push	 DWORD PTR _dummy$[ebp]
  0001b	8d 85 fc bf ff
	ff		 lea	 eax, DWORD PTR _buffer$[ebp]
  00021	c6 85 fc bf ff
	ff 00		 mov	 BYTE PTR _buffer$[ebp], 0
  00028	50		 push	 eax
  00029	e8 00 00 00 00	 call	 ?util_mkint@@YAHPADH@Z	; util_mkint
  0002e	83 c4 08	 add	 esp, 8
  00031	8b f0		 mov	 esi, eax

; 1394 : 
; 1395 : 	if (g_ÊúçÂä°Âô® == SERVER_Âè∞Êúç)

  00033	83 3d 00 00 00
	00 01		 cmp	 DWORD PTR ?g_‹◊?–Ô@@3HA, 1 ; g_‹◊?–Ô
  0003a	75 16		 jne	 SHORT $LN2@lssproto_E

; 1396 : 	{
; 1397 : 		iChecksum += util_mkint(buffer, intÂè∞ÊúçÂèëÂåÖ);

  0003c	8d 85 fc bf ff
	ff		 lea	 eax, DWORD PTR _buffer$[ebp]
  00042	68 21 ac 12 00	 push	 1223713			; 0012ac21H
  00047	50		 push	 eax
  00048	e8 00 00 00 00	 call	 ?util_mkint@@YAHPADH@Z	; util_mkint
  0004d	83 c4 08	 add	 esp, 8
  00050	03 f0		 add	 esi, eax
$LN2@lssproto_E:

; 1398 : 	}
; 1399 : 
; 1400 : 	util_mkint(buffer, iChecksum);

  00052	8d 85 fc bf ff
	ff		 lea	 eax, DWORD PTR _buffer$[ebp]
  00058	56		 push	 esi
  00059	50		 push	 eax
  0005a	e8 00 00 00 00	 call	 ?util_mkint@@YAHPADH@Z	; util_mkint

; 1401 : 	util_SendMesg(fd, LSSPROTO_EO_SEND, buffer); //8

  0005f	8d 85 fc bf ff
	ff		 lea	 eax, DWORD PTR _buffer$[ebp]
  00065	50		 push	 eax
  00066	6a 08		 push	 8
  00068	ff 75 08	 push	 DWORD PTR _fd$[ebp]
  0006b	e8 00 00 00 00	 call	 ?util_SendMesg@@YAXHHPAD@Z ; util_SendMesg

; 1402 : }

  00070	8b 4d fc	 mov	 ecx, DWORD PTR __$ArrayPad$[ebp]
  00073	83 c4 14	 add	 esp, 20			; 00000014H
  00076	33 cd		 xor	 ecx, ebp
  00078	5e		 pop	 esi
  00079	e8 00 00 00 00	 call	 @__security_check_cookie@4
  0007e	8b e5		 mov	 esp, ebp
  00080	5d		 pop	 ebp
  00081	c3		 ret	 0
?lssproto_EO_send@@YAXHH@Z ENDP				; lssproto_EO_send
_TEXT	ENDS
; Function compile flags: /Ogtp
; File C:\Users\gg862\OneDrive\πŸ≈¡ »≠∏È\∏æƒÌøœ∑·\Client Source Code1.31¿œ∫ª\NewProto\protocol.cpp
;	COMDAT ?lssproto_DU_send@@YAXHHH@Z
_TEXT	SEGMENT
_buffer$ = -16388					; size = 16384
__$ArrayPad$ = -4					; size = 4
_fd$ = 8						; size = 4
_x$ = 12						; size = 4
_y$ = 16						; size = 4
?lssproto_DU_send@@YAXHHH@Z PROC			; lssproto_DU_send, COMDAT

; 1370 : {

  00000	55		 push	 ebp
  00001	8b ec		 mov	 ebp, esp
  00003	b8 04 40 00 00	 mov	 eax, 16388		; 00004004H
  00008	e8 00 00 00 00	 call	 __chkstk
  0000d	a1 00 00 00 00	 mov	 eax, DWORD PTR ___security_cookie
  00012	33 c5		 xor	 eax, ebp
  00014	89 45 fc	 mov	 DWORD PTR __$ArrayPad$[ebp], eax
  00017	56		 push	 esi

; 1371 : 	char buffer[16384];
; 1372 : 	int iChecksum=0;

  00018	33 f6		 xor	 esi, esi

; 1373 : 
; 1374 : 	buffer[0] = '\0';

  0001a	c6 85 fc bf ff
	ff 00		 mov	 BYTE PTR _buffer$[ebp], 0

; 1375 : 
; 1376 : 	if (g_ÊúçÂä°Âô® == SERVER_Âè∞Êúç)

  00021	83 3d 00 00 00
	00 01		 cmp	 DWORD PTR ?g_‹◊?–Ô@@3HA, 1 ; g_‹◊?–Ô
  00028	75 16		 jne	 SHORT $LN2@lssproto_D

; 1377 : 	{
; 1378 : 		iChecksum += util_mkint(buffer, intÂè∞ÊúçÂèëÂåÖ);

  0002a	8d 85 fc bf ff
	ff		 lea	 eax, DWORD PTR _buffer$[ebp]
  00030	68 21 ac 12 00	 push	 1223713			; 0012ac21H
  00035	50		 push	 eax
  00036	e8 00 00 00 00	 call	 ?util_mkint@@YAHPADH@Z	; util_mkint
  0003b	83 c4 08	 add	 esp, 8
  0003e	8b f0		 mov	 esi, eax
$LN2@lssproto_D:

; 1379 : 	}
; 1380 : 
; 1381 : 	iChecksum += util_mkint(buffer, x);

  00040	ff 75 0c	 push	 DWORD PTR _x$[ebp]
  00043	8d 85 fc bf ff
	ff		 lea	 eax, DWORD PTR _buffer$[ebp]
  00049	50		 push	 eax
  0004a	e8 00 00 00 00	 call	 ?util_mkint@@YAHPADH@Z	; util_mkint

; 1382 : 	iChecksum += util_mkint(buffer, y);

  0004f	ff 75 10	 push	 DWORD PTR _y$[ebp]
  00052	03 f0		 add	 esi, eax
  00054	8d 85 fc bf ff
	ff		 lea	 eax, DWORD PTR _buffer$[ebp]
  0005a	50		 push	 eax
  0005b	e8 00 00 00 00	 call	 ?util_mkint@@YAHPADH@Z	; util_mkint
  00060	03 f0		 add	 esi, eax

; 1383 : 	util_mkint(buffer, iChecksum);

  00062	8d 85 fc bf ff
	ff		 lea	 eax, DWORD PTR _buffer$[ebp]
  00068	56		 push	 esi
  00069	50		 push	 eax
  0006a	e8 00 00 00 00	 call	 ?util_mkint@@YAHPADH@Z	; util_mkint

; 1384 : 	util_SendMesg(fd, LSSPROTO_DU_SEND, buffer); //6

  0006f	8d 85 fc bf ff
	ff		 lea	 eax, DWORD PTR _buffer$[ebp]
  00075	50		 push	 eax
  00076	6a 06		 push	 6
  00078	ff 75 08	 push	 DWORD PTR _fd$[ebp]
  0007b	e8 00 00 00 00	 call	 ?util_SendMesg@@YAXHHPAD@Z ; util_SendMesg

; 1385 : }

  00080	8b 4d fc	 mov	 ecx, DWORD PTR __$ArrayPad$[ebp]
  00083	83 c4 24	 add	 esp, 36			; 00000024H
  00086	33 cd		 xor	 ecx, ebp
  00088	5e		 pop	 esi
  00089	e8 00 00 00 00	 call	 @__security_check_cookie@4
  0008e	8b e5		 mov	 esp, ebp
  00090	5d		 pop	 ebp
  00091	c3		 ret	 0
?lssproto_DU_send@@YAXHHH@Z ENDP			; lssproto_DU_send
_TEXT	ENDS
; Function compile flags: /Ogtp
; File C:\Users\gg862\OneDrive\πŸ≈¡ »≠∏È\∏æƒÌøœ∑·\Client Source Code1.31¿œ∫ª\NewProto\protocol.cpp
;	COMDAT ?lssproto_EN_send@@YAXHHH@Z
_TEXT	SEGMENT
_buffer$ = -16388					; size = 16384
__$ArrayPad$ = -4					; size = 4
_fd$ = 8						; size = 4
_x$ = 12						; size = 4
_y$ = 16						; size = 4
?lssproto_EN_send@@YAXHHH@Z PROC			; lssproto_EN_send, COMDAT

; 1358 : {

  00000	55		 push	 ebp
  00001	8b ec		 mov	 ebp, esp
  00003	b8 04 40 00 00	 mov	 eax, 16388		; 00004004H
  00008	e8 00 00 00 00	 call	 __chkstk
  0000d	a1 00 00 00 00	 mov	 eax, DWORD PTR ___security_cookie
  00012	33 c5		 xor	 eax, ebp
  00014	89 45 fc	 mov	 DWORD PTR __$ArrayPad$[ebp], eax
  00017	56		 push	 esi

; 1359 : 	char buffer[16384];
; 1360 : 	int iChecksum=0;
; 1361 : 
; 1362 : 	buffer[0] = '\0';
; 1363 : 	iChecksum += util_mkint(buffer, x);

  00018	ff 75 0c	 push	 DWORD PTR _x$[ebp]
  0001b	8d 85 fc bf ff
	ff		 lea	 eax, DWORD PTR _buffer$[ebp]
  00021	c6 85 fc bf ff
	ff 00		 mov	 BYTE PTR _buffer$[ebp], 0
  00028	50		 push	 eax
  00029	e8 00 00 00 00	 call	 ?util_mkint@@YAHPADH@Z	; util_mkint

; 1364 : 	iChecksum += util_mkint(buffer, y);

  0002e	ff 75 10	 push	 DWORD PTR _y$[ebp]
  00031	8b f0		 mov	 esi, eax
  00033	8d 85 fc bf ff
	ff		 lea	 eax, DWORD PTR _buffer$[ebp]
  00039	50		 push	 eax
  0003a	e8 00 00 00 00	 call	 ?util_mkint@@YAHPADH@Z	; util_mkint
  0003f	03 f0		 add	 esi, eax

; 1365 : 	util_mkint(buffer, iChecksum);

  00041	8d 85 fc bf ff
	ff		 lea	 eax, DWORD PTR _buffer$[ebp]
  00047	56		 push	 esi
  00048	50		 push	 eax
  00049	e8 00 00 00 00	 call	 ?util_mkint@@YAHPADH@Z	; util_mkint

; 1366 : 	util_SendMesg(fd, LSSPROTO_EN_SEND, buffer);

  0004e	8d 85 fc bf ff
	ff		 lea	 eax, DWORD PTR _buffer$[ebp]
  00054	50		 push	 eax
  00055	6a 05		 push	 5
  00057	ff 75 08	 push	 DWORD PTR _fd$[ebp]
  0005a	e8 00 00 00 00	 call	 ?util_SendMesg@@YAXHHPAD@Z ; util_SendMesg

; 1367 : }

  0005f	8b 4d fc	 mov	 ecx, DWORD PTR __$ArrayPad$[ebp]
  00062	83 c4 24	 add	 esp, 36			; 00000024H
  00065	33 cd		 xor	 ecx, ebp
  00067	5e		 pop	 esi
  00068	e8 00 00 00 00	 call	 @__security_check_cookie@4
  0006d	8b e5		 mov	 esp, ebp
  0006f	5d		 pop	 ebp
  00070	c3		 ret	 0
?lssproto_EN_send@@YAXHHH@Z ENDP			; lssproto_EN_send
_TEXT	ENDS
; Function compile flags: /Ogtp
; File C:\Users\gg862\OneDrive\πŸ≈¡ »≠∏È\∏æƒÌøœ∑·\Client Source Code1.31¿œ∫ª\NewProto\protocol.cpp
;	COMDAT ?lssproto_EV_send@@YAXHHHHHH@Z
_TEXT	SEGMENT
_buffer$ = -16388					; size = 16384
__$ArrayPad$ = -4					; size = 4
_fd$ = 8						; size = 4
_event$ = 12						; size = 4
_seqno$ = 16						; size = 4
_x$ = 20						; size = 4
_y$ = 24						; size = 4
_dir$ = 28						; size = 4
?lssproto_EV_send@@YAXHHHHHH@Z PROC			; lssproto_EV_send, COMDAT

; 1337 : {

  00000	55		 push	 ebp
  00001	8b ec		 mov	 ebp, esp
  00003	b8 04 40 00 00	 mov	 eax, 16388		; 00004004H
  00008	e8 00 00 00 00	 call	 __chkstk
  0000d	a1 00 00 00 00	 mov	 eax, DWORD PTR ___security_cookie
  00012	33 c5		 xor	 eax, ebp
  00014	89 45 fc	 mov	 DWORD PTR __$ArrayPad$[ebp], eax
  00017	56		 push	 esi

; 1338 : 	char buffer[16384];
; 1339 : 	int iChecksum=0;
; 1340 : 
; 1341 : 	buffer[0] = '\0';
; 1342 : 	iChecksum += util_mkint(buffer, event);

  00018	ff 75 0c	 push	 DWORD PTR _event$[ebp]
  0001b	8d 85 fc bf ff
	ff		 lea	 eax, DWORD PTR _buffer$[ebp]
  00021	c6 85 fc bf ff
	ff 00		 mov	 BYTE PTR _buffer$[ebp], 0
  00028	50		 push	 eax
  00029	e8 00 00 00 00	 call	 ?util_mkint@@YAHPADH@Z	; util_mkint
  0002e	83 c4 08	 add	 esp, 8
  00031	8b f0		 mov	 esi, eax

; 1343 : 
; 1344 : 	if (g_ÊúçÂä°Âô® == SERVER_Âè∞Êúç)

  00033	83 3d 00 00 00
	00 01		 cmp	 DWORD PTR ?g_‹◊?–Ô@@3HA, 1 ; g_‹◊?–Ô
  0003a	75 16		 jne	 SHORT $LN2@lssproto_E

; 1345 : 	{
; 1346 : 		iChecksum += util_mkint(buffer, intÂè∞ÊúçÂèëÂåÖ);

  0003c	8d 85 fc bf ff
	ff		 lea	 eax, DWORD PTR _buffer$[ebp]
  00042	68 21 ac 12 00	 push	 1223713			; 0012ac21H
  00047	50		 push	 eax
  00048	e8 00 00 00 00	 call	 ?util_mkint@@YAHPADH@Z	; util_mkint
  0004d	83 c4 08	 add	 esp, 8
  00050	03 f0		 add	 esi, eax
$LN2@lssproto_E:

; 1347 : 	}
; 1348 : 
; 1349 : 	iChecksum += util_mkint(buffer, seqno);

  00052	ff 75 10	 push	 DWORD PTR _seqno$[ebp]
  00055	8d 85 fc bf ff
	ff		 lea	 eax, DWORD PTR _buffer$[ebp]
  0005b	50		 push	 eax
  0005c	e8 00 00 00 00	 call	 ?util_mkint@@YAHPADH@Z	; util_mkint

; 1350 : 	iChecksum += util_mkint(buffer, x);

  00061	ff 75 14	 push	 DWORD PTR _x$[ebp]
  00064	03 f0		 add	 esi, eax
  00066	8d 85 fc bf ff
	ff		 lea	 eax, DWORD PTR _buffer$[ebp]
  0006c	50		 push	 eax
  0006d	e8 00 00 00 00	 call	 ?util_mkint@@YAHPADH@Z	; util_mkint

; 1351 : 	iChecksum += util_mkint(buffer, y);

  00072	ff 75 18	 push	 DWORD PTR _y$[ebp]
  00075	03 f0		 add	 esi, eax
  00077	8d 85 fc bf ff
	ff		 lea	 eax, DWORD PTR _buffer$[ebp]
  0007d	50		 push	 eax
  0007e	e8 00 00 00 00	 call	 ?util_mkint@@YAHPADH@Z	; util_mkint

; 1352 : 	iChecksum += util_mkint(buffer, dir);

  00083	ff 75 1c	 push	 DWORD PTR _dir$[ebp]
  00086	03 f0		 add	 esi, eax
  00088	8d 85 fc bf ff
	ff		 lea	 eax, DWORD PTR _buffer$[ebp]
  0008e	50		 push	 eax
  0008f	e8 00 00 00 00	 call	 ?util_mkint@@YAHPADH@Z	; util_mkint
  00094	03 f0		 add	 esi, eax

; 1353 : 	util_mkint(buffer, iChecksum);

  00096	8d 85 fc bf ff
	ff		 lea	 eax, DWORD PTR _buffer$[ebp]
  0009c	56		 push	 esi
  0009d	50		 push	 eax
  0009e	e8 00 00 00 00	 call	 ?util_mkint@@YAHPADH@Z	; util_mkint

; 1354 : 	util_SendMesg(fd, LSSPROTO_EV_SEND, buffer);  // 3

  000a3	8d 85 fc bf ff
	ff		 lea	 eax, DWORD PTR _buffer$[ebp]
  000a9	50		 push	 eax
  000aa	6a 03		 push	 3
  000ac	ff 75 08	 push	 DWORD PTR _fd$[ebp]
  000af	e8 00 00 00 00	 call	 ?util_SendMesg@@YAXHHPAD@Z ; util_SendMesg

; 1355 : }

  000b4	8b 4d fc	 mov	 ecx, DWORD PTR __$ArrayPad$[ebp]
  000b7	83 c4 34	 add	 esp, 52			; 00000034H
  000ba	33 cd		 xor	 ecx, ebp
  000bc	5e		 pop	 esi
  000bd	e8 00 00 00 00	 call	 @__security_check_cookie@4
  000c2	8b e5		 mov	 esp, ebp
  000c4	5d		 pop	 ebp
  000c5	c3		 ret	 0
?lssproto_EV_send@@YAXHHHHHH@Z ENDP			; lssproto_EV_send
_TEXT	ENDS
; Function compile flags: /Ogtp
; File C:\Users\gg862\OneDrive\πŸ≈¡ »≠∏È\∏æƒÌøœ∑·\Client Source Code1.31¿œ∫ª\NewProto\protocol.cpp
;	COMDAT ?lssproto_W2_send@@YAXHHHPAD@Z
_TEXT	SEGMENT
_buffer$ = -16388					; size = 16384
__$ArrayPad$ = -4					; size = 4
_fd$ = 8						; size = 4
_x$ = 12						; size = 4
_y$ = 16						; size = 4
_direction$ = 20					; size = 4
?lssproto_W2_send@@YAXHHHPAD@Z PROC			; lssproto_W2_send, COMDAT

; 1318 : {

  00000	55		 push	 ebp
  00001	8b ec		 mov	 ebp, esp
  00003	b8 04 40 00 00	 mov	 eax, 16388		; 00004004H
  00008	e8 00 00 00 00	 call	 __chkstk
  0000d	a1 00 00 00 00	 mov	 eax, DWORD PTR ___security_cookie
  00012	33 c5		 xor	 eax, ebp
  00014	89 45 fc	 mov	 DWORD PTR __$ArrayPad$[ebp], eax
  00017	56		 push	 esi
  00018	57		 push	 edi

; 1319 : 	char buffer[16384];
; 1320 : 	int iChecksum=0;
; 1321 : 
; 1322 : 	buffer[0] = '\0';
; 1323 : 	iChecksum += util_mkint(buffer, x);

  00019	ff 75 0c	 push	 DWORD PTR _x$[ebp]
  0001c	8b 7d 14	 mov	 edi, DWORD PTR _direction$[ebp]
  0001f	8d 85 fc bf ff
	ff		 lea	 eax, DWORD PTR _buffer$[ebp]
  00025	50		 push	 eax
  00026	c6 85 fc bf ff
	ff 00		 mov	 BYTE PTR _buffer$[ebp], 0
  0002d	e8 00 00 00 00	 call	 ?util_mkint@@YAHPADH@Z	; util_mkint

; 1324 : 	iChecksum += util_mkint(buffer, y);

  00032	ff 75 10	 push	 DWORD PTR _y$[ebp]
  00035	8b f0		 mov	 esi, eax
  00037	8d 85 fc bf ff
	ff		 lea	 eax, DWORD PTR _buffer$[ebp]
  0003d	50		 push	 eax
  0003e	e8 00 00 00 00	 call	 ?util_mkint@@YAHPADH@Z	; util_mkint
  00043	83 c4 10	 add	 esp, 16			; 00000010H
  00046	03 f0		 add	 esi, eax

; 1325 : 
; 1326 : 	if (g_ÊúçÂä°Âô® == SERVER_Âè∞Êúç)

  00048	83 3d 00 00 00
	00 01		 cmp	 DWORD PTR ?g_‹◊?–Ô@@3HA, 1 ; g_‹◊?–Ô
  0004f	75 16		 jne	 SHORT $LN2@lssproto_W

; 1327 : 	{
; 1328 : 		iChecksum += util_mkint(buffer, intÂè∞ÊúçÂèëÂåÖ);

  00051	8d 85 fc bf ff
	ff		 lea	 eax, DWORD PTR _buffer$[ebp]
  00057	68 21 ac 12 00	 push	 1223713			; 0012ac21H
  0005c	50		 push	 eax
  0005d	e8 00 00 00 00	 call	 ?util_mkint@@YAHPADH@Z	; util_mkint
  00062	83 c4 08	 add	 esp, 8
  00065	03 f0		 add	 esi, eax
$LN2@lssproto_W:

; 1329 : 	}
; 1330 : 
; 1331 : 	iChecksum += util_mkstring(buffer, direction);

  00067	8d 85 fc bf ff
	ff		 lea	 eax, DWORD PTR _buffer$[ebp]
  0006d	57		 push	 edi
  0006e	50		 push	 eax
  0006f	e8 00 00 00 00	 call	 ?util_mkstring@@YAHPAD0@Z ; util_mkstring
  00074	03 f0		 add	 esi, eax

; 1332 : 	util_mkint(buffer, iChecksum);

  00076	8d 85 fc bf ff
	ff		 lea	 eax, DWORD PTR _buffer$[ebp]
  0007c	56		 push	 esi
  0007d	50		 push	 eax
  0007e	e8 00 00 00 00	 call	 ?util_mkint@@YAHPADH@Z	; util_mkint

; 1333 : 	util_SendMesg(fd, LSSPROTO_W2_SEND, buffer);  //1

  00083	8d 85 fc bf ff
	ff		 lea	 eax, DWORD PTR _buffer$[ebp]
  00089	50		 push	 eax
  0008a	6a 01		 push	 1
  0008c	ff 75 08	 push	 DWORD PTR _fd$[ebp]
  0008f	e8 00 00 00 00	 call	 ?util_SendMesg@@YAXHHPAD@Z ; util_SendMesg

; 1334 : }

  00094	8b 4d fc	 mov	 ecx, DWORD PTR __$ArrayPad$[ebp]
  00097	83 c4 1c	 add	 esp, 28			; 0000001cH
  0009a	33 cd		 xor	 ecx, ebp
  0009c	5f		 pop	 edi
  0009d	5e		 pop	 esi
  0009e	e8 00 00 00 00	 call	 @__security_check_cookie@4
  000a3	8b e5		 mov	 esp, ebp
  000a5	5d		 pop	 ebp
  000a6	c3		 ret	 0
?lssproto_W2_send@@YAXHHHPAD@Z ENDP			; lssproto_W2_send
_TEXT	ENDS
; Function compile flags: /Ogtp
; File C:\Users\gg862\OneDrive\πŸ≈¡ »≠∏È\∏æƒÌøœ∑·\Client Source Code1.31¿œ∫ª\NewProto\protocol.cpp
;	COMDAT ?lssproto_W_send@@YAXHHHPAD@Z
_TEXT	SEGMENT
_buffer$ = -16388					; size = 16384
__$ArrayPad$ = -4					; size = 4
_fd$ = 8						; size = 4
_x$ = 12						; size = 4
_y$ = 16						; size = 4
_direction$ = 20					; size = 4
?lssproto_W_send@@YAXHHHPAD@Z PROC			; lssproto_W_send, COMDAT

; 1296 : {

  00000	55		 push	 ebp
  00001	8b ec		 mov	 ebp, esp
  00003	b8 04 40 00 00	 mov	 eax, 16388		; 00004004H
  00008	e8 00 00 00 00	 call	 __chkstk
  0000d	a1 00 00 00 00	 mov	 eax, DWORD PTR ___security_cookie
  00012	33 c5		 xor	 eax, ebp
  00014	89 45 fc	 mov	 DWORD PTR __$ArrayPad$[ebp], eax
  00017	56		 push	 esi
  00018	57		 push	 edi

; 1297 : 	char buffer[16384];
; 1298 : 	int iChecksum=0;
; 1299 : 
; 1300 : 	buffer[0] = '\0';
; 1301 : 	iChecksum += util_mkint(buffer, x);

  00019	ff 75 0c	 push	 DWORD PTR _x$[ebp]
  0001c	8b 7d 14	 mov	 edi, DWORD PTR _direction$[ebp]
  0001f	8d 85 fc bf ff
	ff		 lea	 eax, DWORD PTR _buffer$[ebp]
  00025	50		 push	 eax
  00026	c6 85 fc bf ff
	ff 00		 mov	 BYTE PTR _buffer$[ebp], 0
  0002d	e8 00 00 00 00	 call	 ?util_mkint@@YAHPADH@Z	; util_mkint
  00032	83 c4 08	 add	 esp, 8
  00035	8b f0		 mov	 esi, eax

; 1302 : 
; 1303 : 	if (g_ÊúçÂä°Âô® == SERVER_Âè∞Êúç)

  00037	83 3d 00 00 00
	00 01		 cmp	 DWORD PTR ?g_‹◊?–Ô@@3HA, 1 ; g_‹◊?–Ô
  0003e	75 16		 jne	 SHORT $LN2@lssproto_W

; 1304 : 	{
; 1305 : 		iChecksum += util_mkint(buffer, intÂè∞ÊúçÂèëÂåÖ);

  00040	8d 85 fc bf ff
	ff		 lea	 eax, DWORD PTR _buffer$[ebp]
  00046	68 21 ac 12 00	 push	 1223713			; 0012ac21H
  0004b	50		 push	 eax
  0004c	e8 00 00 00 00	 call	 ?util_mkint@@YAHPADH@Z	; util_mkint
  00051	83 c4 08	 add	 esp, 8
  00054	03 f0		 add	 esi, eax
$LN2@lssproto_W:

; 1306 : 	}
; 1307 : 
; 1308 : 	iChecksum += util_mkint(buffer, y);

  00056	ff 75 10	 push	 DWORD PTR _y$[ebp]
  00059	8d 85 fc bf ff
	ff		 lea	 eax, DWORD PTR _buffer$[ebp]
  0005f	50		 push	 eax
  00060	e8 00 00 00 00	 call	 ?util_mkint@@YAHPADH@Z	; util_mkint
  00065	03 f0		 add	 esi, eax

; 1309 : 	iChecksum += util_mkstring(buffer, direction);

  00067	8d 85 fc bf ff
	ff		 lea	 eax, DWORD PTR _buffer$[ebp]
  0006d	57		 push	 edi
  0006e	50		 push	 eax
  0006f	e8 00 00 00 00	 call	 ?util_mkstring@@YAHPAD0@Z ; util_mkstring
  00074	03 f0		 add	 esi, eax

; 1310 : 	util_mkint(buffer, iChecksum);

  00076	8d 85 fc bf ff
	ff		 lea	 eax, DWORD PTR _buffer$[ebp]
  0007c	56		 push	 esi
  0007d	50		 push	 eax
  0007e	e8 00 00 00 00	 call	 ?util_mkint@@YAHPADH@Z	; util_mkint

; 1311 : 	util_SendMesg(fd, LSSPROTO_W_SEND, buffer);  // 0

  00083	8d 85 fc bf ff
	ff		 lea	 eax, DWORD PTR _buffer$[ebp]
  00089	50		 push	 eax
  0008a	6a 00		 push	 0
  0008c	ff 75 08	 push	 DWORD PTR _fd$[ebp]
  0008f	e8 00 00 00 00	 call	 ?util_SendMesg@@YAXHHPAD@Z ; util_SendMesg

; 1312 : 	// Nuke 0407
; 1313 : 	extern int SendCount;
; 1314 : 	SendCount--;
; 1315 : }

  00094	8b 4d fc	 mov	 ecx, DWORD PTR __$ArrayPad$[ebp]
  00097	83 c4 24	 add	 esp, 36			; 00000024H
  0009a	ff 0d 00 00 00
	00		 dec	 DWORD PTR ?SendCount@@3HA ; SendCount
  000a0	33 cd		 xor	 ecx, ebp
  000a2	5f		 pop	 edi
  000a3	5e		 pop	 esi
  000a4	e8 00 00 00 00	 call	 @__security_check_cookie@4
  000a9	8b e5		 mov	 esp, ebp
  000ab	5d		 pop	 ebp
  000ac	c3		 ret	 0
?lssproto_W_send@@YAXHHHPAD@Z ENDP			; lssproto_W_send
_TEXT	ENDS
; Function compile flags: /Ogtp
; File C:\Users\gg862\OneDrive\πŸ≈¡ »≠∏È\∏æƒÌøœ∑·\Client Source Code1.31¿œ∫ª\NewProto\protocol.cpp
;	COMDAT ?lssproto_poolitemcall_send@@YAXH@Z
_TEXT	SEGMENT
_buffer$ = -65540					; size = 65536
__$ArrayPad$ = -4					; size = 4
_fd$ = 8						; size = 4
?lssproto_poolitemcall_send@@YAXH@Z PROC		; lssproto_poolitemcall_send, COMDAT

; 2608 : {

  00000	55		 push	 ebp
  00001	8b ec		 mov	 ebp, esp
  00003	b8 04 00 01 00	 mov	 eax, 65540		; 00010004H
  00008	e8 00 00 00 00	 call	 __chkstk
  0000d	a1 00 00 00 00	 mov	 eax, DWORD PTR ___security_cookie
  00012	33 c5		 xor	 eax, ebp
  00014	89 45 fc	 mov	 DWORD PTR __$ArrayPad$[ebp], eax

; 2609 : 	char buffer[1024 * 64];
; 2610 : 	strcpy(buffer, "");
; 2611 : 	memset(buffer, 0, 1024 * 64);

  00017	68 00 00 01 00	 push	 65536			; 00010000H
  0001c	8d 85 fc ff fe
	ff		 lea	 eax, DWORD PTR _buffer$[ebp]
  00022	6a 00		 push	 0
  00024	50		 push	 eax
  00025	e8 00 00 00 00	 call	 _memset

; 2612 : 
; 2613 : 	util_SendMesg(fd, LSSPROTO_POOLITEMCALL_SEND, buffer);

  0002a	8d 85 fc ff fe
	ff		 lea	 eax, DWORD PTR _buffer$[ebp]
  00030	50		 push	 eax
  00031	68 c3 01 00 00	 push	 451			; 000001c3H
  00036	ff 75 08	 push	 DWORD PTR _fd$[ebp]
  00039	e8 00 00 00 00	 call	 ?util_SendMesg@@YAXHHPAD@Z ; util_SendMesg

; 2614 : }

  0003e	8b 4d fc	 mov	 ecx, DWORD PTR __$ArrayPad$[ebp]
  00041	83 c4 18	 add	 esp, 24			; 00000018H
  00044	33 cd		 xor	 ecx, ebp
  00046	e8 00 00 00 00	 call	 @__security_check_cookie@4
  0004b	8b e5		 mov	 esp, ebp
  0004d	5d		 pop	 ebp
  0004e	c3		 ret	 0
?lssproto_poolitemcall_send@@YAXH@Z ENDP		; lssproto_poolitemcall_send
_TEXT	ENDS
; Function compile flags: /Ogtp
; File C:\Users\gg862\OneDrive\πŸ≈¡ »≠∏È\∏æƒÌøœ∑·\Client Source Code1.31¿œ∫ª\NewProto\protocol.cpp
;	COMDAT ?lssproto_petshopcall_send@@YAXH@Z
_TEXT	SEGMENT
_buffer$ = -65540					; size = 65536
__$ArrayPad$ = -4					; size = 4
_fd$ = 8						; size = 4
?lssproto_petshopcall_send@@YAXH@Z PROC			; lssproto_petshopcall_send, COMDAT

; 2600 : {

  00000	55		 push	 ebp
  00001	8b ec		 mov	 ebp, esp
  00003	b8 04 00 01 00	 mov	 eax, 65540		; 00010004H
  00008	e8 00 00 00 00	 call	 __chkstk
  0000d	a1 00 00 00 00	 mov	 eax, DWORD PTR ___security_cookie
  00012	33 c5		 xor	 eax, ebp
  00014	89 45 fc	 mov	 DWORD PTR __$ArrayPad$[ebp], eax

; 2601 : 	char buffer[1024 * 64];
; 2602 : 	strcpy(buffer, "");
; 2603 : 	memset(buffer, 0, 1024 * 64);

  00017	68 00 00 01 00	 push	 65536			; 00010000H
  0001c	8d 85 fc ff fe
	ff		 lea	 eax, DWORD PTR _buffer$[ebp]
  00022	6a 00		 push	 0
  00024	50		 push	 eax
  00025	e8 00 00 00 00	 call	 _memset

; 2604 : 
; 2605 : 	util_SendMesg(fd, LSSPROTO_PETSHOPCALL_SEND, buffer);

  0002a	8d 85 fc ff fe
	ff		 lea	 eax, DWORD PTR _buffer$[ebp]
  00030	50		 push	 eax
  00031	68 c2 01 00 00	 push	 450			; 000001c2H
  00036	ff 75 08	 push	 DWORD PTR _fd$[ebp]
  00039	e8 00 00 00 00	 call	 ?util_SendMesg@@YAXHHPAD@Z ; util_SendMesg

; 2606 : }

  0003e	8b 4d fc	 mov	 ecx, DWORD PTR __$ArrayPad$[ebp]
  00041	83 c4 18	 add	 esp, 24			; 00000018H
  00044	33 cd		 xor	 ecx, ebp
  00046	e8 00 00 00 00	 call	 @__security_check_cookie@4
  0004b	8b e5		 mov	 esp, ebp
  0004d	5d		 pop	 ebp
  0004e	c3		 ret	 0
?lssproto_petshopcall_send@@YAXH@Z ENDP			; lssproto_petshopcall_send
_TEXT	ENDS
; Function compile flags: /Ogtp
; File C:\Users\gg862\OneDrive\πŸ≈¡ »≠∏È\∏æƒÌøœ∑·\Client Source Code1.31¿œ∫ª\NewProto\protocol.cpp
;	COMDAT ?lssproto_Partyauto_send@@YAXH@Z
_TEXT	SEGMENT
_buffer$ = -65540					; size = 65536
__$ArrayPad$ = -4					; size = 4
_fd$ = 8						; size = 4
?lssproto_Partyauto_send@@YAXH@Z PROC			; lssproto_Partyauto_send, COMDAT

; 2590 : {

  00000	55		 push	 ebp
  00001	8b ec		 mov	 ebp, esp
  00003	b8 04 00 01 00	 mov	 eax, 65540		; 00010004H
  00008	e8 00 00 00 00	 call	 __chkstk
  0000d	a1 00 00 00 00	 mov	 eax, DWORD PTR ___security_cookie
  00012	33 c5		 xor	 eax, ebp
  00014	89 45 fc	 mov	 DWORD PTR __$ArrayPad$[ebp], eax

; 2591 : 	char buffer[1024 * 64];
; 2592 : 	strcpy(buffer, "");
; 2593 : 	memset(buffer, 0, 1024 * 64);

  00017	68 00 00 01 00	 push	 65536			; 00010000H
  0001c	8d 85 fc ff fe
	ff		 lea	 eax, DWORD PTR _buffer$[ebp]
  00022	6a 00		 push	 0
  00024	50		 push	 eax
  00025	e8 00 00 00 00	 call	 _memset

; 2594 : 
; 2595 : 	util_SendMesg(fd, LSSPROTO_PARTYAUTO_SEND, buffer);

  0002a	8d 85 fc ff fe
	ff		 lea	 eax, DWORD PTR _buffer$[ebp]
  00030	50		 push	 eax
  00031	68 92 01 00 00	 push	 402			; 00000192H
  00036	ff 75 08	 push	 DWORD PTR _fd$[ebp]
  00039	e8 00 00 00 00	 call	 ?util_SendMesg@@YAXHHPAD@Z ; util_SendMesg

; 2596 : }

  0003e	8b 4d fc	 mov	 ecx, DWORD PTR __$ArrayPad$[ebp]
  00041	83 c4 18	 add	 esp, 24			; 00000018H
  00044	33 cd		 xor	 ecx, ebp
  00046	e8 00 00 00 00	 call	 @__security_check_cookie@4
  0004b	8b e5		 mov	 esp, ebp
  0004d	5d		 pop	 ebp
  0004e	c3		 ret	 0
?lssproto_Partyauto_send@@YAXH@Z ENDP			; lssproto_Partyauto_send
_TEXT	ENDS
; Function compile flags: /Ogtp
; File C:\Users\gg862\OneDrive\πŸ≈¡ »≠∏È\∏æƒÌøœ∑·\Client Source Code1.31¿œ∫ª\NewProto\protocol.cpp
;	COMDAT ?lssproto_Noenemy_send@@YAXH@Z
_TEXT	SEGMENT
_buffer$ = -65540					; size = 65536
__$ArrayPad$ = -4					; size = 4
_fd$ = 8						; size = 4
?lssproto_Noenemy_send@@YAXH@Z PROC			; lssproto_Noenemy_send, COMDAT

; 2579 : {

  00000	55		 push	 ebp
  00001	8b ec		 mov	 ebp, esp
  00003	b8 04 00 01 00	 mov	 eax, 65540		; 00010004H
  00008	e8 00 00 00 00	 call	 __chkstk
  0000d	a1 00 00 00 00	 mov	 eax, DWORD PTR ___security_cookie
  00012	33 c5		 xor	 eax, ebp
  00014	89 45 fc	 mov	 DWORD PTR __$ArrayPad$[ebp], eax

; 2580 : 	char buffer[1024 * 64];
; 2581 : 	strcpy(buffer, "");
; 2582 : 	memset(buffer, 0, 1024 * 64);

  00017	68 00 00 01 00	 push	 65536			; 00010000H
  0001c	8d 85 fc ff fe
	ff		 lea	 eax, DWORD PTR _buffer$[ebp]
  00022	6a 00		 push	 0
  00024	50		 push	 eax
  00025	e8 00 00 00 00	 call	 _memset

; 2583 : 
; 2584 : 	util_SendMesg(fd, LSSPROTO_NOENEMY_SEND, buffer);

  0002a	8d 85 fc ff fe
	ff		 lea	 eax, DWORD PTR _buffer$[ebp]
  00030	50		 push	 eax
  00031	68 91 01 00 00	 push	 401			; 00000191H
  00036	ff 75 08	 push	 DWORD PTR _fd$[ebp]
  00039	e8 00 00 00 00	 call	 ?util_SendMesg@@YAXHHPAD@Z ; util_SendMesg

; 2585 : }

  0003e	8b 4d fc	 mov	 ecx, DWORD PTR __$ArrayPad$[ebp]
  00041	83 c4 18	 add	 esp, 24			; 00000018H
  00044	33 cd		 xor	 ecx, ebp
  00046	e8 00 00 00 00	 call	 @__security_check_cookie@4
  0004b	8b e5		 mov	 esp, ebp
  0004d	5d		 pop	 ebp
  0004e	c3		 ret	 0
?lssproto_Noenemy_send@@YAXH@Z ENDP			; lssproto_Noenemy_send
_TEXT	ENDS
; Function compile flags: /Ogtp
; File C:\Users\gg862\OneDrive\πŸ≈¡ »≠∏È\∏æƒÌøœ∑·\Client Source Code1.31¿œ∫ª\NewProto\protocol.cpp
;	COMDAT ?lssproto_Expup_send@@YAXH@Z
_TEXT	SEGMENT
_buffer$ = -65540					; size = 65536
__$ArrayPad$ = -4					; size = 4
_fd$ = 8						; size = 4
?lssproto_Expup_send@@YAXH@Z PROC			; lssproto_Expup_send, COMDAT

; 2568 : {

  00000	55		 push	 ebp
  00001	8b ec		 mov	 ebp, esp
  00003	b8 04 00 01 00	 mov	 eax, 65540		; 00010004H
  00008	e8 00 00 00 00	 call	 __chkstk
  0000d	a1 00 00 00 00	 mov	 eax, DWORD PTR ___security_cookie
  00012	33 c5		 xor	 eax, ebp
  00014	89 45 fc	 mov	 DWORD PTR __$ArrayPad$[ebp], eax

; 2569 : 	char buffer[1024 * 64];
; 2570 : 	strcpy(buffer, "");
; 2571 : 	memset(buffer, 0, 1024 * 64);

  00017	68 00 00 01 00	 push	 65536			; 00010000H
  0001c	8d 85 fc ff fe
	ff		 lea	 eax, DWORD PTR _buffer$[ebp]
  00022	6a 00		 push	 0
  00024	50		 push	 eax
  00025	e8 00 00 00 00	 call	 _memset

; 2572 : 
; 2573 : 	util_SendMesg(fd, LSSPROTO_EXPUP_SEND, buffer);

  0002a	8d 85 fc ff fe
	ff		 lea	 eax, DWORD PTR _buffer$[ebp]
  00030	50		 push	 eax
  00031	68 90 01 00 00	 push	 400			; 00000190H
  00036	ff 75 08	 push	 DWORD PTR _fd$[ebp]
  00039	e8 00 00 00 00	 call	 ?util_SendMesg@@YAXHHPAD@Z ; util_SendMesg

; 2574 : }

  0003e	8b 4d fc	 mov	 ecx, DWORD PTR __$ArrayPad$[ebp]
  00041	83 c4 18	 add	 esp, 24			; 00000018H
  00044	33 cd		 xor	 ecx, ebp
  00046	e8 00 00 00 00	 call	 @__security_check_cookie@4
  0004b	8b e5		 mov	 esp, ebp
  0004d	5d		 pop	 ebp
  0004e	c3		 ret	 0
?lssproto_Expup_send@@YAXH@Z ENDP			; lssproto_Expup_send
_TEXT	ENDS
; Function compile flags: /Ogtp
; File C:\Users\gg862\OneDrive\πŸ≈¡ »≠∏È\∏æƒÌøœ∑·\Client Source Code1.31¿œ∫ª\NewProto\protocol.cpp
;	COMDAT ?lssproto_Gmset_send@@YAXHHPAD@Z
_TEXT	SEGMENT
_buffer$ = -65540					; size = 65536
__$ArrayPad$ = -4					; size = 4
_fd$ = 8						; size = 4
_index$ = 12						; size = 4
_data$ = 16						; size = 4
?lssproto_Gmset_send@@YAXHHPAD@Z PROC			; lssproto_Gmset_send, COMDAT

; 2553 : void lssproto_Gmset_send(int fd,int index,char* data){

  00000	55		 push	 ebp
  00001	8b ec		 mov	 ebp, esp
  00003	b8 04 00 01 00	 mov	 eax, 65540		; 00010004H
  00008	e8 00 00 00 00	 call	 __chkstk
  0000d	a1 00 00 00 00	 mov	 eax, DWORD PTR ___security_cookie
  00012	33 c5		 xor	 eax, ebp
  00014	89 45 fc	 mov	 DWORD PTR __$ArrayPad$[ebp], eax
  00017	56		 push	 esi
  00018	57		 push	 edi
  00019	8b 7d 10	 mov	 edi, DWORD PTR _data$[ebp]

; 2554 : 	char buffer[1024 * 64];
; 2555 : 	int checksum = 0;
; 2556 : 	strcpy(buffer,"");
; 2557 : 	memset(buffer, 0, 1024*64);

  0001c	8d 85 fc ff fe
	ff		 lea	 eax, DWORD PTR _buffer$[ebp]
  00022	68 00 00 01 00	 push	 65536			; 00010000H
  00027	6a 00		 push	 0
  00029	50		 push	 eax
  0002a	e8 00 00 00 00	 call	 _memset

; 2558 : 	checksum += util_mkint(buffer,index);

  0002f	ff 75 0c	 push	 DWORD PTR _index$[ebp]
  00032	8d 85 fc ff fe
	ff		 lea	 eax, DWORD PTR _buffer$[ebp]
  00038	50		 push	 eax
  00039	e8 00 00 00 00	 call	 ?util_mkint@@YAHPADH@Z	; util_mkint
  0003e	8b f0		 mov	 esi, eax

; 2559 : 	checksum += util_mkstring(buffer,data);//ÁâàÊú¨Âêç

  00040	8d 85 fc ff fe
	ff		 lea	 eax, DWORD PTR _buffer$[ebp]
  00046	57		 push	 edi
  00047	50		 push	 eax
  00048	e8 00 00 00 00	 call	 ?util_mkstring@@YAHPAD0@Z ; util_mkstring
  0004d	03 f0		 add	 esi, eax

; 2560 : 	checksum += util_mkstring(buffer,"dJuTNIuFKWUoFEJanPWTqgAATxHhlltK");//ÂØÜÈí•

  0004f	8d 85 fc ff fe
	ff		 lea	 eax, DWORD PTR _buffer$[ebp]
  00055	68 00 00 00 00	 push	 OFFSET ??_C@_0CB@FCFKGMLE@dJuTNIuFKWUoFEJanPWTqgAATxHhllt@
  0005a	50		 push	 eax
  0005b	e8 00 00 00 00	 call	 ?util_mkstring@@YAHPAD0@Z ; util_mkstring
  00060	03 f0		 add	 esi, eax

; 2561 : 	util_mkint(buffer,checksum);

  00062	8d 85 fc ff fe
	ff		 lea	 eax, DWORD PTR _buffer$[ebp]
  00068	56		 push	 esi
  00069	50		 push	 eax
  0006a	e8 00 00 00 00	 call	 ?util_mkint@@YAHPADH@Z	; util_mkint

; 2562 : 	util_SendMesg(fd, LSSPROTO_GMSET_SEND, buffer);

  0006f	8d 85 fc ff fe
	ff		 lea	 eax, DWORD PTR _buffer$[ebp]
  00075	50		 push	 eax
  00076	68 2d 01 00 00	 push	 301			; 0000012dH
  0007b	ff 75 08	 push	 DWORD PTR _fd$[ebp]
  0007e	e8 00 00 00 00	 call	 ?util_SendMesg@@YAXHHPAD@Z ; util_SendMesg

; 2563 : }

  00083	8b 4d fc	 mov	 ecx, DWORD PTR __$ArrayPad$[ebp]
  00086	83 c4 38	 add	 esp, 56			; 00000038H
  00089	33 cd		 xor	 ecx, ebp
  0008b	5f		 pop	 edi
  0008c	5e		 pop	 esi
  0008d	e8 00 00 00 00	 call	 @__security_check_cookie@4
  00092	8b e5		 mov	 esp, ebp
  00094	5d		 pop	 ebp
  00095	c3		 ret	 0
?lssproto_Gmset_send@@YAXHHPAD@Z ENDP			; lssproto_Gmset_send
_TEXT	ENDS
; Function compile flags: /Ogtp
; File C:\Users\gg862\OneDrive\πŸ≈¡ »≠∏È\∏æƒÌøœ∑·\Client Source Code1.31¿œ∫ª\NewProto\protocol.cpp
;	COMDAT ?lssproto_GetInfo_send@@YAXH@Z
_TEXT	SEGMENT
_buffer$ = -16516					; size = 16384
_CpuCode$ = -132					; size = 64
_MacCode$ = -68						; size = 64
__$ArrayPad$ = -4					; size = 4
_fd$ = 8						; size = 4
?lssproto_GetInfo_send@@YAXH@Z PROC			; lssproto_GetInfo_send, COMDAT

; 1278 : {

  00000	55		 push	 ebp
  00001	8b ec		 mov	 ebp, esp
  00003	b8 84 40 00 00	 mov	 eax, 16516		; 00004084H
  00008	e8 00 00 00 00	 call	 __chkstk
  0000d	a1 00 00 00 00	 mov	 eax, DWORD PTR ___security_cookie
  00012	33 c5		 xor	 eax, ebp
  00014	89 45 fc	 mov	 DWORD PTR __$ArrayPad$[ebp], eax

; 1279 : 	char buffer[16384];
; 1280 : 	int iChecksum=0;
; 1281 : 
; 1282 : 	buffer[0] = '\0';
; 1283 : 
; 1284 : 	char MacCode[64];
; 1285 : 	char CpuCode[64];
; 1286 : 	getMAC(MacCode);

  00017	8d 45 bc	 lea	 eax, DWORD PTR _MacCode$[ebp]
  0001a	c6 85 7c bf ff
	ff 00		 mov	 BYTE PTR _buffer$[ebp], 0
  00021	56		 push	 esi
  00022	50		 push	 eax
  00023	e8 00 00 00 00	 call	 ?getMAC@@YAHPAD@Z	; getMAC

; 1287 : 	getCpuId(CpuCode);

  00028	8d 85 7c ff ff
	ff		 lea	 eax, DWORD PTR _CpuCode$[ebp]
  0002e	50		 push	 eax
  0002f	e8 00 00 00 00	 call	 ?getCpuId@@YAHPAD@Z	; getCpuId

; 1288 : 	iChecksum += util_mkstring(buffer, MacCode);

  00034	8d 45 bc	 lea	 eax, DWORD PTR _MacCode$[ebp]
  00037	50		 push	 eax
  00038	8d 85 7c bf ff
	ff		 lea	 eax, DWORD PTR _buffer$[ebp]
  0003e	50		 push	 eax
  0003f	e8 00 00 00 00	 call	 ?util_mkstring@@YAHPAD0@Z ; util_mkstring
  00044	8b f0		 mov	 esi, eax

; 1289 : 	iChecksum += util_mkstring(buffer, CpuCode);

  00046	8d 85 7c ff ff
	ff		 lea	 eax, DWORD PTR _CpuCode$[ebp]
  0004c	50		 push	 eax
  0004d	8d 85 7c bf ff
	ff		 lea	 eax, DWORD PTR _buffer$[ebp]
  00053	50		 push	 eax
  00054	e8 00 00 00 00	 call	 ?util_mkstring@@YAHPAD0@Z ; util_mkstring
  00059	03 f0		 add	 esi, eax

; 1290 : 	util_mkint(buffer, iChecksum);

  0005b	8d 85 7c bf ff
	ff		 lea	 eax, DWORD PTR _buffer$[ebp]
  00061	56		 push	 esi
  00062	50		 push	 eax
  00063	e8 00 00 00 00	 call	 ?util_mkint@@YAHPADH@Z	; util_mkint

; 1291 : 	util_SendMesg(fd, LSSPROTO_GETINFO_SEND, buffer);

  00068	8d 85 7c bf ff
	ff		 lea	 eax, DWORD PTR _buffer$[ebp]
  0006e	50		 push	 eax
  0006f	68 d2 00 00 00	 push	 210			; 000000d2H
  00074	ff 75 08	 push	 DWORD PTR _fd$[ebp]
  00077	e8 00 00 00 00	 call	 ?util_SendMesg@@YAXHHPAD@Z ; util_SendMesg

; 1292 : }

  0007c	8b 4d fc	 mov	 ecx, DWORD PTR __$ArrayPad$[ebp]
  0007f	83 c4 2c	 add	 esp, 44			; 0000002cH
  00082	33 cd		 xor	 ecx, ebp
  00084	5e		 pop	 esi
  00085	e8 00 00 00 00	 call	 @__security_check_cookie@4
  0008a	8b e5		 mov	 esp, ebp
  0008c	5d		 pop	 ebp
  0008d	c3		 ret	 0
?lssproto_GetInfo_send@@YAXH@Z ENDP			; lssproto_GetInfo_send
_TEXT	ENDS
; Function compile flags: /Ogtp
; File C:\Users\gg862\OneDrive\πŸ≈¡ »≠∏È\∏æƒÌøœ∑·\Client Source Code1.31¿œ∫ª\NewProto\protocol.cpp
;	COMDAT ?lssproto_SaMenu_send@@YAXHHHH@Z
_TEXT	SEGMENT
_buffer$ = -65540					; size = 65536
__$ArrayPad$ = -4					; size = 4
_fd$ = 8						; size = 4
_index1$ = 12						; size = 4
_index2$ = 16						; size = 4
_index3$ = 20						; size = 4
?lssproto_SaMenu_send@@YAXHHHH@Z PROC			; lssproto_SaMenu_send, COMDAT

; 2539 : void lssproto_SaMenu_send(int fd, int index1,int index2,int index3){

  00000	55		 push	 ebp
  00001	8b ec		 mov	 ebp, esp
  00003	b8 04 00 01 00	 mov	 eax, 65540		; 00010004H
  00008	e8 00 00 00 00	 call	 __chkstk
  0000d	a1 00 00 00 00	 mov	 eax, DWORD PTR ___security_cookie
  00012	33 c5		 xor	 eax, ebp
  00014	89 45 fc	 mov	 DWORD PTR __$ArrayPad$[ebp], eax
  00017	56		 push	 esi

; 2540 : 	char buffer[1024 * 64];
; 2541 : 	int checksum = 0;
; 2542 : 	strcpy(buffer,"");
; 2543 : 
; 2544 : 	checksum += util_mkint(buffer,index1);

  00018	ff 75 0c	 push	 DWORD PTR _index1$[ebp]
  0001b	8d 85 fc ff fe
	ff		 lea	 eax, DWORD PTR _buffer$[ebp]
  00021	c6 85 fc ff fe
	ff 00		 mov	 BYTE PTR _buffer$[ebp], 0
  00028	50		 push	 eax
  00029	e8 00 00 00 00	 call	 ?util_mkint@@YAHPADH@Z	; util_mkint

; 2545 : 	checksum += util_mkint(buffer,index2);

  0002e	ff 75 10	 push	 DWORD PTR _index2$[ebp]
  00031	8b f0		 mov	 esi, eax
  00033	8d 85 fc ff fe
	ff		 lea	 eax, DWORD PTR _buffer$[ebp]
  00039	50		 push	 eax
  0003a	e8 00 00 00 00	 call	 ?util_mkint@@YAHPADH@Z	; util_mkint

; 2546 : 	checksum += util_mkint(buffer,index3);

  0003f	ff 75 14	 push	 DWORD PTR _index3$[ebp]
  00042	03 f0		 add	 esi, eax
  00044	8d 85 fc ff fe
	ff		 lea	 eax, DWORD PTR _buffer$[ebp]
  0004a	50		 push	 eax
  0004b	e8 00 00 00 00	 call	 ?util_mkint@@YAHPADH@Z	; util_mkint
  00050	03 f0		 add	 esi, eax

; 2547 : 	util_mkint(buffer,checksum);

  00052	8d 85 fc ff fe
	ff		 lea	 eax, DWORD PTR _buffer$[ebp]
  00058	56		 push	 esi
  00059	50		 push	 eax
  0005a	e8 00 00 00 00	 call	 ?util_mkint@@YAHPADH@Z	; util_mkint

; 2548 : 	util_SendMesg(fd, LSSPROTO_SAMENU_SEND, buffer);

  0005f	8d 85 fc ff fe
	ff		 lea	 eax, DWORD PTR _buffer$[ebp]
  00065	50		 push	 eax
  00066	68 ca 00 00 00	 push	 202			; 000000caH
  0006b	ff 75 08	 push	 DWORD PTR _fd$[ebp]
  0006e	e8 00 00 00 00	 call	 ?util_SendMesg@@YAXHHPAD@Z ; util_SendMesg

; 2549 : }

  00073	8b 4d fc	 mov	 ecx, DWORD PTR __$ArrayPad$[ebp]
  00076	83 c4 2c	 add	 esp, 44			; 0000002cH
  00079	33 cd		 xor	 ecx, ebp
  0007b	5e		 pop	 esi
  0007c	e8 00 00 00 00	 call	 @__security_check_cookie@4
  00081	8b e5		 mov	 esp, ebp
  00083	5d		 pop	 ebp
  00084	c3		 ret	 0
?lssproto_SaMenu_send@@YAXHHHH@Z ENDP			; lssproto_SaMenu_send
_TEXT	ENDS
; Function compile flags: /Ogtp
; File C:\Users\gg862\OneDrive\πŸ≈¡ »≠∏È\∏æƒÌøœ∑·\Client Source Code1.31¿œ∫ª\NewProto\protocol.cpp
;	COMDAT ?SaDispatchMessage@@YAHHPAD@Z
_TEXT	SEGMENT
_fieldcount$ = -98352					; size = 4
_fl$1 = -98348						; size = 4
_y2$2 = -98348						; size = 4
_y$3 = -98348						; size = 4
_fl$4 = -98344						; size = 4
_dir$5 = -98344						; size = 4
_dir$6 = -98344						; size = 4
_iCharaindex$7 = -98340					; size = 4
_x$8 = -98340						; size = 4
_windowtype$9 = -98340					; size = 4
_result$10 = -98340					; size = 4
_x1$11 = -98340						; size = 4
_tilesum$12 = -98340					; size = 4
_x$13 = -98340						; size = 4
_x2$14 = -98336						; size = 4
_no$15 = -98336						; size = 4
_color$16 = -98336					; size = 4
_toindex$17 = -98336					; size = 4
_field$18 = -98336					; size = 4
_result$19 = -98336					; size = 4
_x$20 = -98336						; size = 4
_y1$21 = -98332						; size = 4
_flg$22 = -98332					; size = 4
_aindex$23 = -98332					; size = 4
_fromindex$24 = -98332					; size = 4
_result$25 = -98332					; size = 4
_seqno$26 = -98332					; size = 4
_y$27 = -98332						; size = 4
_iType$28 = -98328					; size = 4
_y$29 = -98328						; size = 4
_buttontype$30 = -98328					; size = 4
_havepetindex$31 = -98328				; size = 4
_category$32 = -98328					; size = 4
_y1$33 = -98328						; size = 4
_objsum$34 = -98328					; size = 4
_index$35 = -98328					; size = 4
_graphicsno$36 = -98328					; size = 4
_coloer$ = -98324					; size = 4
_iActionNum$37 = -98324					; size = 4
_help$38 = -98324					; size = 4
_x$39 = -98324						; size = 4
_logincount$40 = -98324					; size = 4
_senumber$41 = -98324					; size = 4
_effect$42 = -98324					; size = 4
_seqno$43 = -98324					; size = 4
_havepetskill$44 = -98324				; size = 4
_petarray$45 = -98324					; size = 4
_standbypet$46 = -98324					; size = 4
_petarray$47 = -98324					; size = 4
_request$48 = -98324					; size = 4
_dx$49 = -98324						; size = 4
_x2$50 = -98324						; size = 4
_eventsum$51 = -98324					; size = 4
_color$52 = -98324					; size = 4
_num$53 = -98324					; size = 4
_objindex$54 = -98324					; size = 4
_prizeindex$ = -98320					; size = 4
_num$ = -98320						; size = 4
_hostnametamp$55 = -98320				; size = 4
_iChecksumrecv$56 = -98320				; size = 4
_effect$57 = -98320					; size = 4
_escp$58 = -98320					; size = 4
_flg$59 = -98320					; size = 4
_y$60 = -98320						; size = 4
_AddCount$61 = -98320					; size = 4
_player$62 = -98320					; size = 4
_sw$63 = -98320						; size = 4
_level$64 = -98320					; size = 4
_objindex$65 = -98320					; size = 4
_point$66 = -98320					; size = 4
_toindex$67 = -98320					; size = 4
_result$68 = -98320					; size = 4
_result$69 = -98320					; size = 4
_result$70 = -98320					; size = 4
_result$71 = -98320					; size = 4
_flg$72 = -98320					; size = 4
_flg$73 = -98320					; size = 4
_dy$74 = -98320						; size = 4
_y2$75 = -98320						; size = 4
_x1$76 = -98320						; size = 4
_func$ = -98316						; size = 4
_iChecksumrecv$ = -98312				; size = 4
_data$ = -98308						; size = 65536
_data$ = -98308						; size = 65536
_data$77 = -49156					; size = 16384
_data$78 = -49156					; size = 16384
_data$79 = -49156					; size = 16384
_data$80 = -49156					; size = 16384
_data$81 = -49156					; size = 16384
_data$82 = -49156					; size = 16384
_data$83 = -49156					; size = 16384
_data$84 = -49156					; size = 16384
_data$85 = -49156					; size = 16384
_data$86 = -49156					; size = 16384
_data$87 = -49156					; size = 16384
_data$88 = -49156					; size = 16384
_test$89 = -49156					; size = 16384
_data$90 = -49156					; size = 16384
_data$91 = -49156					; size = 16384
_data$92 = -49156					; size = 16384
_data$93 = -49156					; size = 16384
_data$94 = -49156					; size = 16384
_result$95 = -49156					; size = 16384
_raw$ = -32772						; size = 16384
_result$96 = -16388					; size = 16384
_result$97 = -16388					; size = 16384
_result$98 = -16388					; size = 16384
_result$99 = -16388					; size = 16384
_data$100 = -16388					; size = 16384
_result$101 = -16388					; size = 16384
_option$102 = -16388					; size = 16384
_data$103 = -16388					; size = 16384
_data$104 = -16388					; size = 16384
_data$105 = -16388					; size = 16384
_data$106 = -16388					; size = 16384
_data$107 = -16388					; size = 16384
_data$108 = -16388					; size = 16384
_data$109 = -16388					; size = 16384
_data$110 = -16388					; size = 16384
_data$111 = -16388					; size = 16384
_message$112 = -16388					; size = 16384
_data$113 = -16388					; size = 16384
_data$114 = -16388					; size = 16384
_cdata$115 = -16388					; size = 16384
_text$116 = -16388					; size = 16384
_data$117 = -16388					; size = 16384
_command$118 = -16388					; size = 16384
_data$119 = -16388					; size = 16384
_data$120 = -16388					; size = 16384
_data$ = -516						; size = 512
_data$ = -516						; size = 512
__$ArrayPad$ = -4					; size = 4
_fd$ = 8						; size = 4
_encoded$ = 12						; size = 4
?SaDispatchMessage@@YAHHPAD@Z PROC			; SaDispatchMessage, COMDAT

; 53   : {

  00000	55		 push	 ebp
  00001	8b ec		 mov	 ebp, esp
  00003	b8 30 80 01 00	 mov	 eax, 98352		; 00018030H
  00008	e8 00 00 00 00	 call	 __chkstk
  0000d	a1 00 00 00 00	 mov	 eax, DWORD PTR ___security_cookie
  00012	33 c5		 xor	 eax, ebp
  00014	89 45 fc	 mov	 DWORD PTR __$ArrayPad$[ebp], eax
  00017	8b 45 0c	 mov	 eax, DWORD PTR _encoded$[ebp]
  0001a	56		 push	 esi

; 54   : 	int		func,fieldcount;
; 55   : 	int		iChecksum = 0, iChecksumrecv;
; 56   : 	char	raw[16384];
; 57   : 
; 58   : 	util_DecodeMessage(raw,encoded);

  0001b	50		 push	 eax
  0001c	8d 85 fc 7f ff
	ff		 lea	 eax, DWORD PTR _raw$[ebp]
  00022	50		 push	 eax
  00023	e8 00 00 00 00	 call	 ?util_DecodeMessage@@YAXPAD0@Z ; util_DecodeMessage

; 59   : #ifdef _LOG_MSG
; 60   : 	FILE *fp = fopen( "recvtime.txt", "a+" );
; 61   : 	if( fp ) fprintf( fp, "%u RECV %d  %s\n", TimeGetTime(), strlen(raw), raw);
; 62   : 	if( fp ) fclose( fp );
; 63   : #endif	
; 64   : 
; 65   : 	util_SplitMessage(raw,SEPARATOR);

  00028	8d 85 fc 7f ff
	ff		 lea	 eax, DWORD PTR _raw$[ebp]
  0002e	68 00 00 00 00	 push	 OFFSET ??_C@_01ICJEACDI@?$DL@
  00033	50		 push	 eax
  00034	e8 00 00 00 00	 call	 ?util_SplitMessage@@YAXPAD0@Z ; util_SplitMessage

; 66   : 	if (util_GetFunctionFromSlice(&func, &fieldcount)){

  00039	8d 85 d0 7f fe
	ff		 lea	 eax, DWORD PTR _fieldcount$[ebp]
  0003f	50		 push	 eax
  00040	8d 85 f4 7f fe
	ff		 lea	 eax, DWORD PTR _func$[ebp]
  00046	50		 push	 eax
  00047	e8 00 00 00 00	 call	 ?util_GetFunctionFromSlice@@YAHPAH0@Z ; util_GetFunctionFromSlice
  0004c	83 c4 18	 add	 esp, 24			; 00000018H
  0004f	85 c0		 test	 eax, eax
  00051	0f 84 10 18 00
	00		 je	 $LN2@SaDispatch

; 67   : 
; 68   : #ifdef _LOG_MSG
; 69   : 		FILE *fp=fopen("recvtime.txt","a+");
; 70   : 		if( fp ) fprintf( fp, "%u DISPATCH  func: %d\n", TimeGetTime(), func );
; 71   : 		if( fp ) fclose( fp );
; 72   : #endif		
; 73   : 
; 74   : 		//JL 2016.8.23
; 75   : 		JL_resetRecv();

  00057	e8 00 00 00 00	 call	 ?JL_resetRecv@@YAXXZ	; JL_resetRecv

; 76   : 
; 77   : 	if (func==LSSPROTO_XYD_RECV) {

  0005c	8b 85 f4 7f fe
	ff		 mov	 eax, DWORD PTR _func$[ebp]
  00062	83 f8 02	 cmp	 eax, 2
  00065	0f 85 89 00 00
	00		 jne	 $LN3@SaDispatch

; 78   : 		int x;
; 79   : 		int y;
; 80   : 		int dir;
; 81   : 
; 82   : 		iChecksum += util_deint(2, &x);

  0006b	8d 85 e0 7f fe
	ff		 lea	 eax, DWORD PTR _x$20[ebp]
  00071	50		 push	 eax
  00072	6a 02		 push	 2
  00074	e8 00 00 00 00	 call	 ?util_deint@@YAHHPAH@Z	; util_deint
  00079	8b f0		 mov	 esi, eax

; 83   : 		iChecksum += util_deint(3, &y);

  0007b	8d 85 e4 7f fe
	ff		 lea	 eax, DWORD PTR _y$27[ebp]
  00081	50		 push	 eax
  00082	6a 03		 push	 3
  00084	e8 00 00 00 00	 call	 ?util_deint@@YAHHPAH@Z	; util_deint
  00089	03 f0		 add	 esi, eax

; 84   : 		iChecksum += util_deint(4, &dir);

  0008b	8d 85 d8 7f fe
	ff		 lea	 eax, DWORD PTR _dir$6[ebp]
  00091	50		 push	 eax
  00092	6a 04		 push	 4
  00094	e8 00 00 00 00	 call	 ?util_deint@@YAHHPAH@Z	; util_deint
  00099	03 f0		 add	 esi, eax

; 85   : 		util_deint(5, &iChecksumrecv);

  0009b	8d 85 f8 7f fe
	ff		 lea	 eax, DWORD PTR _iChecksumrecv$[ebp]
  000a1	50		 push	 eax
  000a2	6a 05		 push	 5
  000a4	e8 00 00 00 00	 call	 ?util_deint@@YAHHPAH@Z	; util_deint
  000a9	83 c4 20	 add	 esp, 32			; 00000020H

; 86   : 		if (iChecksum != iChecksumrecv) {

  000ac	3b b5 f8 7f fe
	ff		 cmp	 esi, DWORD PTR _iChecksumrecv$[ebp]
  000b2	0f 85 a5 17 00
	00		 jne	 $LN195@SaDispatch

; 87   : 			SliceCount=0;
; 88   : 			return 0;
; 89   : 		}
; 90   : 		lssproto_XYD_recv(fd, x, y, dir);

  000b8	ff b5 d8 7f fe
	ff		 push	 DWORD PTR _dir$6[ebp]
  000be	ff b5 e4 7f fe
	ff		 push	 DWORD PTR _y$27[ebp]
  000c4	ff b5 e0 7f fe
	ff		 push	 DWORD PTR _x$20[ebp]
  000ca	ff 75 08	 push	 DWORD PTR _fd$[ebp]
  000cd	e8 00 00 00 00	 call	 ?lssproto_XYD_recv@@YAXHHHH@Z ; lssproto_XYD_recv
$LN200@SaDispatch:

; 1251 : 	}
; 1252 : 
; 1253 : #ifdef _PK2007
; 1254 : 	else if( func == LSSPROTO_PKLIST_RECV )
; 1255 : 	{
; 1256 : 		int count;
; 1257 : 		char data[16384];
; 1258 : 		iChecksum += util_deint(2, &count);
; 1259 : 		iChecksum += util_destring(3, data);
; 1260 : 		util_deint(4, &iChecksumrecv);
; 1261 : 		if (iChecksum!=iChecksumrecv) {
; 1262 : 			SliceCount=0;
; 1263 : 			return 0;
; 1264 : 		}
; 1265 : 		lssproto_pkList_recv(fd, count, data);
; 1266 : 		SliceCount=0;
; 1267 : 		return func;
; 1268 : 	}
; 1269 : #endif
; 1270 : 	SliceCount=0;
; 1271 : 	}
; 1272 : 	return 0;
; 1273 : }

  000d2	83 c4 10	 add	 esp, 16			; 00000010H
$LN201@SaDispatch:
  000d5	8b 85 f4 7f fe
	ff		 mov	 eax, DWORD PTR _func$[ebp]
  000db	c7 05 00 00 00
	00 00 00 00 00	 mov	 DWORD PTR ?SliceCount@@3HA, 0 ; SliceCount
  000e5	5e		 pop	 esi
  000e6	8b 4d fc	 mov	 ecx, DWORD PTR __$ArrayPad$[ebp]
  000e9	33 cd		 xor	 ecx, ebp
  000eb	e8 00 00 00 00	 call	 @__security_check_cookie@4
  000f0	8b e5		 mov	 esp, ebp
  000f2	5d		 pop	 ebp
  000f3	c3		 ret	 0
$LN3@SaDispatch:

; 91   : #ifdef _NB_FUNRECV_DEBUG
; 92   : 		printf("\nÊé•Êî∂[%d]fun:%s|x:%d|y:%d|dir:%d",func,"LSSPROTO_XYD_RECV",x,y,dir);
; 93   : #endif
; 94   : 		SliceCount=0;
; 95   : 		return func;
; 96   : 	}
; 97   : 	else if (func==LSSPROTO_EV_RECV)

  000f4	83 f8 04	 cmp	 eax, 4
  000f7	75 73		 jne	 SHORT $LN6@SaDispatch

; 98   : 	{
; 99   : 		int seqno;
; 100  : 		int result;
; 101  : 
; 102  : 		iChecksum += util_deint(2, &seqno);

  000f9	8d 85 e4 7f fe
	ff		 lea	 eax, DWORD PTR _seqno$26[ebp]
  000ff	50		 push	 eax
  00100	6a 02		 push	 2
  00102	e8 00 00 00 00	 call	 ?util_deint@@YAHHPAH@Z	; util_deint
  00107	8b f0		 mov	 esi, eax

; 103  : 		iChecksum += util_deint(3, &result);

  00109	8d 85 e0 7f fe
	ff		 lea	 eax, DWORD PTR _result$19[ebp]
  0010f	50		 push	 eax
  00110	6a 03		 push	 3
  00112	e8 00 00 00 00	 call	 ?util_deint@@YAHHPAH@Z	; util_deint
  00117	03 f0		 add	 esi, eax

; 104  : 		util_deint(4, &iChecksumrecv);

  00119	8d 85 f8 7f fe
	ff		 lea	 eax, DWORD PTR _iChecksumrecv$[ebp]
  0011f	50		 push	 eax
  00120	6a 04		 push	 4
  00122	e8 00 00 00 00	 call	 ?util_deint@@YAHHPAH@Z	; util_deint
  00127	83 c4 18	 add	 esp, 24			; 00000018H

; 105  : 		if (iChecksum!=iChecksumrecv) {

  0012a	3b b5 f8 7f fe
	ff		 cmp	 esi, DWORD PTR _iChecksumrecv$[ebp]
  00130	0f 85 27 17 00
	00		 jne	 $LN195@SaDispatch

; 106  : 			SliceCount=0;
; 107  : 			return 0;
; 108  : 		}
; 109  : 		lssproto_EV_recv(fd, seqno, result);

  00136	ff b5 e0 7f fe
	ff		 push	 DWORD PTR _result$19[ebp]
  0013c	ff b5 e4 7f fe
	ff		 push	 DWORD PTR _seqno$26[ebp]
  00142	ff 75 08	 push	 DWORD PTR _fd$[ebp]
  00145	e8 00 00 00 00	 call	 ?lssproto_EV_recv@@YAXHHH@Z ; lssproto_EV_recv
$LN202@SaDispatch:

; 1251 : 	}
; 1252 : 
; 1253 : #ifdef _PK2007
; 1254 : 	else if( func == LSSPROTO_PKLIST_RECV )
; 1255 : 	{
; 1256 : 		int count;
; 1257 : 		char data[16384];
; 1258 : 		iChecksum += util_deint(2, &count);
; 1259 : 		iChecksum += util_destring(3, data);
; 1260 : 		util_deint(4, &iChecksumrecv);
; 1261 : 		if (iChecksum!=iChecksumrecv) {
; 1262 : 			SliceCount=0;
; 1263 : 			return 0;
; 1264 : 		}
; 1265 : 		lssproto_pkList_recv(fd, count, data);
; 1266 : 		SliceCount=0;
; 1267 : 		return func;
; 1268 : 	}
; 1269 : #endif
; 1270 : 	SliceCount=0;
; 1271 : 	}
; 1272 : 	return 0;
; 1273 : }

  0014a	83 c4 0c	 add	 esp, 12			; 0000000cH
$LN203@SaDispatch:
  0014d	8b 85 f4 7f fe
	ff		 mov	 eax, DWORD PTR _func$[ebp]
  00153	c7 05 00 00 00
	00 00 00 00 00	 mov	 DWORD PTR ?SliceCount@@3HA, 0 ; SliceCount
  0015d	5e		 pop	 esi
  0015e	8b 4d fc	 mov	 ecx, DWORD PTR __$ArrayPad$[ebp]
  00161	33 cd		 xor	 ecx, ebp
  00163	e8 00 00 00 00	 call	 @__security_check_cookie@4
  00168	8b e5		 mov	 esp, ebp
  0016a	5d		 pop	 ebp
  0016b	c3		 ret	 0
$LN6@SaDispatch:

; 110  : #ifdef _NB_FUNRECV_DEBUG
; 111  : 		printf("\nÊé•Êî∂[%d]fun:%s|seqno:%d|result:%d",func,"LSSPROTO_EV_RECV",seqno,result);
; 112  : #endif
; 113  : 		SliceCount=0;
; 114  : 		return func;
; 115  : 	}
; 116  : 	else if (func==LSSPROTO_EN_RECV)	//JL 7Âè∑ÂåÖ  ÊàòÊñóÂåÖ

  0016c	83 f8 07	 cmp	 eax, 7
  0016f	75 53		 jne	 SHORT $LN9@SaDispatch

; 117  : 	{
; 118  : 		int result;
; 119  : 		int field;
; 120  : 
; 121  : 		iChecksum += util_deint(2, &result);

  00171	8d 85 e4 7f fe
	ff		 lea	 eax, DWORD PTR _result$25[ebp]
  00177	50		 push	 eax
  00178	6a 02		 push	 2
  0017a	e8 00 00 00 00	 call	 ?util_deint@@YAHHPAH@Z	; util_deint
  0017f	8b f0		 mov	 esi, eax

; 122  : 		iChecksum += util_deint(3, &field);

  00181	8d 85 e0 7f fe
	ff		 lea	 eax, DWORD PTR _field$18[ebp]
  00187	50		 push	 eax
  00188	6a 03		 push	 3
  0018a	e8 00 00 00 00	 call	 ?util_deint@@YAHHPAH@Z	; util_deint
  0018f	03 f0		 add	 esi, eax

; 123  : 		util_deint(4, &iChecksumrecv);

  00191	8d 85 f8 7f fe
	ff		 lea	 eax, DWORD PTR _iChecksumrecv$[ebp]
  00197	50		 push	 eax
  00198	6a 04		 push	 4
  0019a	e8 00 00 00 00	 call	 ?util_deint@@YAHHPAH@Z	; util_deint
  0019f	83 c4 18	 add	 esp, 24			; 00000018H

; 124  : 		if (iChecksum!=iChecksumrecv) {

  001a2	3b b5 f8 7f fe
	ff		 cmp	 esi, DWORD PTR _iChecksumrecv$[ebp]
  001a8	0f 85 af 16 00
	00		 jne	 $LN195@SaDispatch

; 125  : 			SliceCount=0;
; 126  : 			return 0;
; 127  : 		}
; 128  : 		lssproto_EN_recv(fd, result, field);

  001ae	ff b5 e0 7f fe
	ff		 push	 DWORD PTR _field$18[ebp]
  001b4	ff b5 e4 7f fe
	ff		 push	 DWORD PTR _result$25[ebp]
  001ba	ff 75 08	 push	 DWORD PTR _fd$[ebp]
  001bd	e8 00 00 00 00	 call	 ?lssproto_EN_recv@@YAXHHH@Z ; lssproto_EN_recv

; 129  : #ifdef _NB_FUNRECV_DEBUG
; 130  : 		printf("\nÊé•Êî∂[%d]fun:%s|result:%d|field:%d",func,"LSSPROTO_EN_RECV",result,field);
; 131  : #endif
; 132  : 		SliceCount=0;
; 133  : 		return func;

  001c2	eb 86		 jmp	 SHORT $LN202@SaDispatch
$LN9@SaDispatch:

; 134  : 	}
; 135  : 	else if (func==LSSPROTO_RS_RECV)

  001c4	83 f8 0c	 cmp	 eax, 12			; 0000000cH
  001c7	75 44		 jne	 SHORT $LN12@SaDispatch

; 136  : 	{
; 137  : 		char data[16384];
; 138  : 
; 139  : 		iChecksum += util_destring(2, data);

  001c9	8d 85 fc bf ff
	ff		 lea	 eax, DWORD PTR _data$120[ebp]
  001cf	50		 push	 eax
  001d0	6a 02		 push	 2
  001d2	e8 00 00 00 00	 call	 ?util_destring@@YAHHPAD@Z ; util_destring
  001d7	8b f0		 mov	 esi, eax

