; Listing generated by Microsoft (R) Optimizing Compiler Version 19.29.30133.0 

	TITLE	\\VBOXSVR\_stoneage\repos\ssm-sacli\Release\Radar.obj
	.686P
	.XMM
	include listing.inc
	.model	flat

INCLUDELIB LIBCMT
INCLUDELIB OLDNAMES

PUBLIC	?Course_Tbl@@3PACA				; Course_Tbl
PUBLIC	?Distance_Tbl@@3PACA				; Distance_Tbl
_DATA	SEGMENT
?Course_Tbl@@3PACA DB 010H				; Course_Tbl
	DB	08H
	DB	08H
	DB	08H
	DB	08H
	DB	08H
	DB	08H
	DB	08H
	DB	08H
	DB	08H
	DB	08H
	DB	08H
	DB	08H
	DB	08H
	DB	08H
	DB	08H
	DB	08H
	DB	08H
	DB	08H
	DB	08H
	DB	08H
	DB	08H
	DB	08H
	DB	08H
	DB	08H
	DB	08H
	DB	08H
	DB	08H
	DB	08H
	DB	08H
	DB	08H
	DB	08H
	DB	08H
	DB	08H
	DB	08H
	DB	08H
	DB	08H
	DB	08H
	DB	08H
	DB	08H
	DB	08H
	DB	08H
	DB	08H
	DB	08H
	DB	08H
	DB	08H
	DB	08H
	DB	08H
	DB	08H
	DB	08H
	DB	08H
	DB	08H
	DB	08H
	DB	08H
	DB	08H
	DB	08H
	DB	08H
	DB	08H
	DB	08H
	DB	08H
	DB	08H
	DB	08H
	DB	08H
	DB	08H
	DB	010H
	DB	0cH
	DB	0aH
	DB	0aH
	DB	09H
	DB	09H
	DB	09H
	DB	09H
	DB	09H
	DB	09H
	DB	09H
	DB	08H
	DB	08H
	DB	08H
	DB	08H
	DB	08H
	DB	08H
	DB	08H
	DB	08H
	DB	08H
	DB	08H
	DB	08H
	DB	08H
	DB	08H
	DB	08H
	DB	08H
	DB	08H
	DB	08H
	DB	08H
	DB	08H
	DB	08H
	DB	08H
	DB	08H
	DB	08H
	DB	08H
	DB	08H
	DB	08H
	DB	08H
	DB	08H
	DB	08H
	DB	08H
	DB	08H
	DB	08H
	DB	08H
	DB	08H
	DB	08H
	DB	08H
	DB	08H
	DB	08H
	DB	08H
	DB	08H
	DB	08H
	DB	08H
	DB	08H
	DB	08H
	DB	08H
	DB	08H
	DB	08H
	DB	08H
	DB	08H
	DB	08H
	DB	08H
	DB	08H
	DB	08H
	DB	010H
	DB	0eH
	DB	0cH
	DB	0bH
	DB	0aH
	DB	0aH
	DB	0aH
	DB	09H
	DB	09H
	DB	09H
	DB	09H
	DB	09H
	DB	09H
	DB	09H
	DB	09H
	DB	09H
	DB	09H
	DB	09H
	DB	09H
	DB	09H
	DB	09H
	DB	08H
	DB	08H
	DB	08H
	DB	08H
	DB	08H
	DB	08H
	DB	08H
	DB	08H
	DB	08H
	DB	08H
	DB	08H
	DB	08H
	DB	08H
	DB	08H
	DB	08H
	DB	08H
	DB	08H
	DB	08H
	DB	08H
	DB	08H
	DB	08H
	DB	08H
	DB	08H
	DB	08H
	DB	08H
	DB	08H
	DB	08H
	DB	08H
	DB	08H
	DB	08H
	DB	08H
	DB	08H
	DB	08H
	DB	08H
	DB	08H
	DB	08H
	DB	08H
	DB	08H
	DB	08H
	DB	08H
	DB	08H
	DB	08H
	DB	08H
	DB	010H
	DB	0eH
	DB	0dH
	DB	0cH
	DB	0bH
	DB	0bH
	DB	0aH
	DB	0aH
	DB	0aH
	DB	0aH
	DB	09H
	DB	09H
	DB	09H
	DB	09H
	DB	09H
	DB	09H
	DB	09H
	DB	09H
	DB	09H
	DB	09H
	DB	09H
	DB	09H
	DB	09H
	DB	09H
	DB	09H
	DB	09H
	DB	09H
	DB	09H
	DB	09H
	DB	09H
	DB	09H
	DB	08H
	DB	08H
	DB	08H
	DB	08H
	DB	08H
	DB	08H
	DB	08H
	DB	08H
	DB	08H
	DB	08H
	DB	08H
	DB	08H
	DB	08H
	DB	08H
	DB	08H
	DB	08H
	DB	08H
	DB	08H
	DB	08H
	DB	08H
	DB	08H
	DB	08H
	DB	08H
	DB	08H
	DB	08H
	DB	08H
	DB	08H
	DB	08H
	DB	08H
	DB	08H
	DB	08H
	DB	08H
	DB	08H
	DB	010H
	DB	0fH
	DB	0eH
	DB	0dH
	DB	0cH
	DB	0bH
	DB	0bH
	DB	0bH
	DB	0aH
	DB	0aH
	DB	0aH
	DB	0aH
	DB	0aH
	DB	0aH
	DB	09H
	DB	09H
	DB	09H
	DB	09H
	DB	09H
	DB	09H
	DB	09H
	DB	09H
	DB	09H
	DB	09H
	DB	09H
	DB	09H
	DB	09H
	DB	09H
	DB	09H
	DB	09H
	DB	09H
	DB	09H
	DB	09H
	DB	09H
	DB	09H
	DB	09H
	DB	09H
	DB	09H
	DB	09H
	DB	09H
	DB	09H
	DB	08H
	DB	08H
	DB	08H
	DB	08H
	DB	08H
	DB	08H
	DB	08H
	DB	08H
	DB	08H
	DB	08H
	DB	08H
	DB	08H
	DB	08H
	DB	08H
	DB	08H
	DB	08H
	DB	08H
	DB	08H
	DB	08H
	DB	08H
	DB	08H
	DB	08H
	DB	08H
	DB	010H
	DB	0fH
	DB	0eH
	DB	0dH
	DB	0dH
	DB	0cH
	DB	0cH
	DB	0bH
	DB	0bH
	DB	0bH
	DB	0aH
	DB	0aH
	DB	0aH
	DB	0aH
	DB	0aH
	DB	0aH
	DB	0aH
	DB	09H
	DB	09H
	DB	09H
	DB	09H
	DB	09H
	DB	09H
	DB	09H
	DB	09H
	DB	09H
	DB	09H
	DB	09H
	DB	09H
	DB	09H
	DB	09H
	DB	09H
	DB	09H
	DB	09H
	DB	09H
	DB	09H
	DB	09H
	DB	09H
	DB	09H
	DB	09H
	DB	09H
	DB	09H
	DB	09H
	DB	09H
	DB	09H
	DB	09H
	DB	09H
	DB	09H
	DB	09H
	DB	09H
	DB	09H
	DB	08H
	DB	08H
	DB	08H
	DB	08H
	DB	08H
	DB	08H
	DB	08H
	DB	08H
	DB	08H
	DB	08H
	DB	08H
	DB	08H
	DB	08H
	DB	010H
	DB	0fH
	DB	0eH
	DB	0eH
	DB	0dH
	DB	0cH
	DB	0cH
	DB	0cH
	DB	0bH
	DB	0bH
	DB	0bH
	DB	0bH
	DB	0aH
	DB	0aH
	DB	0aH
	DB	0aH
	DB	0aH
	DB	0aH
	DB	0aH
	DB	0aH
	DB	09H
	DB	09H
	DB	09H
	DB	09H
	DB	09H
	DB	09H
	DB	09H
	DB	09H
	DB	09H
	DB	09H
	DB	09H
	DB	09H
	DB	09H
	DB	09H
	DB	09H
	DB	09H
	DB	09H
	DB	09H
	DB	09H
	DB	09H
	DB	09H
	DB	09H
	DB	09H
	DB	09H
	DB	09H
	DB	09H
	DB	09H
	DB	09H
	DB	09H
	DB	09H
	DB	09H
	DB	09H
	DB	09H
	DB	09H
	DB	09H
	DB	09H
	DB	09H
	DB	09H
	DB	09H
	DB	09H
	DB	09H
	DB	08H
	DB	08H
	DB	08H
	DB	010H
	DB	0fH
	DB	0fH
	DB	0eH
	DB	0dH
	DB	0dH
	DB	0cH
	DB	0cH
	DB	0cH
	DB	0bH
	DB	0bH
	DB	0bH
	DB	0bH
	DB	0bH
	DB	0aH
	DB	0aH
	DB	0aH
	DB	0aH
	DB	0aH
	DB	0aH
	DB	0aH
	DB	0aH
	DB	0aH
	DB	0aH
	DB	09H
	DB	09H
	DB	09H
	DB	09H
	DB	09H
	DB	09H
	DB	09H
	DB	09H
	DB	09H
	DB	09H
	DB	09H
	DB	09H
	DB	09H
	DB	09H
	DB	09H
	DB	09H
	DB	09H
	DB	09H
	DB	09H
	DB	09H
	DB	09H
	DB	09H
	DB	09H
	DB	09H
	DB	09H
	DB	09H
	DB	09H
	DB	09H
	DB	09H
	DB	09H
	DB	09H
	DB	09H
	DB	09H
	DB	09H
	DB	09H
	DB	09H
	DB	09H
	DB	09H
	DB	09H
	DB	09H
	DB	010H
	DB	0fH
	DB	0fH
	DB	0eH
	DB	0eH
	DB	0dH
	DB	0dH
	DB	0cH
	DB	0cH
	DB	0cH
	DB	0bH
	DB	0bH
	DB	0bH
	DB	0bH
	DB	0bH
	DB	0aH
	DB	0aH
	DB	0aH
	DB	0aH
	DB	0aH
	DB	0aH
	DB	0aH
	DB	0aH
	DB	0aH
	DB	0aH
	DB	0aH
	DB	0aH
	DB	09H
	DB	09H
	DB	09H
	DB	09H
	DB	09H
	DB	09H
	DB	09H
	DB	09H
	DB	09H
	DB	09H
	DB	09H
	DB	09H
	DB	09H
	DB	09H
	DB	09H
	DB	09H
	DB	09H
	DB	09H
	DB	09H
	DB	09H
	DB	09H
	DB	09H
	DB	09H
	DB	09H
	DB	09H
	DB	09H
	DB	09H
	DB	09H
	DB	09H
	DB	09H
	DB	09H
	DB	09H
	DB	09H
	DB	09H
	DB	09H
	DB	09H
	DB	09H
	DB	010H
	DB	0fH
	DB	0fH
	DB	0eH
	DB	0eH
	DB	0dH
	DB	0dH
	DB	0dH
	DB	0cH
	DB	0cH
	DB	0cH
	DB	0bH
	DB	0bH
	DB	0bH
	DB	0bH
	DB	0bH
	DB	0bH
	DB	0aH
	DB	0aH
	DB	0aH
	DB	0aH
	DB	0aH
	DB	0aH
	DB	0aH
	DB	0aH
	DB	0aH
	DB	0aH
	DB	0aH
	DB	0aH
	DB	0aH
	DB	09H
	DB	09H
	DB	09H
	DB	09H
	DB	09H
	DB	09H
	DB	09H
	DB	09H
	DB	09H
	DB	09H
	DB	09H
	DB	09H
	DB	09H
	DB	09H
	DB	09H
	DB	09H
	DB	09H
	DB	09H
	DB	09H
	DB	09H
	DB	09H
	DB	09H
	DB	09H
	DB	09H
	DB	09H
	DB	09H
	DB	09H
	DB	09H
	DB	09H
	DB	09H
	DB	09H
	DB	09H
	DB	09H
	DB	09H
	DB	010H
	DB	0fH
	DB	0fH
	DB	0fH
	DB	0eH
	DB	0eH
	DB	0dH
	DB	0dH
	DB	0dH
	DB	0cH
	DB	0cH
	DB	0cH
	DB	0cH
	DB	0bH
	DB	0bH
	DB	0bH
	DB	0bH
	DB	0bH
	DB	0bH
	DB	0aH
	DB	0aH
	DB	0aH
	DB	0aH
	DB	0aH
	DB	0aH
	DB	0aH
	DB	0aH
	DB	0aH
	DB	0aH
	DB	0aH
	DB	0aH
	DB	0aH
	DB	0aH
	DB	09H
	DB	09H
	DB	09H
	DB	09H
	DB	09H
	DB	09H
	DB	09H
	DB	09H
	DB	09H
	DB	09H
	DB	09H
	DB	09H
	DB	09H
	DB	09H
	DB	09H
	DB	09H
	DB	09H
	DB	09H
	DB	09H
	DB	09H
	DB	09H
	DB	09H
	DB	09H
	DB	09H
	DB	09H
	DB	09H
	DB	09H
	DB	09H
	DB	09H
	DB	09H
	DB	09H
	DB	010H
	DB	010H
	DB	0fH
	DB	0fH
	DB	0eH
	DB	0eH
	DB	0dH
	DB	0dH
	DB	0dH
	DB	0dH
	DB	0cH
	DB	0cH
	DB	0cH
	DB	0cH
	DB	0bH
	DB	0bH
	DB	0bH
	DB	0bH
	DB	0bH
	DB	0bH
	DB	0bH
	DB	0aH
	DB	0aH
	DB	0aH
	DB	0aH
	DB	0aH
	DB	0aH
	DB	0aH
	DB	0aH
	DB	0aH
	DB	0aH
	DB	0aH
	DB	0aH
	DB	0aH
	DB	0aH
	DB	0aH
	DB	0aH
	DB	09H
	DB	09H
	DB	09H
	DB	09H
	DB	09H
	DB	09H
	DB	09H
	DB	09H
	DB	09H
	DB	09H
	DB	09H
	DB	09H
	DB	09H
	DB	09H
	DB	09H
	DB	09H
	DB	09H
	DB	09H
	DB	09H
	DB	09H
	DB	09H
	DB	09H
	DB	09H
	DB	09H
	DB	09H
	DB	09H
	DB	09H
	DB	010H
	DB	010H
	DB	0fH
	DB	0fH
	DB	0eH
	DB	0eH
	DB	0eH
	DB	0dH
	DB	0dH
	DB	0dH
	DB	0cH
	DB	0cH
	DB	0cH
	DB	0cH
	DB	0cH
	DB	0bH
	DB	0bH
	DB	0bH
	DB	0bH
	DB	0bH
	DB	0bH
	DB	0bH
	DB	0bH
	DB	0aH
	DB	0aH
	DB	0aH
	DB	0aH
	DB	0aH
	DB	0aH
	DB	0aH
	DB	0aH
	DB	0aH
	DB	0aH
	DB	0aH
	DB	0aH
	DB	0aH
	DB	0aH
	DB	0aH
	DB	0aH
	DB	0aH
	DB	09H
	DB	09H
	DB	09H
	DB	09H
	DB	09H
	DB	09H
	DB	09H
	DB	09H
	DB	09H
	DB	09H
	DB	09H
	DB	09H
	DB	09H
	DB	09H
	DB	09H
	DB	09H
	DB	09H
	DB	09H
	DB	09H
	DB	09H
	DB	09H
	DB	09H
	DB	09H
	DB	09H
	DB	010H
	DB	010H
	DB	0fH
	DB	0fH
	DB	0eH
	DB	0eH
	DB	0eH
	DB	0dH
	DB	0dH
	DB	0dH
	DB	0dH
	DB	0cH
	DB	0cH
	DB	0cH
	DB	0cH
	DB	0cH
	DB	0bH
	DB	0bH
	DB	0bH
	DB	0bH
	DB	0bH
	DB	0bH
	DB	0bH
	DB	0bH
	DB	0bH
	DB	0aH
	DB	0aH
	DB	0aH
	DB	0aH
	DB	0aH
	DB	0aH
	DB	0aH
	DB	0aH
	DB	0aH
	DB	0aH
	DB	0aH
	DB	0aH
	DB	0aH
	DB	0aH
	DB	0aH
	DB	0aH
	DB	0aH
	DB	0aH
	DB	09H
	DB	09H
	DB	09H
	DB	09H
	DB	09H
	DB	09H
	DB	09H
	DB	09H
	DB	09H
	DB	09H
	DB	09H
	DB	09H
	DB	09H
	DB	09H
	DB	09H
	DB	09H
	DB	09H
	DB	09H
	DB	09H
	DB	09H
	DB	09H
	DB	010H
	DB	010H
	DB	0fH
	DB	0fH
	DB	0fH
	DB	0eH
	DB	0eH
	DB	0eH
	DB	0dH
	DB	0dH
	DB	0dH
	DB	0dH
	DB	0cH
	DB	0cH
	DB	0cH
	DB	0cH
	DB	0cH
	DB	0cH
	DB	0bH
	DB	0bH
	DB	0bH
	DB	0bH
	DB	0bH
	DB	0bH
	DB	0bH
	DB	0bH
	DB	0bH
	DB	0aH
	DB	0aH
	DB	0aH
	DB	0aH
	DB	0aH
	DB	0aH
	DB	0aH
	DB	0aH
	DB	0aH
	DB	0aH
	DB	0aH
	DB	0aH
	DB	0aH
	DB	0aH
	DB	0aH
	DB	0aH
	DB	0aH
	DB	0aH
	DB	0aH
	DB	0aH
	DB	09H
	DB	09H
	DB	09H
	DB	09H
	DB	09H
	DB	09H
	DB	09H
	DB	09H
	DB	09H
	DB	09H
	DB	09H
	DB	09H
	DB	09H
	DB	09H
	DB	09H
	DB	09H
	DB	09H
	DB	010H
	DB	010H
	DB	0fH
	DB	0fH
	DB	0fH
	DB	0eH
	DB	0eH
	DB	0eH
	DB	0eH
	DB	0dH
	DB	0dH
	DB	0dH
	DB	0dH
	DB	0cH
	DB	0cH
	DB	0cH
	DB	0cH
	DB	0cH
	DB	0cH
	DB	0bH
	DB	0bH
	DB	0bH
	DB	0bH
	DB	0bH
	DB	0bH
	DB	0bH
	DB	0bH
	DB	0bH
	DB	0bH
	DB	0aH
	DB	0aH
	DB	0aH
	DB	0aH
	DB	0aH
	DB	0aH
	DB	0aH
	DB	0aH
	DB	0aH
	DB	0aH
	DB	0aH
	DB	0aH
	DB	0aH
	DB	0aH
	DB	0aH
	DB	0aH
	DB	0aH
	DB	0aH
	DB	0aH
	DB	0aH
	DB	0aH
	DB	09H
	DB	09H
	DB	09H
	DB	09H
	DB	09H
	DB	09H
	DB	09H
	DB	09H
	DB	09H
	DB	09H
	DB	09H
	DB	09H
	DB	09H
	DB	09H
	DB	010H
	DB	010H
	DB	0fH
	DB	0fH
	DB	0fH
	DB	0eH
	DB	0eH
	DB	0eH
	DB	0eH
	DB	0dH
	DB	0dH
	DB	0dH
	DB	0dH
	DB	0dH
	DB	0cH
	DB	0cH
	DB	0cH
	DB	0cH
	DB	0cH
	DB	0cH
	DB	0bH
	DB	0bH
	DB	0bH
	DB	0bH
	DB	0bH
	DB	0bH
	DB	0bH
	DB	0bH
	DB	0bH
	DB	0bH
	DB	0aH
	DB	0aH
	DB	0aH
	DB	0aH
	DB	0aH
	DB	0aH
	DB	0aH
	DB	0aH
	DB	0aH
	DB	0aH
	DB	0aH
	DB	0aH
	DB	0aH
	DB	0aH
	DB	0aH
	DB	0aH
	DB	0aH
	DB	0aH
	DB	0aH
	DB	0aH
	DB	0aH
	DB	0aH
	DB	0aH
	DB	09H
	DB	09H
	DB	09H
	DB	09H
	DB	09H
	DB	09H
	DB	09H
	DB	09H
	DB	09H
	DB	09H
	DB	09H
	DB	010H
	DB	010H
	DB	0fH
	DB	0fH
	DB	0fH
	DB	0fH
	DB	0eH
	DB	0eH
	DB	0eH
	DB	0eH
	DB	0dH
	DB	0dH
	DB	0dH
	DB	0dH
	DB	0cH
	DB	0cH
	DB	0cH
	DB	0cH
	DB	0cH
	DB	0cH
	DB	0cH
	DB	0bH
	DB	0bH
	DB	0bH
	DB	0bH
	DB	0bH
	DB	0bH
	DB	0bH
	DB	0bH
	DB	0bH
	DB	0bH
	DB	0bH
	DB	0aH
	DB	0aH
	DB	0aH
	DB	0aH
	DB	0aH
	DB	0aH
	DB	0aH
	DB	0aH
	DB	0aH
	DB	0aH
	DB	0aH
	DB	0aH
	DB	0aH
	DB	0aH
	DB	0aH
	DB	0aH
	DB	0aH
	DB	0aH
	DB	0aH
	DB	0aH
	DB	0aH
	DB	0aH
	DB	0aH
	DB	0aH
	DB	0aH
	DB	09H
	DB	09H
	DB	09H
	DB	09H
	DB	09H
	DB	09H
	DB	09H
	DB	010H
	DB	010H
	DB	0fH
	DB	0fH
	DB	0fH
	DB	0fH
	DB	0eH
	DB	0eH
	DB	0eH
	DB	0eH
	DB	0dH
	DB	0dH
	DB	0dH
	DB	0dH
	DB	0dH
	DB	0cH
	DB	0cH
	DB	0cH
	DB	0cH
	DB	0cH
	DB	0cH
	DB	0cH
	DB	0bH
	DB	0bH
	DB	0bH
	DB	0bH
	DB	0bH
	DB	0bH
	DB	0bH
	DB	0bH
	DB	0bH
	DB	0bH
	DB	0bH
	DB	0bH
	DB	0aH
	DB	0aH
	DB	0aH
	DB	0aH
	DB	0aH
	DB	0aH
	DB	0aH
	DB	0aH
	DB	0aH
	DB	0aH
	DB	0aH
	DB	0aH
	DB	0aH
	DB	0aH
	DB	0aH
	DB	0aH
	DB	0aH
	DB	0aH
	DB	0aH
	DB	0aH
	DB	0aH
	DB	0aH
	DB	0aH
	DB	0aH
	DB	0aH
	DB	0aH
	DB	09H
	DB	09H
	DB	09H
	DB	09H
	DB	010H
	DB	010H
	DB	0fH
	DB	0fH
	DB	0fH
	DB	0fH
	DB	0eH
	DB	0eH
	DB	0eH
	DB	0eH
	DB	0eH
	DB	0dH
	DB	0dH
	DB	0dH
	DB	0dH
	DB	0dH
	DB	0cH
	DB	0cH
	DB	0cH
	DB	0cH
	DB	0cH
	DB	0cH
	DB	0cH
	DB	0cH
	DB	0bH
	DB	0bH
	DB	0bH
	DB	0bH
	DB	0bH
	DB	0bH
	DB	0bH
	DB	0bH
	DB	0bH
	DB	0bH
	DB	0bH
	DB	0bH
	DB	0aH
	DB	0aH
	DB	0aH
	DB	0aH
	DB	0aH
	DB	0aH
	DB	0aH
	DB	0aH
	DB	0aH
	DB	0aH
	DB	0aH
	DB	0aH
	DB	0aH
	DB	0aH
	DB	0aH
	DB	0aH
	DB	0aH
	DB	0aH
	DB	0aH
	DB	0aH
	DB	0aH
	DB	0aH
	DB	0aH
	DB	0aH
	DB	0aH
	DB	0aH
	DB	0aH
	DB	09H
	DB	010H
	DB	010H
	DB	0fH
	DB	0fH
	DB	0fH
	DB	0fH
	DB	0fH
	DB	0eH
	DB	0eH
	DB	0eH
	DB	0eH
	DB	0dH
	DB	0dH
	DB	0dH
	DB	0dH
	DB	0dH
	DB	0dH
	DB	0cH
	DB	0cH
	DB	0cH
	DB	0cH
	DB	0cH
	DB	0cH
	DB	0cH
	DB	0cH
	DB	0bH
	DB	0bH
	DB	0bH
	DB	0bH
	DB	0bH
	DB	0bH
	DB	0bH
	DB	0bH
	DB	0bH
	DB	0bH
	DB	0bH
	DB	0bH
	DB	0bH
	DB	0aH
	DB	0aH
	DB	0aH
	DB	0aH
	DB	0aH
	DB	0aH
	DB	0aH
	DB	0aH
	DB	0aH
	DB	0aH
	DB	0aH
	DB	0aH
	DB	0aH
	DB	0aH
	DB	0aH
	DB	0aH
	DB	0aH
	DB	0aH
	DB	0aH
	DB	0aH
	DB	0aH
	DB	0aH
	DB	0aH
	DB	0aH
	DB	0aH
	DB	0aH
	DB	010H
	DB	010H
	DB	010H
	DB	0fH
	DB	0fH
	DB	0fH
	DB	0fH
	DB	0eH
	DB	0eH
	DB	0eH
	DB	0eH
	DB	0eH
	DB	0dH
	DB	0dH
	DB	0dH
	DB	0dH
	DB	0dH
	DB	0dH
	DB	0cH
	DB	0cH
	DB	0cH
	DB	0cH
	DB	0cH
	DB	0cH
	DB	0cH
	DB	0cH
	DB	0bH
	DB	0bH
	DB	0bH
	DB	0bH
	DB	0bH
	DB	0bH
	DB	0bH
	DB	0bH
	DB	0bH
	DB	0bH
	DB	0bH
	DB	0bH
	DB	0bH
	DB	0bH
	DB	0aH
	DB	0aH
	DB	0aH
	DB	0aH
	DB	0aH
	DB	0aH
	DB	0aH
	DB	0aH
	DB	0aH
	DB	0aH
	DB	0aH
	DB	0aH
	DB	0aH
	DB	0aH
	DB	0aH
	DB	0aH
	DB	0aH
	DB	0aH
	DB	0aH
	DB	0aH
	DB	0aH
	DB	0aH
	DB	0aH
	DB	0aH
	DB	010H
	DB	010H
	DB	010H
	DB	0fH
	DB	0fH
	DB	0fH
	DB	0fH
	DB	0eH
	DB	0eH
	DB	0eH
	DB	0eH
	DB	0eH
	DB	0dH
	DB	0dH
	DB	0dH
	DB	0dH
	DB	0dH
	DB	0dH
	DB	0dH
	DB	0cH
	DB	0cH
	DB	0cH
	DB	0cH
	DB	0cH
	DB	0cH
	DB	0cH
	DB	0cH
	DB	0bH
	DB	0bH
	DB	0bH
	DB	0bH
	DB	0bH
	DB	0bH
	DB	0bH
	DB	0bH
	DB	0bH
	DB	0bH
	DB	0bH
	DB	0bH
	DB	0bH
	DB	0bH
	DB	0bH
	DB	0aH
	DB	0aH
	DB	0aH
	DB	0aH
	DB	0aH
	DB	0aH
	DB	0aH
	DB	0aH
	DB	0aH
	DB	0aH
	DB	0aH
	DB	0aH
	DB	0aH
	DB	0aH
	DB	0aH
	DB	0aH
	DB	0aH
	DB	0aH
	DB	0aH
	DB	0aH
	DB	0aH
	DB	0aH
	DB	010H
	DB	010H
	DB	010H
	DB	0fH
	DB	0fH
	DB	0fH
	DB	0fH
	DB	0eH
	DB	0eH
	DB	0eH
	DB	0eH
	DB	0eH
	DB	0eH
	DB	0dH
	DB	0dH
	DB	0dH
	DB	0dH
	DB	0dH
	DB	0dH
	DB	0cH
	DB	0cH
	DB	0cH
	DB	0cH
	DB	0cH
	DB	0cH
	DB	0cH
	DB	0cH
	DB	0cH
	DB	0cH
	DB	0bH
	DB	0bH
	DB	0bH
	DB	0bH
	DB	0bH
	DB	0bH
	DB	0bH
	DB	0bH
	DB	0bH
	DB	0bH
	DB	0bH
	DB	0bH
	DB	0bH
	DB	0bH
	DB	0bH
	DB	0aH
	DB	0aH
	DB	0aH
	DB	0aH
	DB	0aH
	DB	0aH
	DB	0aH
	DB	0aH
	DB	0aH
	DB	0aH
	DB	0aH
	DB	0aH
	DB	0aH
	DB	0aH
	DB	0aH
	DB	0aH
	DB	0aH
	DB	0aH
	DB	0aH
	DB	0aH
	DB	010H
	DB	010H
	DB	010H
	DB	0fH
	DB	0fH
	DB	0fH
	DB	0fH
	DB	0fH
	DB	0eH
	DB	0eH
	DB	0eH
	DB	0eH
	DB	0eH
	DB	0dH
	DB	0dH
	DB	0dH
	DB	0dH
	DB	0dH
	DB	0dH
	DB	0dH
	DB	0cH
	DB	0cH
	DB	0cH
	DB	0cH
	DB	0cH
	DB	0cH
	DB	0cH
	DB	0cH
	DB	0cH
	DB	0cH
	DB	0bH
	DB	0bH
	DB	0bH
	DB	0bH
	DB	0bH
	DB	0bH
	DB	0bH
	DB	0bH
	DB	0bH
	DB	0bH
	DB	0bH
	DB	0bH
	DB	0bH
	DB	0bH
	DB	0bH
	DB	0aH
	DB	0aH
	DB	0aH
	DB	0aH
	DB	0aH
	DB	0aH
	DB	0aH
	DB	0aH
	DB	0aH
	DB	0aH
	DB	0aH
	DB	0aH
	DB	0aH
	DB	0aH
	DB	0aH
	DB	0aH
	DB	0aH
	DB	0aH
	DB	0aH
	DB	010H
	DB	010H
	DB	010H
	DB	0fH
	DB	0fH
	DB	0fH
	DB	0fH
	DB	0fH
	DB	0eH
	DB	0eH
	DB	0eH
	DB	0eH
	DB	0eH
	DB	0eH
	DB	0dH
	DB	0dH
	DB	0dH
	DB	0dH
	DB	0dH
	DB	0dH
	DB	0dH
	DB	0cH
	DB	0cH
	DB	0cH
	DB	0cH
	DB	0cH
	DB	0cH
	DB	0cH
	DB	0cH
	DB	0cH
	DB	0cH
	DB	0bH
	DB	0bH
	DB	0bH
	DB	0bH
	DB	0bH
	DB	0bH
	DB	0bH
	DB	0bH
	DB	0bH
	DB	0bH
	DB	0bH
	DB	0bH
	DB	0bH
	DB	0bH
	DB	0bH
	DB	0bH
	DB	0aH
	DB	0aH
	DB	0aH
	DB	0aH
	DB	0aH
	DB	0aH
	DB	0aH
	DB	0aH
	DB	0aH
	DB	0aH
	DB	0aH
	DB	0aH
	DB	0aH
	DB	0aH
	DB	0aH
	DB	0aH
	DB	0aH
	DB	010H
	DB	010H
	DB	010H
	DB	0fH
	DB	0fH
	DB	0fH
	DB	0fH
	DB	0fH
	DB	0eH
	DB	0eH
	DB	0eH
	DB	0eH
	DB	0eH
	DB	0eH
	DB	0dH
	DB	0dH
	DB	0dH
	DB	0dH
	DB	0dH
	DB	0dH
	DB	0dH
	DB	0dH
	DB	0cH
	DB	0cH
	DB	0cH
	DB	0cH
	DB	0cH
	DB	0cH
	DB	0cH
	DB	0cH
	DB	0cH
	DB	0cH
	DB	0bH
	DB	0bH
	DB	0bH
	DB	0bH
	DB	0bH
	DB	0bH
	DB	0bH
	DB	0bH
	DB	0bH
	DB	0bH
	DB	0bH
	DB	0bH
	DB	0bH
	DB	0bH
	DB	0bH
	DB	0bH
	DB	0bH
	DB	0aH
	DB	0aH
	DB	0aH
	DB	0aH
	DB	0aH
	DB	0aH
	DB	0aH
	DB	0aH
	DB	0aH
	DB	0aH
	DB	0aH
	DB	0aH
	DB	0aH
	DB	0aH
	DB	0aH
	DB	010H
	DB	010H
	DB	010H
	DB	0fH
	DB	0fH
	DB	0fH
	DB	0fH
	DB	0fH
	DB	0fH
	DB	0eH
	DB	0eH
	DB	0eH
	DB	0eH
	DB	0eH
	DB	0eH
	DB	0dH
	DB	0dH
	DB	0dH
	DB	0dH
	DB	0dH
	DB	0dH
	DB	0dH
	DB	0dH
	DB	0cH
	DB	0cH
	DB	0cH
	DB	0cH
	DB	0cH
	DB	0cH
	DB	0cH
	DB	0cH
	DB	0cH
	DB	0cH
	DB	0bH
	DB	0bH
	DB	0bH
	DB	0bH
	DB	0bH
	DB	0bH
	DB	0bH
	DB	0bH
	DB	0bH
	DB	0bH
	DB	0bH
	DB	0bH
	DB	0bH
	DB	0bH
	DB	0bH
	DB	0bH
	DB	0bH
	DB	0bH
	DB	0aH
	DB	0aH
	DB	0aH
	DB	0aH
	DB	0aH
	DB	0aH
	DB	0aH
	DB	0aH
	DB	0aH
	DB	0aH
	DB	0aH
	DB	0aH
	DB	0aH
	DB	010H
	DB	010H
	DB	010H
	DB	0fH
	DB	0fH
	DB	0fH
	DB	0fH
	DB	0fH
	DB	0fH
	DB	0eH
	DB	0eH
	DB	0eH
	DB	0eH
	DB	0eH
	DB	0eH
	DB	0dH
	DB	0dH
	DB	0dH
	DB	0dH
	DB	0dH
	DB	0dH
	DB	0dH
	DB	0dH
	DB	0cH
	DB	0cH
	DB	0cH
	DB	0cH
	DB	0cH
	DB	0cH
	DB	0cH
	DB	0cH
	DB	0cH
	DB	0cH
	DB	0cH
	DB	0cH
	DB	0bH
	DB	0bH
	DB	0bH
	DB	0bH
	DB	0bH
	DB	0bH
	DB	0bH
	DB	0bH
	DB	0bH
	DB	0bH
	DB	0bH
	DB	0bH
	DB	0bH
	DB	0bH
	DB	0bH
	DB	0bH
	DB	0bH
	DB	0bH
	DB	0aH
	DB	0aH
	DB	0aH
	DB	0aH
	DB	0aH
	DB	0aH
	DB	0aH
	DB	0aH
	DB	0aH
	DB	0aH
	DB	0aH
	DB	010H
	DB	010H
	DB	010H
	DB	0fH
	DB	0fH
	DB	0fH
	DB	0fH
	DB	0fH
	DB	0fH
	DB	0eH
	DB	0eH
	DB	0eH
	DB	0eH
	DB	0eH
	DB	0eH
	DB	0eH
	DB	0dH
	DB	0dH
	DB	0dH
	DB	0dH
	DB	0dH
	DB	0dH
	DB	0dH
	DB	0dH
	DB	0cH
	DB	0cH
	DB	0cH
	DB	0cH
	DB	0cH
	DB	0cH
	DB	0cH
	DB	0cH
	DB	0cH
	DB	0cH
	DB	0cH
	DB	0cH
	DB	0bH
	DB	0bH
	DB	0bH
	DB	0bH
	DB	0bH
	DB	0bH
	DB	0bH
	DB	0bH
	DB	0bH
	DB	0bH
	DB	0bH
	DB	0bH
	DB	0bH
	DB	0bH
	DB	0bH
	DB	0bH
	DB	0bH
	DB	0bH
	DB	0bH
	DB	0aH
	DB	0aH
	DB	0aH
	DB	0aH
	DB	0aH
	DB	0aH
	DB	0aH
	DB	0aH
	DB	0aH
	DB	010H
	DB	010H
	DB	010H
	DB	0fH
	DB	0fH
	DB	0fH
	DB	0fH
	DB	0fH
	DB	0fH
	DB	0fH
	DB	0eH
	DB	0eH
	DB	0eH
	DB	0eH
	DB	0eH
	DB	0eH
	DB	0eH
	DB	0dH
	DB	0dH
	DB	0dH
	DB	0dH
	DB	0dH
	DB	0dH
	DB	0dH
	DB	0dH
	DB	0cH
	DB	0cH
	DB	0cH
	DB	0cH
	DB	0cH
	DB	0cH
	DB	0cH
	DB	0cH
	DB	0cH
	DB	0cH
	DB	0cH
	DB	0cH
	DB	0bH
	DB	0bH
	DB	0bH
	DB	0bH
	DB	0bH
	DB	0bH
	DB	0bH
	DB	0bH
	DB	0bH
	DB	0bH
	DB	0bH
	DB	0bH
	DB	0bH
	DB	0bH
	DB	0bH
	DB	0bH
	DB	0bH
	DB	0bH
	DB	0bH
	DB	0bH
	DB	0aH
	DB	0aH
	DB	0aH
	DB	0aH
	DB	0aH
	DB	0aH
	DB	0aH
	DB	010H
	DB	010H
	DB	010H
	DB	010H
	DB	0fH
	DB	0fH
	DB	0fH
	DB	0fH
	DB	0fH
	DB	0fH
	DB	0eH
	DB	0eH
	DB	0eH
	DB	0eH
	DB	0eH
	DB	0eH
	DB	0eH
	DB	0dH
	DB	0dH
	DB	0dH
	DB	0dH
	DB	0dH
	DB	0dH
	DB	0dH
	DB	0dH
	DB	0dH
	DB	0cH
	DB	0cH
	DB	0cH
	DB	0cH
	DB	0cH
	DB	0cH
	DB	0cH
	DB	0cH
	DB	0cH
	DB	0cH
	DB	0cH
	DB	0cH
	DB	0bH
	DB	0bH
	DB	0bH
	DB	0bH
	DB	0bH
	DB	0bH
	DB	0bH
	DB	0bH
	DB	0bH
	DB	0bH
	DB	0bH
	DB	0bH
	DB	0bH
	DB	0bH
	DB	0bH
	DB	0bH
	DB	0bH
	DB	0bH
	DB	0bH
	DB	0bH
	DB	0aH
	DB	0aH
	DB	0aH
	DB	0aH
	DB	0aH
	DB	0aH
	DB	010H
	DB	010H
	DB	010H
	DB	010H
	DB	0fH
	DB	0fH
	DB	0fH
	DB	0fH
	DB	0fH
	DB	0fH
	DB	0eH
	DB	0eH
	DB	0eH
	DB	0eH
	DB	0eH
	DB	0eH
	DB	0eH
	DB	0eH
	DB	0dH
	DB	0dH
	DB	0dH
	DB	0dH
	DB	0dH
	DB	0dH
	DB	0dH
	DB	0dH
	DB	0dH
	DB	0cH
	DB	0cH
	DB	0cH
	DB	0cH
	DB	0cH
	DB	0cH
	DB	0cH
	DB	0cH
	DB	0cH
	DB	0cH
	DB	0cH
	DB	0cH
	DB	0bH
	DB	0bH
	DB	0bH
	DB	0bH
	DB	0bH
	DB	0bH
	DB	0bH
	DB	0bH
	DB	0bH
	DB	0bH
	DB	0bH
	DB	0bH
	DB	0bH
	DB	0bH
	DB	0bH
	DB	0bH
	DB	0bH
	DB	0bH
	DB	0bH
	DB	0bH
	DB	0bH
	DB	0aH
	DB	0aH
	DB	0aH
	DB	0aH
	DB	010H
	DB	010H
	DB	010H
	DB	010H
	DB	0fH
	DB	0fH
	DB	0fH
	DB	0fH
	DB	0fH
	DB	0fH
	DB	0fH
	DB	0eH
	DB	0eH
	DB	0eH
	DB	0eH
	DB	0eH
	DB	0eH
	DB	0eH
	DB	0dH
	DB	0dH
	DB	0dH
	DB	0dH
	DB	0dH
	DB	0dH
	DB	0dH
	DB	0dH
	DB	0dH
	DB	0dH
	DB	0cH
	DB	0cH
	DB	0cH
	DB	0cH
	DB	0cH
	DB	0cH
	DB	0cH
	DB	0cH
	DB	0cH
	DB	0cH
	DB	0cH
	DB	0cH
	DB	0cH
	DB	0bH
	DB	0bH
	DB	0bH
	DB	0bH
	DB	0bH
	DB	0bH
	DB	0bH
	DB	0bH
	DB	0bH
	DB	0bH
	DB	0bH
	DB	0bH
	DB	0bH
	DB	0bH
	DB	0bH
	DB	0bH
	DB	0bH
	DB	0bH
	DB	0bH
	DB	0bH
	DB	0bH
	DB	0aH
	DB	0aH
	DB	010H
	DB	010H
	DB	010H
	DB	010H
	DB	0fH
	DB	0fH
	DB	0fH
	DB	0fH
	DB	0fH
	DB	0fH
	DB	0fH
	DB	0eH
	DB	0eH
	DB	0eH
	DB	0eH
	DB	0eH
	DB	0eH
	DB	0eH
	DB	0eH
	DB	0dH
	DB	0dH
	DB	0dH
	DB	0dH
	DB	0dH
	DB	0dH
	DB	0dH
	DB	0dH
	DB	0dH
	DB	0cH
	DB	0cH
	DB	0cH
	DB	0cH
	DB	0cH
	DB	0cH
	DB	0cH
	DB	0cH
	DB	0cH
	DB	0cH
	DB	0cH
	DB	0cH
	DB	0cH
	DB	0cH
	DB	0bH
	DB	0bH
	DB	0bH
	DB	0bH
	DB	0bH
	DB	0bH
	DB	0bH
	DB	0bH
	DB	0bH
	DB	0bH
	DB	0bH
	DB	0bH
	DB	0bH
	DB	0bH
	DB	0bH
	DB	0bH
	DB	0bH
	DB	0bH
	DB	0bH
	DB	0bH
	DB	0bH
	DB	0bH
	DB	010H
	DB	010H
	DB	010H
	DB	010H
	DB	0fH
	DB	0fH
	DB	0fH
	DB	0fH
	DB	0fH
	DB	0fH
	DB	0fH
	DB	0eH
	DB	0eH
	DB	0eH
	DB	0eH
	DB	0eH
	DB	0eH
	DB	0eH
	DB	0eH
	DB	0dH
	DB	0dH
	DB	0dH
	DB	0dH
	DB	0dH
	DB	0dH
	DB	0dH
	DB	0dH
	DB	0dH
	DB	0dH
	DB	0cH
	DB	0cH
	DB	0cH
	DB	0cH
	DB	0cH
	DB	0cH
	DB	0cH
	DB	0cH
	DB	0cH
	DB	0cH
	DB	0cH
	DB	0cH
	DB	0cH
	DB	0cH
	DB	0bH
	DB	0bH
	DB	0bH
	DB	0bH
	DB	0bH
	DB	0bH
	DB	0bH
	DB	0bH
	DB	0bH
	DB	0bH
	DB	0bH
	DB	0bH
	DB	0bH
	DB	0bH
	DB	0bH
	DB	0bH
	DB	0bH
	DB	0bH
	DB	0bH
	DB	0bH
	DB	0bH
	DB	010H
	DB	010H
	DB	010H
	DB	010H
	DB	0fH
	DB	0fH
	DB	0fH
	DB	0fH
	DB	0fH
	DB	0fH
	DB	0fH
	DB	0eH
	DB	0eH
	DB	0eH
	DB	0eH
	DB	0eH
	DB	0eH
	DB	0eH
	DB	0eH
	DB	0eH
	DB	0dH
	DB	0dH
	DB	0dH
	DB	0dH
	DB	0dH
	DB	0dH
	DB	0dH
	DB	0dH
	DB	0dH
	DB	0dH
	DB	0cH
	DB	0cH
	DB	0cH
	DB	0cH
	DB	0cH
	DB	0cH
	DB	0cH
	DB	0cH
	DB	0cH
	DB	0cH
	DB	0cH
	DB	0cH
	DB	0cH
	DB	0cH
	DB	0bH
	DB	0bH
	DB	0bH
	DB	0bH
	DB	0bH
	DB	0bH
	DB	0bH
	DB	0bH
	DB	0bH
	DB	0bH
	DB	0bH
	DB	0bH
	DB	0bH
	DB	0bH
	DB	0bH
	DB	0bH
	DB	0bH
	DB	0bH
	DB	0bH
	DB	0bH
	DB	010H
	DB	010H
	DB	010H
	DB	010H
	DB	0fH
	DB	0fH
	DB	0fH
	DB	0fH
	DB	0fH
	DB	0fH
	DB	0fH
	DB	0fH
	DB	0eH
	DB	0eH
	DB	0eH
	DB	0eH
	DB	0eH
	DB	0eH
	DB	0eH
	DB	0eH
	DB	0dH
	DB	0dH
	DB	0dH
	DB	0dH
	DB	0dH
	DB	0dH
	DB	0dH
	DB	0dH
	DB	0dH
	DB	0dH
	DB	0dH
	DB	0cH
	DB	0cH
	DB	0cH
	DB	0cH
	DB	0cH
	DB	0cH
	DB	0cH
	DB	0cH
	DB	0cH
	DB	0cH
	DB	0cH
	DB	0cH
	DB	0cH
	DB	0cH
	DB	0cH
	DB	0bH
	DB	0bH
	DB	0bH
	DB	0bH
	DB	0bH
	DB	0bH
	DB	0bH
	DB	0bH
	DB	0bH
	DB	0bH
	DB	0bH
	DB	0bH
	DB	0bH
	DB	0bH
	DB	0bH
	DB	0bH
	DB	0bH
	DB	0bH
	DB	010H
	DB	010H
	DB	010H
	DB	010H
	DB	0fH
	DB	0fH
	DB	0fH
	DB	0fH
	DB	0fH
	DB	0fH
	DB	0fH
	DB	0fH
	DB	0eH
	DB	0eH
	DB	0eH
	DB	0eH
	DB	0eH
	DB	0eH
	DB	0eH
	DB	0eH
	DB	0eH
	DB	0dH
	DB	0dH
	DB	0dH
	DB	0dH
	DB	0dH
	DB	0dH
	DB	0dH
	DB	0dH
	DB	0dH
	DB	0dH
	DB	0dH
	DB	0cH
	DB	0cH
	DB	0cH
	DB	0cH
	DB	0cH
	DB	0cH
	DB	0cH
	DB	0cH
	DB	0cH
	DB	0cH
	DB	0cH
	DB	0cH
	DB	0cH
	DB	0cH
	DB	0cH
	DB	0bH
	DB	0bH
	DB	0bH
	DB	0bH
	DB	0bH
	DB	0bH
	DB	0bH
	DB	0bH
	DB	0bH
	DB	0bH
	DB	0bH
	DB	0bH
	DB	0bH
	DB	0bH
	DB	0bH
	DB	0bH
	DB	0bH
	DB	010H
	DB	010H
	DB	010H
	DB	010H
	DB	0fH
	DB	0fH
	DB	0fH
	DB	0fH
	DB	0fH
	DB	0fH
	DB	0fH
	DB	0fH
	DB	0eH
	DB	0eH
	DB	0eH
	DB	0eH
	DB	0eH
	DB	0eH
	DB	0eH
	DB	0eH
	DB	0eH
	DB	0dH
	DB	0dH
	DB	0dH
	DB	0dH
	DB	0dH
	DB	0dH
	DB	0dH
	DB	0dH
	DB	0dH
	DB	0dH
	DB	0dH
	DB	0dH
	DB	0cH
	DB	0cH
	DB	0cH
	DB	0cH
	DB	0cH
	DB	0cH
	DB	0cH
	DB	0cH
	DB	0cH
	DB	0cH
	DB	0cH
	DB	0cH
	DB	0cH
	DB	0cH
	DB	0cH
	DB	0bH
	DB	0bH
	DB	0bH
	DB	0bH
	DB	0bH
	DB	0bH
	DB	0bH
	DB	0bH
	DB	0bH
	DB	0bH
	DB	0bH
	DB	0bH
	DB	0bH
	DB	0bH
	DB	0bH
	DB	0bH
	DB	010H
	DB	010H
	DB	010H
	DB	010H
	DB	0fH
	DB	0fH
	DB	0fH
	DB	0fH
	DB	0fH
	DB	0fH
	DB	0fH
	DB	0fH
	DB	0fH
	DB	0eH
	DB	0eH
	DB	0eH
	DB	0eH
	DB	0eH
	DB	0eH
	DB	0eH
	DB	0eH
	DB	0eH
	DB	0dH
	DB	0dH
	DB	0dH
	DB	0dH
	DB	0dH
	DB	0dH
	DB	0dH
	DB	0dH
	DB	0dH
	DB	0dH
	DB	0dH
	DB	0cH
	DB	0cH
	DB	0cH
	DB	0cH
	DB	0cH
	DB	0cH
	DB	0cH
	DB	0cH
	DB	0cH
	DB	0cH
	DB	0cH
	DB	0cH
	DB	0cH
	DB	0cH
	DB	0cH
	DB	0cH
	DB	0bH
	DB	0bH
	DB	0bH
	DB	0bH
	DB	0bH
	DB	0bH
	DB	0bH
	DB	0bH
	DB	0bH
	DB	0bH
	DB	0bH
	DB	0bH
	DB	0bH
	DB	0bH
	DB	0bH
	DB	010H
	DB	010H
	DB	010H
	DB	010H
	DB	010H
	DB	0fH
	DB	0fH
	DB	0fH
	DB	0fH
	DB	0fH
	DB	0fH
	DB	0fH
	DB	0fH
	DB	0eH
	DB	0eH
	DB	0eH
	DB	0eH
	DB	0eH
	DB	0eH
	DB	0eH
	DB	0eH
	DB	0eH
	DB	0dH
	DB	0dH
	DB	0dH
	DB	0dH
	DB	0dH
	DB	0dH
	DB	0dH
	DB	0dH
	DB	0dH
	DB	0dH
	DB	0dH
	DB	0dH
	DB	0cH
	DB	0cH
	DB	0cH
	DB	0cH
	DB	0cH
	DB	0cH
	DB	0cH
	DB	0cH
	DB	0cH
	DB	0cH
	DB	0cH
	DB	0cH
	DB	0cH
	DB	0cH
	DB	0cH
	DB	0cH
	DB	0bH
	DB	0bH
	DB	0bH
	DB	0bH
	DB	0bH
	DB	0bH
	DB	0bH
	DB	0bH
	DB	0bH
	DB	0bH
	DB	0bH
	DB	0bH
	DB	0bH
	DB	0bH
	DB	010H
	DB	010H
	DB	010H
	DB	010H
	DB	010H
	DB	0fH
	DB	0fH
	DB	0fH
	DB	0fH
	DB	0fH
	DB	0fH
	DB	0fH
	DB	0fH
	DB	0eH
	DB	0eH
	DB	0eH
	DB	0eH
	DB	0eH
	DB	0eH
	DB	0eH
	DB	0eH
	DB	0eH
	DB	0eH
	DB	0dH
	DB	0dH
	DB	0dH
	DB	0dH
	DB	0dH
	DB	0dH
	DB	0dH
	DB	0dH
	DB	0dH
	DB	0dH
	DB	0dH
	DB	0dH
	DB	0cH
	DB	0cH
	DB	0cH
	DB	0cH
	DB	0cH
	DB	0cH
	DB	0cH
	DB	0cH
	DB	0cH
	DB	0cH
	DB	0cH
	DB	0cH
	DB	0cH
	DB	0cH
	DB	0cH
	DB	0cH
	DB	0cH
	DB	0bH
	DB	0bH
	DB	0bH
	DB	0bH
	DB	0bH
	DB	0bH
	DB	0bH
	DB	0bH
	DB	0bH
	DB	0bH
	DB	0bH
	DB	0bH
	DB	010H
	DB	010H
	DB	010H
	DB	010H
	DB	010H
	DB	0fH
	DB	0fH
	DB	0fH
	DB	0fH
	DB	0fH
	DB	0fH
	DB	0fH
	DB	0fH
	DB	0fH
	DB	0eH
	DB	0eH
	DB	0eH
	DB	0eH
	DB	0eH
	DB	0eH
	DB	0eH
	DB	0eH
	DB	0eH
	DB	0dH
	DB	0dH
	DB	0dH
	DB	0dH
	DB	0dH
	DB	0dH
	DB	0dH
	DB	0dH
	DB	0dH
	DB	0dH
	DB	0dH
	DB	0dH
	DB	0dH
	DB	0cH
	DB	0cH
	DB	0cH
	DB	0cH
	DB	0cH
	DB	0cH
	DB	0cH
	DB	0cH
	DB	0cH
	DB	0cH
	DB	0cH
	DB	0cH
	DB	0cH
	DB	0cH
	DB	0cH
	DB	0cH
	DB	0cH
	DB	0bH
	DB	0bH
	DB	0bH
	DB	0bH
	DB	0bH
	DB	0bH
	DB	0bH
	DB	0bH
	DB	0bH
	DB	0bH
	DB	0bH
	DB	010H
	DB	010H
	DB	010H
	DB	010H
	DB	010H
	DB	0fH
	DB	0fH
	DB	0fH
	DB	0fH
	DB	0fH
	DB	0fH
	DB	0fH
	DB	0fH
	DB	0fH
	DB	0eH
	DB	0eH
	DB	0eH
	DB	0eH
	DB	0eH
	DB	0eH
	DB	0eH
	DB	0eH
	DB	0eH
	DB	0eH
	DB	0dH
	DB	0dH
	DB	0dH
	DB	0dH
	DB	0dH
	DB	0dH
	DB	0dH
	DB	0dH
	DB	0dH
	DB	0dH
	DB	0dH
	DB	0dH
	DB	0dH
	DB	0cH
	DB	0cH
	DB	0cH
	DB	0cH
	DB	0cH
	DB	0cH
	DB	0cH
	DB	0cH
	DB	0cH
	DB	0cH
	DB	0cH
	DB	0cH
	DB	0cH
	DB	0cH
	DB	0cH
	DB	0cH
	DB	0cH
	DB	0bH
	DB	0bH
	DB	0bH
	DB	0bH
	DB	0bH
	DB	0bH
	DB	0bH
	DB	0bH
	DB	0bH
	DB	0bH
	DB	010H
	DB	010H
	DB	010H
	DB	010H
	DB	010H
	DB	0fH
	DB	0fH
	DB	0fH
	DB	0fH
	DB	0fH
	DB	0fH
	DB	0fH
	DB	0fH
	DB	0fH
	DB	0eH
	DB	0eH
	DB	0eH
	DB	0eH
	DB	0eH
	DB	0eH
	DB	0eH
	DB	0eH
	DB	0eH
	DB	0eH
	DB	0eH
	DB	0dH
	DB	0dH
	DB	0dH
	DB	0dH
	DB	0dH
	DB	0dH
	DB	0dH
	DB	0dH
	DB	0dH
	DB	0dH
	DB	0dH
	DB	0dH
	DB	0cH
	DB	0cH
	DB	0cH
	DB	0cH
	DB	0cH
	DB	0cH
	DB	0cH
	DB	0cH
	DB	0cH
	DB	0cH
	DB	0cH
	DB	0cH
	DB	0cH
	DB	0cH
	DB	0cH
	DB	0cH
	DB	0cH
	DB	0cH
	DB	0bH
	DB	0bH
	DB	0bH
	DB	0bH
	DB	0bH
	DB	0bH
	DB	0bH
	DB	0bH
	DB	0bH
	DB	010H
	DB	010H
	DB	010H
	DB	010H
	DB	010H
	DB	0fH
	DB	0fH
	DB	0fH
	DB	0fH
	DB	0fH
	DB	0fH
	DB	0fH
	DB	0fH
	DB	0fH
	DB	0eH
	DB	0eH
	DB	0eH
	DB	0eH
	DB	0eH
	DB	0eH
	DB	0eH
	DB	0eH
	DB	0eH
	DB	0eH
	DB	0eH
	DB	0dH
	DB	0dH
	DB	0dH
	DB	0dH
	DB	0dH
	DB	0dH
	DB	0dH
	DB	0dH
	DB	0dH
	DB	0dH
	DB	0dH
	DB	0dH
	DB	0dH
	DB	0cH
	DB	0cH
	DB	0cH
	DB	0cH
	DB	0cH
	DB	0cH
	DB	0cH
	DB	0cH
	DB	0cH
	DB	0cH
	DB	0cH
	DB	0cH
	DB	0cH
	DB	0cH
	DB	0cH
	DB	0cH
	DB	0cH
	DB	0cH
	DB	0cH
	DB	0bH
	DB	0bH
	DB	0bH
	DB	0bH
	DB	0bH
	DB	0bH
	DB	0bH
	DB	010H
	DB	010H
	DB	010H
	DB	010H
	DB	010H
	DB	0fH
	DB	0fH
	DB	0fH
	DB	0fH
	DB	0fH
	DB	0fH
	DB	0fH
	DB	0fH
	DB	0fH
	DB	0fH
	DB	0eH
	DB	0eH
	DB	0eH
	DB	0eH
	DB	0eH
	DB	0eH
	DB	0eH
	DB	0eH
	DB	0eH
	DB	0eH
	DB	0eH
	DB	0dH
	DB	0dH
	DB	0dH
	DB	0dH
	DB	0dH
	DB	0dH
	DB	0dH
	DB	0dH
	DB	0dH
	DB	0dH
	DB	0dH
	DB	0dH
	DB	0dH
	DB	0cH
	DB	0cH
	DB	0cH
	DB	0cH
	DB	0cH
	DB	0cH
	DB	0cH
	DB	0cH
	DB	0cH
	DB	0cH
	DB	0cH
	DB	0cH
	DB	0cH
	DB	0cH
	DB	0cH
	DB	0cH
	DB	0cH
	DB	0cH
	DB	0cH
	DB	0bH
	DB	0bH
	DB	0bH
	DB	0bH
	DB	0bH
	DB	0bH
	DB	010H
	DB	010H
	DB	010H
	DB	010H
	DB	010H
	DB	0fH
	DB	0fH
	DB	0fH
	DB	0fH
	DB	0fH
	DB	0fH
	DB	0fH
	DB	0fH
	DB	0fH
	DB	0fH
	DB	0eH
	DB	0eH
	DB	0eH
	DB	0eH
	DB	0eH
	DB	0eH
	DB	0eH
	DB	0eH
	DB	0eH
	DB	0eH
	DB	0eH
	DB	0dH
	DB	0dH
	DB	0dH
	DB	0dH
	DB	0dH
	DB	0dH
	DB	0dH
	DB	0dH
	DB	0dH
	DB	0dH
	DB	0dH
	DB	0dH
	DB	0dH
	DB	0dH
	DB	0cH
	DB	0cH
	DB	0cH
	DB	0cH
	DB	0cH
	DB	0cH
	DB	0cH
	DB	0cH
	DB	0cH
	DB	0cH
	DB	0cH
	DB	0cH
	DB	0cH
	DB	0cH
	DB	0cH
	DB	0cH
	DB	0cH
	DB	0cH
	DB	0cH
	DB	0bH
	DB	0bH
	DB	0bH
	DB	0bH
	DB	0bH
	DB	010H
	DB	010H
	DB	010H
	DB	010H
	DB	010H
	DB	0fH
	DB	0fH
	DB	0fH
	DB	0fH
	DB	0fH
	DB	0fH
	DB	0fH
	DB	0fH
	DB	0fH
	DB	0fH
	DB	0eH
	DB	0eH
	DB	0eH
	DB	0eH
	DB	0eH
	DB	0eH
	DB	0eH
	DB	0eH
	DB	0eH
	DB	0eH
	DB	0eH
	DB	0eH
	DB	0dH
	DB	0dH
	DB	0dH
	DB	0dH
	DB	0dH
	DB	0dH
	DB	0dH
	DB	0dH
	DB	0dH
	DB	0dH
	DB	0dH
	DB	0dH
	DB	0dH
	DB	0dH
	DB	0cH
	DB	0cH
	DB	0cH
	DB	0cH
	DB	0cH
	DB	0cH
	DB	0cH
	DB	0cH
	DB	0cH
	DB	0cH
	DB	0cH
	DB	0cH
	DB	0cH
	DB	0cH
	DB	0cH
	DB	0cH
	DB	0cH
	DB	0cH
	DB	0cH
	DB	0bH
	DB	0bH
	DB	0bH
	DB	0bH
	DB	010H
	DB	010H
	DB	010H
	DB	010H
	DB	010H
	DB	0fH
	DB	0fH
	DB	0fH
	DB	0fH
	DB	0fH
	DB	0fH
	DB	0fH
	DB	0fH
	DB	0fH
	DB	0fH
	DB	0fH
	DB	0eH
	DB	0eH
	DB	0eH
	DB	0eH
	DB	0eH
	DB	0eH
	DB	0eH
	DB	0eH
	DB	0eH
	DB	0eH
	DB	0eH
	DB	0dH
	DB	0dH
	DB	0dH
	DB	0dH
	DB	0dH
	DB	0dH
	DB	0dH
	DB	0dH
	DB	0dH
	DB	0dH
	DB	0dH
	DB	0dH
	DB	0dH
	DB	0dH
	DB	0dH
	DB	0cH
	DB	0cH
	DB	0cH
	DB	0cH
	DB	0cH
	DB	0cH
	DB	0cH
	DB	0cH
	DB	0cH
	DB	0cH
	DB	0cH
	DB	0cH
	DB	0cH
	DB	0cH
	DB	0cH
	DB	0cH
	DB	0cH
	DB	0cH
	DB	0cH
	DB	0bH
	DB	0bH
	DB	0bH
	DB	010H
	DB	010H
	DB	010H
	DB	010H
	DB	010H
	DB	010H
	DB	0fH
	DB	0fH
	DB	0fH
	DB	0fH
	DB	0fH
	DB	0fH
	DB	0fH
	DB	0fH
	DB	0fH
	DB	0fH
	DB	0eH
	DB	0eH
	DB	0eH
	DB	0eH
	DB	0eH
	DB	0eH
	DB	0eH
	DB	0eH
	DB	0eH
	DB	0eH
	DB	0eH
	DB	0eH
	DB	0dH
	DB	0dH
	DB	0dH
	DB	0dH
	DB	0dH
	DB	0dH
	DB	0dH
	DB	0dH
	DB	0dH
	DB	0dH
	DB	0dH
	DB	0dH
	DB	0dH
	DB	0dH
	DB	0cH
	DB	0cH
	DB	0cH
	DB	0cH
	DB	0cH
	DB	0cH
	DB	0cH
	DB	0cH
	DB	0cH
	DB	0cH
	DB	0cH
	DB	0cH
	DB	0cH
	DB	0cH
	DB	0cH
	DB	0cH
	DB	0cH
	DB	0cH
	DB	0cH
	DB	0cH
	DB	0cH
	DB	0bH
	DB	010H
	DB	010H
	DB	010H
	DB	010H
	DB	010H
	DB	010H
	DB	0fH
	DB	0fH
	DB	0fH
	DB	0fH
	DB	0fH
	DB	0fH
	DB	0fH
	DB	0fH
	DB	0fH
	DB	0fH
	DB	0eH
	DB	0eH
	DB	0eH
	DB	0eH
	DB	0eH
	DB	0eH
	DB	0eH
	DB	0eH
	DB	0eH
	DB	0eH
	DB	0eH
	DB	0eH
	DB	0dH
	DB	0dH
	DB	0dH
	DB	0dH
	DB	0dH
	DB	0dH
	DB	0dH
	DB	0dH
	DB	0dH
	DB	0dH
	DB	0dH
	DB	0dH
	DB	0dH
	DB	0dH
	DB	0dH
	DB	0cH
	DB	0cH
	DB	0cH
	DB	0cH
	DB	0cH
	DB	0cH
	DB	0cH
	DB	0cH
	DB	0cH
	DB	0cH
	DB	0cH
	DB	0cH
	DB	0cH
	DB	0cH
	DB	0cH
	DB	0cH
	DB	0cH
	DB	0cH
	DB	0cH
	DB	0cH
	DB	0cH
	DB	010H
	DB	010H
	DB	010H
	DB	010H
	DB	010H
	DB	010H
	DB	0fH
	DB	0fH
	DB	0fH
	DB	0fH
	DB	0fH
	DB	0fH
	DB	0fH
	DB	0fH
	DB	0fH
	DB	0fH
	DB	0fH
	DB	0eH
	DB	0eH
	DB	0eH
	DB	0eH
	DB	0eH
	DB	0eH
	DB	0eH
	DB	0eH
	DB	0eH
	DB	0eH
	DB	0eH
	DB	0eH
	DB	0dH
	DB	0dH
	DB	0dH
	DB	0dH
	DB	0dH
	DB	0dH
	DB	0dH
	DB	0dH
	DB	0dH
	DB	0dH
	DB	0dH
	DB	0dH
	DB	0dH
	DB	0dH
	DB	0dH
	DB	0cH
	DB	0cH
	DB	0cH
	DB	0cH
	DB	0cH
	DB	0cH
	DB	0cH
	DB	0cH
	DB	0cH
	DB	0cH
	DB	0cH
	DB	0cH
	DB	0cH
	DB	0cH
	DB	0cH
	DB	0cH
	DB	0cH
	DB	0cH
	DB	0cH
	DB	0cH
	DB	010H
	DB	010H
	DB	010H
	DB	010H
	DB	010H
	DB	010H
	DB	0fH
	DB	0fH
	DB	0fH
	DB	0fH
	DB	0fH
	DB	0fH
	DB	0fH
	DB	0fH
	DB	0fH
	DB	0fH
	DB	0fH
	DB	0eH
	DB	0eH
	DB	0eH
	DB	0eH
	DB	0eH
	DB	0eH
	DB	0eH
	DB	0eH
	DB	0eH
	DB	0eH
	DB	0eH
	DB	0eH
	DB	0dH
	DB	0dH
	DB	0dH
	DB	0dH
	DB	0dH
	DB	0dH
	DB	0dH
	DB	0dH
	DB	0dH
	DB	0dH
	DB	0dH
	DB	0dH
	DB	0dH
	DB	0dH
	DB	0dH
	DB	0dH
	DB	0cH
	DB	0cH
	DB	0cH
	DB	0cH
	DB	0cH
	DB	0cH
	DB	0cH
	DB	0cH
	DB	0cH
	DB	0cH
	DB	0cH
	DB	0cH
	DB	0cH
	DB	0cH
	DB	0cH
	DB	0cH
	DB	0cH
	DB	0cH
	DB	0cH
	DB	010H
	DB	010H
	DB	010H
	DB	010H
	DB	010H
	DB	010H
	DB	0fH
	DB	0fH
	DB	0fH
	DB	0fH
	DB	0fH
	DB	0fH
	DB	0fH
	DB	0fH
	DB	0fH
	DB	0fH
	DB	0fH
	DB	0eH
	DB	0eH
	DB	0eH
	DB	0eH
	DB	0eH
	DB	0eH
	DB	0eH
	DB	0eH
	DB	0eH
	DB	0eH
	DB	0eH
	DB	0eH
	DB	0eH
	DB	0dH
	DB	0dH
	DB	0dH
	DB	0dH
	DB	0dH
	DB	0dH
	DB	0dH
	DB	0dH
	DB	0dH
	DB	0dH
	DB	0dH
	DB	0dH
	DB	0dH
	DB	0dH
	DB	0dH
	DB	0dH
	DB	0cH
	DB	0cH
	DB	0cH
	DB	0cH
	DB	0cH
	DB	0cH
	DB	0cH
	DB	0cH
	DB	0cH
	DB	0cH
	DB	0cH
	DB	0cH
	DB	0cH
	DB	0cH
	DB	0cH
	DB	0cH
	DB	0cH
	DB	0cH
	DB	010H
	DB	010H
	DB	010H
	DB	010H
	DB	010H
	DB	010H
	DB	0fH
	DB	0fH
	DB	0fH
	DB	0fH
	DB	0fH
	DB	0fH
	DB	0fH
	DB	0fH
	DB	0fH
	DB	0fH
	DB	0fH
	DB	0eH
	DB	0eH
	DB	0eH
	DB	0eH
	DB	0eH
	DB	0eH
	DB	0eH
	DB	0eH
	DB	0eH
	DB	0eH
	DB	0eH
	DB	0eH
	DB	0eH
	DB	0dH
	DB	0dH
	DB	0dH
	DB	0dH
	DB	0dH
	DB	0dH
	DB	0dH
	DB	0dH
	DB	0dH
	DB	0dH
	DB	0dH
	DB	0dH
	DB	0dH
	DB	0dH
	DB	0dH
	DB	0dH
	DB	0cH
	DB	0cH
	DB	0cH
	DB	0cH
	DB	0cH
	DB	0cH
	DB	0cH
	DB	0cH
	DB	0cH
	DB	0cH
	DB	0cH
	DB	0cH
	DB	0cH
	DB	0cH
	DB	0cH
	DB	0cH
	DB	0cH
	DB	0cH
	DB	010H
	DB	010H
	DB	010H
	DB	010H
	DB	010H
	DB	010H
	DB	0fH
	DB	0fH
	DB	0fH
	DB	0fH
	DB	0fH
	DB	0fH
	DB	0fH
	DB	0fH
	DB	0fH
	DB	0fH
	DB	0fH
	DB	0fH
	DB	0eH
	DB	0eH
	DB	0eH
	DB	0eH
	DB	0eH
	DB	0eH
	DB	0eH
	DB	0eH
	DB	0eH
	DB	0eH
	DB	0eH
	DB	0eH
	DB	0eH
	DB	0dH
	DB	0dH
	DB	0dH
	DB	0dH
	DB	0dH
	DB	0dH
	DB	0dH
	DB	0dH
	DB	0dH
	DB	0dH
	DB	0dH
	DB	0dH
	DB	0dH
	DB	0dH
	DB	0dH
	DB	0dH
	DB	0cH
	DB	0cH
	DB	0cH
	DB	0cH
	DB	0cH
	DB	0cH
	DB	0cH
	DB	0cH
	DB	0cH
	DB	0cH
	DB	0cH
	DB	0cH
	DB	0cH
	DB	0cH
	DB	0cH
	DB	0cH
	DB	0cH
	DB	010H
	DB	010H
	DB	010H
	DB	010H
	DB	010H
	DB	010H
	DB	0fH
	DB	0fH
	DB	0fH
	DB	0fH
	DB	0fH
	DB	0fH
	DB	0fH
	DB	0fH
	DB	0fH
	DB	0fH
	DB	0fH
	DB	0fH
	DB	0eH
	DB	0eH
	DB	0eH
	DB	0eH
	DB	0eH
	DB	0eH
	DB	0eH
	DB	0eH
	DB	0eH
	DB	0eH
	DB	0eH
	DB	0eH
	DB	0eH
	DB	0eH
	DB	0dH
	DB	0dH
	DB	0dH
	DB	0dH
	DB	0dH
	DB	0dH
	DB	0dH
	DB	0dH
	DB	0dH
	DB	0dH
	DB	0dH
	DB	0dH
	DB	0dH
	DB	0dH
	DB	0dH
	DB	0dH
	DB	0cH
	DB	0cH
	DB	0cH
	DB	0cH
	DB	0cH
	DB	0cH
	DB	0cH
	DB	0cH
	DB	0cH
	DB	0cH
	DB	0cH
	DB	0cH
	DB	0cH
	DB	0cH
	DB	0cH
	DB	0cH
	DB	010H
	DB	010H
	DB	010H
	DB	010H
	DB	010H
	DB	010H
	DB	0fH
	DB	0fH
	DB	0fH
	DB	0fH
	DB	0fH
	DB	0fH
	DB	0fH
	DB	0fH
	DB	0fH
	DB	0fH
	DB	0fH
	DB	0fH
	DB	0eH
	DB	0eH
	DB	0eH
	DB	0eH
	DB	0eH
	DB	0eH
	DB	0eH
	DB	0eH
	DB	0eH
	DB	0eH
	DB	0eH
	DB	0eH
	DB	0eH
	DB	0eH
	DB	0dH
	DB	0dH
	DB	0dH
	DB	0dH
	DB	0dH
	DB	0dH
	DB	0dH
	DB	0dH
	DB	0dH
	DB	0dH
	DB	0dH
	DB	0dH
	DB	0dH
	DB	0dH
	DB	0dH
	DB	0dH
	DB	0dH
	DB	0cH
	DB	0cH
	DB	0cH
	DB	0cH
	DB	0cH
	DB	0cH
	DB	0cH
	DB	0cH
	DB	0cH
	DB	0cH
	DB	0cH
	DB	0cH
	DB	0cH
	DB	0cH
	DB	0cH
	DB	010H
	DB	010H
	DB	010H
	DB	010H
	DB	010H
	DB	010H
	DB	0fH
	DB	0fH
	DB	0fH
	DB	0fH
	DB	0fH
	DB	0fH
	DB	0fH
	DB	0fH
	DB	0fH
	DB	0fH
	DB	0fH
	DB	0fH
	DB	0fH
	DB	0eH
	DB	0eH
	DB	0eH
	DB	0eH
	DB	0eH
	DB	0eH
	DB	0eH
	DB	0eH
	DB	0eH
	DB	0eH
	DB	0eH
	DB	0eH
	DB	0eH
	DB	0eH
	DB	0dH
	DB	0dH
	DB	0dH
	DB	0dH
	DB	0dH
	DB	0dH
	DB	0dH
	DB	0dH
	DB	0dH
	DB	0dH
	DB	0dH
	DB	0dH
	DB	0dH
	DB	0dH
	DB	0dH
	DB	0dH
	DB	0dH
	DB	0cH
	DB	0cH
	DB	0cH
	DB	0cH
	DB	0cH
	DB	0cH
	DB	0cH
	DB	0cH
	DB	0cH
	DB	0cH
	DB	0cH
	DB	0cH
	DB	0cH
	DB	0cH
	DB	010H
	DB	010H
	DB	010H
	DB	010H
	DB	010H
	DB	010H
	DB	010H
	DB	0fH
	DB	0fH
	DB	0fH
	DB	0fH
	DB	0fH
	DB	0fH
	DB	0fH
	DB	0fH
	DB	0fH
	DB	0fH
	DB	0fH
	DB	0fH
	DB	0eH
	DB	0eH
	DB	0eH
	DB	0eH
	DB	0eH
	DB	0eH
	DB	0eH
	DB	0eH
	DB	0eH
	DB	0eH
	DB	0eH
	DB	0eH
	DB	0eH
	DB	0eH
	DB	0dH
	DB	0dH
	DB	0dH
	DB	0dH
	DB	0dH
	DB	0dH
	DB	0dH
	DB	0dH
	DB	0dH
	DB	0dH
	DB	0dH
	DB	0dH
	DB	0dH
	DB	0dH
	DB	0dH
	DB	0dH
	DB	0dH
	DB	0dH
	DB	0cH
	DB	0cH
	DB	0cH
	DB	0cH
	DB	0cH
	DB	0cH
	DB	0cH
	DB	0cH
	DB	0cH
	DB	0cH
	DB	0cH
	DB	0cH
	DB	0cH
	DB	010H
	DB	010H
	DB	010H
	DB	010H
	DB	010H
	DB	010H
	DB	010H
	DB	0fH
	DB	0fH
	DB	0fH
	DB	0fH
	DB	0fH
	DB	0fH
	DB	0fH
	DB	0fH
	DB	0fH
	DB	0fH
	DB	0fH
	DB	0fH
	DB	0eH
	DB	0eH
	DB	0eH
	DB	0eH
	DB	0eH
	DB	0eH
	DB	0eH
	DB	0eH
	DB	0eH
	DB	0eH
	DB	0eH
	DB	0eH
	DB	0eH
	DB	0eH
	DB	0eH
	DB	0dH
	DB	0dH
	DB	0dH
	DB	0dH
	DB	0dH
	DB	0dH
	DB	0dH
	DB	0dH
	DB	0dH
	DB	0dH
	DB	0dH
	DB	0dH
	DB	0dH
	DB	0dH
	DB	0dH
	DB	0dH
	DB	0dH
	DB	0cH
	DB	0cH
	DB	0cH
	DB	0cH
	DB	0cH
	DB	0cH
	DB	0cH
	DB	0cH
	DB	0cH
	DB	0cH
	DB	0cH
	DB	0cH
	DB	0cH
	DB	010H
	DB	010H
	DB	010H
	DB	010H
	DB	010H
	DB	010H
	DB	010H
	DB	0fH
	DB	0fH
	DB	0fH
	DB	0fH
	DB	0fH
	DB	0fH
	DB	0fH
	DB	0fH
	DB	0fH
	DB	0fH
	DB	0fH
	DB	0fH
	DB	0fH
	DB	0eH
	DB	0eH
	DB	0eH
	DB	0eH
	DB	0eH
	DB	0eH
	DB	0eH
	DB	0eH
	DB	0eH
	DB	0eH
	DB	0eH
	DB	0eH
	DB	0eH
	DB	0eH
	DB	0dH
	DB	0dH
	DB	0dH
	DB	0dH
	DB	0dH
	DB	0dH
	DB	0dH
	DB	0dH
	DB	0dH
	DB	0dH
	DB	0dH
	DB	0dH
	DB	0dH
	DB	0dH
	DB	0dH
	DB	0dH
	DB	0dH
	DB	0dH
	DB	0cH
	DB	0cH
	DB	0cH
	DB	0cH
	DB	0cH
	DB	0cH
	DB	0cH
	DB	0cH
	DB	0cH
	DB	0cH
	DB	0cH
	DB	0cH
?Distance_Tbl@@3PACA DB 00H				; Distance_Tbl
	DB	01H
	DB	02H
	DB	03H
	DB	04H
	DB	05H
	DB	06H
	DB	07H
	DB	08H
	DB	09H
	DB	0aH
	DB	0bH
	DB	0cH
	DB	0dH
	DB	0eH
	DB	0fH
	DB	010H
	DB	011H
	DB	012H
	DB	013H
	DB	014H
	DB	015H
	DB	016H
	DB	017H
	DB	018H
	DB	019H
	DB	01aH
	DB	01bH
	DB	01cH
	DB	01dH
	DB	01eH
	DB	01fH
	DB	020H
	DB	021H
	DB	022H
	DB	023H
	DB	024H
	DB	025H
	DB	026H
	DB	027H
	DB	028H
	DB	029H
	DB	02aH
	DB	02bH
	DB	02cH
	DB	02dH
	DB	02eH
	DB	02fH
	DB	030H
	DB	031H
	DB	032H
	DB	033H
	DB	034H
	DB	035H
	DB	036H
	DB	037H
	DB	038H
	DB	039H
	DB	03aH
	DB	03bH
	DB	03cH
	DB	03dH
	DB	03eH
	DB	03fH
	DB	01H
	DB	01H
	DB	02H
	DB	03H
	DB	04H
	DB	05H
	DB	06H
	DB	07H
	DB	08H
	DB	09H
	DB	0aH
	DB	0bH
	DB	0cH
	DB	0dH
	DB	0eH
	DB	0fH
	DB	010H
	DB	011H
	DB	012H
	DB	013H
	DB	014H
	DB	015H
	DB	016H
	DB	017H
	DB	018H
	DB	019H
	DB	01aH
	DB	01bH
	DB	01cH
	DB	01dH
	DB	01eH
	DB	01fH
	DB	020H
	DB	021H
	DB	022H
	DB	023H
	DB	024H
	DB	025H
	DB	026H
	DB	027H
	DB	028H
	DB	029H
	DB	02aH
	DB	02bH
	DB	02cH
	DB	02dH
	DB	02eH
	DB	02fH
	DB	030H
	DB	031H
	DB	032H
	DB	033H
	DB	034H
	DB	035H
	DB	036H
	DB	037H
	DB	038H
	DB	039H
	DB	03aH
	DB	03bH
	DB	03cH
	DB	03dH
	DB	03eH
	DB	03fH
	DB	02H
	DB	02H
	DB	02H
	DB	03H
	DB	04H
	DB	05H
	DB	06H
	DB	07H
	DB	08H
	DB	09H
	DB	0aH
	DB	0bH
	DB	0cH
	DB	0dH
	DB	0eH
	DB	0fH
	DB	010H
	DB	011H
	DB	012H
	DB	013H
	DB	014H
	DB	015H
	DB	016H
	DB	017H
	DB	018H
	DB	019H
	DB	01aH
	DB	01bH
	DB	01cH
	DB	01dH
	DB	01eH
	DB	01fH
	DB	020H
	DB	021H
	DB	022H
	DB	023H
	DB	024H
	DB	025H
	DB	026H
	DB	027H
	DB	028H
	DB	029H
	DB	02aH
	DB	02bH
	DB	02cH
	DB	02dH
	DB	02eH
	DB	02fH
	DB	030H
	DB	031H
	DB	032H
	DB	033H
	DB	034H
	DB	035H
	DB	036H
	DB	037H
	DB	038H
	DB	039H
	DB	03aH
	DB	03bH
	DB	03cH
	DB	03dH
	DB	03eH
	DB	03fH
	DB	03H
	DB	03H
	DB	03H
	DB	04H
	DB	05H
	DB	05H
	DB	06H
	DB	07H
	DB	08H
	DB	09H
	DB	0aH
	DB	0bH
	DB	0cH
	DB	0dH
	DB	0eH
	DB	0fH
	DB	010H
	DB	011H
	DB	012H
	DB	013H
	DB	014H
	DB	015H
	DB	016H
	DB	017H
	DB	018H
	DB	019H
	DB	01aH
	DB	01bH
	DB	01cH
	DB	01dH
	DB	01eH
	DB	01fH
	DB	020H
	DB	021H
	DB	022H
	DB	023H
	DB	024H
	DB	025H
	DB	026H
	DB	027H
	DB	028H
	DB	029H
	DB	02aH
	DB	02bH
	DB	02cH
	DB	02dH
	DB	02eH
	DB	02fH
	DB	030H
	DB	031H
	DB	032H
	DB	033H
	DB	034H
	DB	035H
	DB	036H
	DB	037H
	DB	038H
	DB	039H
	DB	03aH
	DB	03bH
	DB	03cH
	DB	03dH
	DB	03eH
	DB	03fH
	DB	04H
	DB	04H
	DB	04H
	DB	05H
	DB	05H
	DB	06H
	DB	07H
	DB	08H
	DB	08H
	DB	09H
	DB	0aH
	DB	0bH
	DB	0cH
	DB	0dH
	DB	0eH
	DB	0fH
	DB	010H
	DB	011H
	DB	012H
	DB	013H
	DB	014H
	DB	015H
	DB	016H
	DB	017H
	DB	018H
	DB	019H
	DB	01aH
	DB	01bH
	DB	01cH
	DB	01dH
	DB	01eH
	DB	01fH
	DB	020H
	DB	021H
	DB	022H
	DB	023H
	DB	024H
	DB	025H
	DB	026H
	DB	027H
	DB	028H
	DB	029H
	DB	02aH
	DB	02bH
	DB	02cH
	DB	02dH
	DB	02eH
	DB	02fH
	DB	030H
	DB	031H
	DB	032H
	DB	033H
	DB	034H
	DB	035H
	DB	036H
	DB	037H
	DB	038H
	DB	039H
	DB	03aH
	DB	03bH
	DB	03cH
	DB	03dH
	DB	03eH
	DB	03fH
	DB	05H
	DB	05H
	DB	05H
	DB	05H
	DB	06H
	DB	07H
	DB	07H
	DB	08H
	DB	09H
	DB	0aH
	DB	0bH
	DB	0cH
	DB	0dH
	DB	0dH
	DB	0eH
	DB	0fH
	DB	010H
	DB	011H
	DB	012H
	DB	013H
	DB	014H
	DB	015H
	DB	016H
	DB	017H
	DB	018H
	DB	019H
	DB	01aH
	DB	01bH
	DB	01cH
	DB	01dH
	DB	01eH
	DB	01fH
	DB	020H
	DB	021H
	DB	022H
	DB	023H
	DB	024H
	DB	025H
	DB	026H
	DB	027H
	DB	028H
	DB	029H
	DB	02aH
	DB	02bH
	DB	02cH
	DB	02dH
	DB	02eH
	DB	02fH
	DB	030H
	DB	031H
	DB	032H
	DB	033H
	DB	034H
	DB	035H
	DB	036H
	DB	037H
	DB	038H
	DB	039H
	DB	03aH
	DB	03bH
	DB	03cH
	DB	03dH
	DB	03eH
	DB	03fH
	DB	06H
	DB	06H
	DB	06H
	DB	06H
	DB	07H
	DB	07H
	DB	08H
	DB	09H
	DB	0aH
	DB	0aH
	DB	0bH
	DB	0cH
	DB	0dH
	DB	0eH
	DB	0fH
	DB	010H
	DB	011H
	DB	012H
	DB	012H
	DB	013H
	DB	014H
	DB	015H
	DB	016H
	DB	017H
	DB	018H
	DB	019H
	DB	01aH
	DB	01bH
	DB	01cH
	DB	01dH
	DB	01eH
	DB	01fH
	DB	020H
	DB	021H
	DB	022H
	DB	023H
	DB	024H
	DB	025H
	DB	026H
	DB	027H
	DB	028H
	DB	029H
	DB	02aH
	DB	02bH
	DB	02cH
	DB	02dH
	DB	02eH
	DB	02fH
	DB	030H
	DB	031H
	DB	032H
	DB	033H
	DB	034H
	DB	035H
	DB	036H
	DB	037H
	DB	038H
	DB	039H
	DB	03aH
	DB	03bH
	DB	03cH
	DB	03dH
	DB	03eH
	DB	03fH
	DB	07H
	DB	07H
	DB	07H
	DB	07H
	DB	08H
	DB	08H
	DB	09H
	DB	09H
	DB	0aH
	DB	0bH
	DB	0cH
	DB	0dH
	DB	0dH
	DB	0eH
	DB	0fH
	DB	010H
	DB	011H
	DB	012H
	DB	013H
	DB	014H
	DB	015H
	DB	016H
	DB	017H
	DB	018H
	DB	019H
	DB	019H
	DB	01aH
	DB	01bH
	DB	01cH
	DB	01dH
	DB	01eH
	DB	01fH
	DB	020H
	DB	021H
	DB	022H
	DB	023H
	DB	024H
	DB	025H
	DB	026H
	DB	027H
	DB	028H
	DB	029H
	DB	02aH
	DB	02bH
	DB	02cH
	DB	02dH
	DB	02eH
	DB	02fH
	DB	030H
	DB	031H
	DB	032H
	DB	033H
	DB	034H
	DB	035H
	DB	036H
	DB	037H
	DB	038H
	DB	039H
	DB	03aH
	DB	03bH
	DB	03cH
	DB	03dH
	DB	03eH
	DB	03fH
	DB	08H
	DB	08H
	DB	08H
	DB	08H
	DB	08H
	DB	09H
	DB	0aH
	DB	0aH
	DB	0bH
	DB	0cH
	DB	0cH
	DB	0dH
	DB	0eH
	DB	0fH
	DB	010H
	DB	011H
	DB	011H
	DB	012H
	DB	013H
	DB	014H
	DB	015H
	DB	016H
	DB	017H
	DB	018H
	DB	019H
	DB	01aH
	DB	01bH
	DB	01cH
	DB	01dH
	DB	01eH
	DB	01fH
	DB	020H
	DB	020H
	DB	021H
	DB	022H
	DB	023H
	DB	024H
	DB	025H
	DB	026H
	DB	027H
	DB	028H
	DB	029H
	DB	02aH
	DB	02bH
	DB	02cH
	DB	02dH
	DB	02eH
	DB	02fH
	DB	030H
	DB	031H
	DB	032H
	DB	033H
	DB	034H
	DB	035H
	DB	036H
	DB	037H
	DB	038H
	DB	039H
	DB	03aH
	DB	03bH
	DB	03cH
	DB	03dH
	DB	03eH
	DB	03fH
	DB	09H
	DB	09H
	DB	09H
	DB	09H
	DB	09H
	DB	0aH
	DB	0aH
	DB	0bH
	DB	0cH
	DB	0cH
	DB	0dH
	DB	0eH
	DB	0fH
	DB	0fH
	DB	010H
	DB	011H
	DB	012H
	DB	013H
	DB	014H
	DB	015H
	DB	015H
	DB	016H
	DB	017H
	DB	018H
	DB	019H
	DB	01aH
	DB	01bH
	DB	01cH
	DB	01dH
	DB	01eH
	DB	01fH
	DB	020H
	DB	021H
	DB	022H
	DB	023H
	DB	024H
	DB	025H
	DB	026H
	DB	027H
	DB	028H
	DB	029H
	DB	029H
	DB	02aH
	DB	02bH
	DB	02cH
	DB	02dH
	DB	02eH
	DB	02fH
	DB	030H
	DB	031H
	DB	032H
	DB	033H
	DB	034H
	DB	035H
	DB	036H
	DB	037H
	DB	038H
	DB	039H
	DB	03aH
	DB	03bH
	DB	03cH
	DB	03dH
	DB	03eH
	DB	03fH
	DB	0aH
	DB	0aH
	DB	0aH
	DB	0aH
	DB	0aH
	DB	0bH
	DB	0bH
	DB	0cH
	DB	0cH
	DB	0dH
	DB	0eH
	DB	0eH
	DB	0fH
	DB	010H
	DB	011H
	DB	012H
	DB	012H
	DB	013H
	DB	014H
	DB	015H
	DB	016H
	DB	017H
	DB	018H
	DB	019H
	DB	01aH
	DB	01aH
	DB	01bH
	DB	01cH
	DB	01dH
	DB	01eH
	DB	01fH
	DB	020H
	DB	021H
	DB	022H
	DB	023H
	DB	024H
	DB	025H
	DB	026H
	DB	027H
	DB	028H
	DB	029H
	DB	02aH
	DB	02bH
	DB	02cH
	DB	02dH
	DB	02eH
	DB	02fH
	DB	030H
	DB	031H
	DB	032H
	DB	032H
	DB	033H
	DB	034H
	DB	035H
	DB	036H
	DB	037H
	DB	038H
	DB	039H
	DB	03aH
	DB	03bH
	DB	03cH
	DB	03dH
	DB	03eH
	DB	03fH
	DB	0bH
	DB	0bH
	DB	0bH
	DB	0bH
	DB	0bH
	DB	0cH
	DB	0cH
	DB	0dH
	DB	0dH
	DB	0eH
	DB	0eH
	DB	0fH
	DB	010H
	DB	011H
	DB	011H
	DB	012H
	DB	013H
	DB	014H
	DB	015H
	DB	015H
	DB	016H
	DB	017H
	DB	018H
	DB	019H
	DB	01aH
	DB	01bH
	DB	01cH
	DB	01dH
	DB	01eH
	DB	01fH
	DB	01fH
	DB	020H
	DB	021H
	DB	022H
	DB	023H
	DB	024H
	DB	025H
	DB	026H
	DB	027H
	DB	028H
	DB	029H
	DB	02aH
	DB	02bH
	DB	02cH
	DB	02dH
	DB	02eH
	DB	02fH
	DB	030H
	DB	031H
	DB	032H
	DB	033H
	DB	034H
	DB	035H
	DB	036H
	DB	037H
	DB	038H
	DB	039H
	DB	03aH
	DB	03bH
	DB	03cH
	DB	03dH
	DB	03dH
	DB	03eH
	DB	03fH
	DB	0cH
	DB	0cH
	DB	0cH
	DB	0cH
	DB	0cH
	DB	0dH
	DB	0dH
	DB	0dH
	DB	0eH
	DB	0fH
	DB	0fH
	DB	010H
	DB	010H
	DB	011H
	DB	012H
	DB	013H
	DB	014H
	DB	014H
	DB	015H
	DB	016H
	DB	017H
	DB	018H
	DB	019H
	DB	019H
	DB	01aH
	DB	01bH
	DB	01cH
	DB	01dH
	DB	01eH
	DB	01fH
	DB	020H
	DB	021H
	DB	022H
	DB	023H
	DB	024H
	DB	025H
	DB	025H
	DB	026H
	DB	027H
	DB	028H
	DB	029H
	DB	02aH
	DB	02bH
	DB	02cH
	DB	02dH
	DB	02eH
	DB	02fH
	DB	030H
	DB	031H
	DB	032H
	DB	033H
	DB	034H
	DB	035H
	DB	036H
	DB	037H
	DB	038H
	DB	039H
	DB	03aH
	DB	03bH
	DB	03cH
	DB	03dH
	DB	03eH
	DB	03fH
	DB	040H
	DB	0dH
	DB	0dH
	DB	0dH
	DB	0dH
	DB	0dH
	DB	0dH
	DB	0eH
	DB	0eH
	DB	0fH
	DB	0fH
	DB	010H
	DB	011H
	DB	011H
	DB	012H
	DB	013H
	DB	013H
	DB	014H
	DB	015H
	DB	016H
	DB	017H
	DB	017H
	DB	018H
	DB	019H
	DB	01aH
	DB	01bH
	DB	01cH
	DB	01dH
	DB	01dH
	DB	01eH
	DB	01fH
	DB	020H
	DB	021H
	DB	022H
	DB	023H
	DB	024H
	DB	025H
	DB	026H
	DB	027H
	DB	028H
	DB	029H
	DB	02aH
	DB	02bH
	DB	02bH
	DB	02cH
	DB	02dH
	DB	02eH
	DB	02fH
	DB	030H
	DB	031H
	DB	032H
	DB	033H
	DB	034H
	DB	035H
	DB	036H
	DB	037H
	DB	038H
	DB	039H
	DB	03aH
	DB	03bH
	DB	03cH
	DB	03dH
	DB	03eH
	DB	03fH
	DB	040H
	DB	0eH
	DB	0eH
	DB	0eH
	DB	0eH
	DB	0eH
	DB	0eH
	DB	0fH
	DB	0fH
	DB	010H
	DB	010H
	DB	011H
	DB	011H
	DB	012H
	DB	013H
	DB	013H
	DB	014H
	DB	015H
	DB	016H
	DB	016H
	DB	017H
	DB	018H
	DB	019H
	DB	01aH
	DB	01aH
	DB	01bH
	DB	01cH
	DB	01dH
	DB	01eH
	DB	01fH
	DB	020H
	DB	021H
	DB	022H
	DB	022H
	DB	023H
	DB	024H
	DB	025H
	DB	026H
	DB	027H
	DB	028H
	DB	029H
	DB	02aH
	DB	02bH
	DB	02cH
	DB	02dH
	DB	02eH
	DB	02fH
	DB	030H
	DB	031H
	DB	032H
	DB	032H
	DB	033H
	DB	034H
	DB	035H
	DB	036H
	DB	037H
	DB	038H
	DB	039H
	DB	03aH
	DB	03bH
	DB	03cH
	DB	03dH
	DB	03eH
	DB	03fH
	DB	040H
	DB	0fH
	DB	0fH
	DB	0fH
	DB	0fH
	DB	0fH
	DB	0fH
	DB	010H
	DB	010H
	DB	011H
	DB	011H
	DB	012H
	DB	012H
	DB	013H
	DB	013H
	DB	014H
	DB	015H
	DB	015H
	DB	016H
	DB	017H
	DB	018H
	DB	019H
	DB	019H
	DB	01aH
	DB	01bH
	DB	01cH
	DB	01dH
	DB	01eH
	DB	01eH
	DB	01fH
	DB	020H
	DB	021H
	DB	022H
	DB	023H
	DB	024H
	DB	025H
	DB	026H
	DB	027H
	DB	027H
	DB	028H
	DB	029H
	DB	02aH
	DB	02bH
	DB	02cH
	DB	02dH
	DB	02eH
	DB	02fH
	DB	030H
	DB	031H
	DB	032H
	DB	033H
	DB	034H
	DB	035H
	DB	036H
	DB	037H
	DB	038H
	DB	039H
	DB	039H
	DB	03aH
	DB	03bH
	DB	03cH
	DB	03dH
	DB	03eH
	DB	03fH
	DB	040H
	DB	010H
	DB	010H
	DB	010H
	DB	010H
	DB	010H
	DB	010H
	DB	011H
	DB	011H
	DB	011H
	DB	012H
	DB	012H
	DB	013H
	DB	014H
	DB	014H
	DB	015H
	DB	015H
	DB	016H
	DB	017H
	DB	018H
	DB	018H
	DB	019H
	DB	01aH
	DB	01bH
	DB	01cH
	DB	01cH
	DB	01dH
	DB	01eH
	DB	01fH
	DB	020H
	DB	021H
	DB	022H
	DB	022H
	DB	023H
	DB	024H
	DB	025H
	DB	026H
	DB	027H
	DB	028H
	DB	029H
	DB	02aH
	DB	02bH
	DB	02cH
	DB	02cH
	DB	02dH
	DB	02eH
	DB	02fH
	DB	030H
	DB	031H
	DB	032H
	DB	033H
	DB	034H
	DB	035H
	DB	036H
	DB	037H
	DB	038H
	DB	039H
	DB	03aH
	DB	03bH
	DB	03cH
	DB	03dH
	DB	03eH
	DB	03fH
	DB	040H
	DB	041H
	DB	011H
	DB	011H
	DB	011H
	DB	011H
	DB	011H
	DB	011H
	DB	012H
	DB	012H
	DB	012H
	DB	013H
	DB	013H
	DB	014H
	DB	014H
	DB	015H
	DB	016H
	DB	016H
	DB	017H
	DB	018H
	DB	018H
	DB	019H
	DB	01aH
	DB	01bH
	DB	01bH
	DB	01cH
	DB	01dH
	DB	01eH
	DB	01fH
	DB	01fH
	DB	020H
	DB	021H
	DB	022H
	DB	023H
	DB	024H
	DB	025H
	DB	026H
	DB	026H
	DB	027H
	DB	028H
	DB	029H
	DB	02aH
	DB	02bH
	DB	02cH
	DB	02dH
	DB	02eH
	DB	02fH
	DB	030H
	DB	031H
	DB	031H
	DB	032H
	DB	033H
	DB	034H
	DB	035H
	DB	036H
	DB	037H
	DB	038H
	DB	039H
	DB	03aH
	DB	03bH
	DB	03cH
	DB	03dH
	DB	03eH
	DB	03fH
	DB	040H
	DB	041H
	DB	012H
	DB	012H
	DB	012H
	DB	012H
	DB	012H
	DB	012H
	DB	012H
	DB	013H
	DB	013H
	DB	014H
	DB	014H
	DB	015H
	DB	015H
	DB	016H
	DB	016H
	DB	017H
	DB	018H
	DB	018H
	DB	019H
	DB	01aH
	DB	01aH
	DB	01bH
	DB	01cH
	DB	01dH
	DB	01eH
	DB	01eH
	DB	01fH
	DB	020H
	DB	021H
	DB	022H
	DB	022H
	DB	023H
	DB	024H
	DB	025H
	DB	026H
	DB	027H
	DB	028H
	DB	029H
	DB	02aH
	DB	02aH
	DB	02bH
	DB	02cH
	DB	02dH
	DB	02eH
	DB	02fH
	DB	030H
	DB	031H
	DB	032H
	DB	033H
	DB	034H
	DB	035H
	DB	036H
	DB	037H
	DB	037H
	DB	038H
	DB	039H
	DB	03aH
	DB	03bH
	DB	03cH
	DB	03dH
	DB	03eH
	DB	03fH
	DB	040H
	DB	041H
	DB	013H
	DB	013H
	DB	013H
	DB	013H
	DB	013H
	DB	013H
	DB	013H
	DB	014H
	DB	014H
	DB	015H
	DB	015H
	DB	015H
	DB	016H
	DB	017H
	DB	017H
	DB	018H
	DB	018H
	DB	019H
	DB	01aH
	DB	01aH
	DB	01bH
	DB	01cH
	DB	01dH
	DB	01dH
	DB	01eH
	DB	01fH
	DB	020H
	DB	021H
	DB	021H
	DB	022H
	DB	023H
	DB	024H
	DB	025H
	DB	026H
	DB	026H
	DB	027H
	DB	028H
	DB	029H
	DB	02aH
	DB	02bH
	DB	02cH
	DB	02dH
	DB	02eH
	DB	02fH
	DB	02fH
	DB	030H
	DB	031H
	DB	032H
	DB	033H
	DB	034H
	DB	035H
	DB	036H
	DB	037H
	DB	038H
	DB	039H
	DB	03aH
	DB	03bH
	DB	03cH
	DB	03dH
	DB	03dH
	DB	03eH
	DB	03fH
	DB	040H
	DB	041H
	DB	014H
	DB	014H
	DB	014H
	DB	014H
	DB	014H
	DB	014H
	DB	014H
	DB	015H
	DB	015H
	DB	015H
	DB	016H
	DB	016H
	DB	017H
	DB	017H
	DB	018H
	DB	019H
	DB	019H
	DB	01aH
	DB	01aH
	DB	01bH
	DB	01cH
	DB	01dH
	DB	01dH
	DB	01eH
	DB	01fH
	DB	020H
	DB	020H
	DB	021H
	DB	022H
	DB	023H
	DB	024H
	DB	024H
	DB	025H
	DB	026H
	DB	027H
	DB	028H
	DB	029H
	DB	02aH
	DB	02aH
	DB	02bH
	DB	02cH
	DB	02dH
	DB	02eH
	DB	02fH
	DB	030H
	DB	031H
	DB	032H
	DB	033H
	DB	034H
	DB	034H
	DB	035H
	DB	036H
	DB	037H
	DB	038H
	DB	039H
	DB	03aH
	DB	03bH
	DB	03cH
	DB	03dH
	DB	03eH
	DB	03fH
	DB	040H
	DB	041H
	DB	042H
	DB	015H
	DB	015H
	DB	015H
	DB	015H
	DB	015H
	DB	015H
	DB	015H
	DB	016H
	DB	016H
	DB	016H
	DB	017H
	DB	017H
	DB	018H
	DB	018H
	DB	019H
	DB	019H
	DB	01aH
	DB	01bH
	DB	01bH
	DB	01cH
	DB	01dH
	DB	01dH
	DB	01eH
	DB	01fH
	DB	01fH
	DB	020H
	DB	021H
	DB	022H
	DB	023H
	DB	023H
	DB	024H
	DB	025H
	DB	026H
	DB	027H
	DB	027H
	DB	028H
	DB	029H
	DB	02aH
	DB	02bH
	DB	02cH
	DB	02dH
	DB	02eH
	DB	02eH
	DB	02fH
	DB	030H
	DB	031H
	DB	032H
	DB	033H
	DB	034H
	DB	035H
	DB	036H
	DB	037H
	DB	038H
	DB	039H
	DB	039H
	DB	03aH
	DB	03bH
	DB	03cH
	DB	03dH
	DB	03eH
	DB	03fH
	DB	040H
	DB	041H
	DB	042H
	DB	016H
	DB	016H
	DB	016H
	DB	016H
	DB	016H
	DB	016H
	DB	016H
	DB	017H
	DB	017H
	DB	017H
	DB	018H
	DB	018H
	DB	019H
	DB	019H
	DB	01aH
	DB	01aH
	DB	01bH
	DB	01bH
	DB	01cH
	DB	01dH
	DB	01dH
	DB	01eH
	DB	01fH
	DB	01fH
	DB	020H
	DB	021H
	DB	022H
	DB	022H
	DB	023H
	DB	024H
	DB	025H
	DB	026H
	DB	026H
	DB	027H
	DB	028H
	DB	029H
	DB	02aH
	DB	02bH
	DB	02bH
	DB	02cH
	DB	02dH
	DB	02eH
	DB	02fH
	DB	030H
	DB	031H
	DB	032H
	DB	032H
	DB	033H
	DB	034H
	DB	035H
	DB	036H
	DB	037H
	DB	038H
	DB	039H
	DB	03aH
	DB	03bH
	DB	03cH
	DB	03dH
	DB	03eH
	DB	03eH
	DB	03fH
	DB	040H
	DB	041H
	DB	042H
	DB	017H
	DB	017H
	DB	017H
	DB	017H
	DB	017H
	DB	017H
	DB	017H
	DB	018H
	DB	018H
	DB	018H
	DB	019H
	DB	019H
	DB	019H
	DB	01aH
	DB	01aH
	DB	01bH
	DB	01cH
	DB	01cH
	DB	01dH
	DB	01dH
	DB	01eH
	DB	01fH
	DB	01fH
	DB	020H
	DB	021H
	DB	021H
	DB	022H
	DB	023H
	DB	024H
	DB	025H
	DB	025H
	DB	026H
	DB	027H
	DB	028H
	DB	029H
	DB	029H
	DB	02aH
	DB	02bH
	DB	02cH
	DB	02dH
	DB	02eH
	DB	02fH
	DB	02fH
	DB	030H
	DB	031H
	DB	032H
	DB	033H
	DB	034H
	DB	035H
	DB	036H
	DB	037H
	DB	037H
	DB	038H
	DB	039H
	DB	03aH
	DB	03bH
	DB	03cH
	DB	03dH
	DB	03eH
	DB	03fH
	DB	040H
	DB	041H
	DB	042H
	DB	043H
	DB	018H
	DB	018H
	DB	018H
	DB	018H
	DB	018H
	DB	018H
	DB	018H
	DB	019H
	DB	019H
	DB	019H
	DB	01aH
	DB	01aH
	DB	01aH
	DB	01bH
	DB	01bH
	DB	01cH
	DB	01cH
	DB	01dH
	DB	01eH
	DB	01eH
	DB	01fH
	DB	01fH
	DB	020H
	DB	021H
	DB	021H
	DB	022H
	DB	023H
	DB	024H
	DB	024H
	DB	025H
	DB	026H
	DB	027H
	DB	028H
	DB	028H
	DB	029H
	DB	02aH
	DB	02bH
	DB	02cH
	DB	02cH
	DB	02dH
	DB	02eH
	DB	02fH
	DB	030H
	DB	031H
	DB	032H
	DB	033H
	DB	033H
	DB	034H
	DB	035H
	DB	036H
	DB	037H
	DB	038H
	DB	039H
	DB	03aH
	DB	03bH
	DB	03cH
	DB	03cH
	DB	03dH
	DB	03eH
	DB	03fH
	DB	040H
	DB	041H
	DB	042H
	DB	043H
	DB	019H
	DB	019H
	DB	019H
	DB	019H
	DB	019H
	DB	019H
	DB	019H
	DB	019H
	DB	01aH
	DB	01aH
	DB	01aH
	DB	01bH
	DB	01bH
	DB	01cH
	DB	01cH
	DB	01dH
	DB	01dH
	DB	01eH
	DB	01eH
	DB	01fH
	DB	020H
	DB	020H
	DB	021H
	DB	021H
	DB	022H
	DB	023H
	DB	024H
	DB	024H
	DB	025H
	DB	026H
	DB	027H
	DB	027H
	DB	028H
	DB	029H
	DB	02aH
	DB	02bH
	DB	02bH
	DB	02cH
	DB	02dH
	DB	02eH
	DB	02fH
	DB	030H
	DB	030H
	DB	031H
	DB	032H
	DB	033H
	DB	034H
	DB	035H
	DB	036H
	DB	037H
	DB	037H
	DB	038H
	DB	039H
	DB	03aH
	DB	03bH
	DB	03cH
	DB	03dH
	DB	03eH
	DB	03fH
	DB	040H
	DB	041H
	DB	041H
	DB	042H
	DB	043H
	DB	01aH
	DB	01aH
	DB	01aH
	DB	01aH
	DB	01aH
	DB	01aH
	DB	01aH
	DB	01aH
	DB	01bH
	DB	01bH
	DB	01bH
	DB	01cH
	DB	01cH
	DB	01dH
	DB	01dH
	DB	01eH
	DB	01eH
	DB	01fH
	DB	01fH
	DB	020H
	DB	020H
	DB	021H
	DB	022H
	DB	022H
	DB	023H
	DB	024H
	DB	024H
	DB	025H
	DB	026H
	DB	026H
	DB	027H
	DB	028H
	DB	029H
	DB	02aH
	DB	02aH
	DB	02bH
	DB	02cH
	DB	02dH
	DB	02eH
	DB	02eH
	DB	02fH
	DB	030H
	DB	031H
	DB	032H
	DB	033H
	DB	033H
	DB	034H
	DB	035H
	DB	036H
	DB	037H
	DB	038H
	DB	039H
	DB	03aH
	DB	03bH
	DB	03bH
	DB	03cH
	DB	03dH
	DB	03eH
	DB	03fH
	DB	040H
	DB	041H
	DB	042H
	DB	043H
	DB	044H
	DB	01bH
	DB	01bH
	DB	01bH
	DB	01bH
	DB	01bH
	DB	01bH
	DB	01bH
	DB	01bH
	DB	01cH
	DB	01cH
	DB	01cH
	DB	01dH
	DB	01dH
	DB	01dH
	DB	01eH
	DB	01eH
	DB	01fH
	DB	01fH
	DB	020H
	DB	021H
	DB	021H
	DB	022H
	DB	022H
	DB	023H
	DB	024H
	DB	024H
	DB	025H
	DB	026H
	DB	026H
	DB	027H
	DB	028H
	DB	029H
	DB	029H
	DB	02aH
	DB	02bH
	DB	02cH
	DB	02dH
	DB	02dH
	DB	02eH
	DB	02fH
	DB	030H
	DB	031H
	DB	031H
	DB	032H
	DB	033H
	DB	034H
	DB	035H
	DB	036H
	DB	037H
	DB	037H
	DB	038H
	DB	039H
	DB	03aH
	DB	03bH
	DB	03cH
	DB	03dH
	DB	03eH
	DB	03fH
	DB	03fH
	DB	040H
	DB	041H
	DB	042H
	DB	043H
	DB	044H
	DB	01cH
	DB	01cH
	DB	01cH
	DB	01cH
	DB	01cH
	DB	01cH
	DB	01cH
	DB	01cH
	DB	01dH
	DB	01dH
	DB	01dH
	DB	01eH
	DB	01eH
	DB	01eH
	DB	01fH
	DB	01fH
	DB	020H
	DB	020H
	DB	021H
	DB	021H
	DB	022H
	DB	023H
	DB	023H
	DB	024H
	DB	024H
	DB	025H
	DB	026H
	DB	026H
	DB	027H
	DB	028H
	DB	029H
	DB	029H
	DB	02aH
	DB	02bH
	DB	02cH
	DB	02cH
	DB	02dH
	DB	02eH
	DB	02fH
	DB	030H
	DB	030H
	DB	031H
	DB	032H
	DB	033H
	DB	034H
	DB	035H
	DB	035H
	DB	036H
	DB	037H
	DB	038H
	DB	039H
	DB	03aH
	DB	03bH
	DB	03bH
	DB	03cH
	DB	03dH
	DB	03eH
	DB	03fH
	DB	040H
	DB	041H
	DB	042H
	DB	043H
	DB	044H
	DB	044H
	DB	01dH
	DB	01dH
	DB	01dH
	DB	01dH
	DB	01dH
	DB	01dH
	DB	01dH
	DB	01dH
	DB	01eH
	DB	01eH
	DB	01eH
	DB	01fH
	DB	01fH
	DB	01fH
	DB	020H
	DB	020H
	DB	021H
	DB	021H
	DB	022H
	DB	022H
	DB	023H
	DB	023H
	DB	024H
	DB	025H
	DB	025H
	DB	026H
	DB	026H
	DB	027H
	DB	028H
	DB	029H
	DB	029H
	DB	02aH
	DB	02bH
	DB	02bH
	DB	02cH
	DB	02dH
	DB	02eH
	DB	02fH
	DB	02fH
	DB	030H
	DB	031H
	DB	032H
	DB	033H
	DB	033H
	DB	034H
	DB	035H
	DB	036H
	DB	037H
	DB	038H
	DB	038H
	DB	039H
	DB	03aH
	DB	03bH
	DB	03cH
	DB	03dH
	DB	03eH
	DB	03fH
	DB	03fH
	DB	040H
	DB	041H
	DB	042H
	DB	043H
	DB	044H
	DB	045H
	DB	01eH
	DB	01eH
	DB	01eH
	DB	01eH
	DB	01eH
	DB	01eH
	DB	01eH
	DB	01eH
	DB	01fH
	DB	01fH
	DB	01fH
	DB	01fH
	DB	020H
	DB	020H
	DB	021H
	DB	021H
	DB	022H
	DB	022H
	DB	022H
	DB	023H
	DB	024H
	DB	024H
	DB	025H
	DB	025H
	DB	026H
	DB	027H
	DB	027H
	DB	028H
	DB	029H
	DB	029H
	DB	02aH
	DB	02bH
	DB	02bH
	DB	02cH
	DB	02dH
	DB	02eH
	DB	02eH
	DB	02fH
	DB	030H
	DB	031H
	DB	032H
	DB	032H
	DB	033H
	DB	034H
	DB	035H
	DB	036H
	DB	036H
	DB	037H
	DB	038H
	DB	039H
	DB	03aH
	DB	03bH
	DB	03cH
	DB	03cH
	DB	03dH
	DB	03eH
	DB	03fH
	DB	040H
	DB	041H
	DB	042H
	DB	043H
	DB	043H
	DB	044H
	DB	045H
	DB	01fH
	DB	01fH
	DB	01fH
	DB	01fH
	DB	01fH
	DB	01fH
	DB	01fH
	DB	01fH
	DB	020H
	DB	020H
	DB	020H
	DB	020H
	DB	021H
	DB	021H
	DB	022H
	DB	022H
	DB	022H
	DB	023H
	DB	023H
	DB	024H
	DB	024H
	DB	025H
	DB	026H
	DB	026H
	DB	027H
	DB	027H
	DB	028H
	DB	029H
	DB	029H
	DB	02aH
	DB	02bH
	DB	02bH
	DB	02cH
	DB	02dH
	DB	02eH
	DB	02eH
	DB	02fH
	DB	030H
	DB	031H
	DB	031H
	DB	032H
	DB	033H
	DB	034H
	DB	035H
	DB	035H
	DB	036H
	DB	037H
	DB	038H
	DB	039H
	DB	039H
	DB	03aH
	DB	03bH
	DB	03cH
	DB	03dH
	DB	03eH
	DB	03fH
	DB	040H
	DB	040H
	DB	041H
	DB	042H
	DB	043H
	DB	044H
	DB	045H
	DB	046H
	DB	020H
	DB	020H
	DB	020H
	DB	020H
	DB	020H
	DB	020H
	DB	020H
	DB	020H
	DB	020H
	DB	021H
	DB	021H
	DB	021H
	DB	022H
	DB	022H
	DB	022H
	DB	023H
	DB	023H
	DB	024H
	DB	024H
	DB	025H
	DB	025H
	DB	026H
	DB	026H
	DB	027H
	DB	028H
	DB	028H
	DB	029H
	DB	029H
	DB	02aH
	DB	02bH
	DB	02bH
	DB	02cH
	DB	02dH
	DB	02dH
	DB	02eH
	DB	02fH
	DB	030H
	DB	030H
	DB	031H
	DB	032H
	DB	033H
	DB	034H
	DB	034H
	DB	035H
	DB	036H
	DB	037H
	DB	038H
	DB	038H
	DB	039H
	DB	03aH
	DB	03bH
	DB	03cH
	DB	03dH
	DB	03dH
	DB	03eH
	DB	03fH
	DB	040H
	DB	041H
	DB	042H
	DB	043H
	DB	044H
	DB	044H
	DB	045H
	DB	046H
	DB	021H
	DB	021H
	DB	021H
	DB	021H
	DB	021H
	DB	021H
	DB	021H
	DB	021H
	DB	021H
	DB	022H
	DB	022H
	DB	022H
	DB	023H
	DB	023H
	DB	023H
	DB	024H
	DB	024H
	DB	025H
	DB	025H
	DB	026H
	DB	026H
	DB	027H
	DB	027H
	DB	028H
	DB	028H
	DB	029H
	DB	02aH
	DB	02aH
	DB	02bH
	DB	02bH
	DB	02cH
	DB	02dH
	DB	02dH
	DB	02eH
	DB	02fH
	DB	030H
	DB	030H
	DB	031H
	DB	032H
	DB	033H
	DB	033H
	DB	034H
	DB	035H
	DB	036H
	DB	037H
	DB	037H
	DB	038H
	DB	039H
	DB	03aH
	DB	03bH
	DB	03bH
	DB	03cH
	DB	03dH
	DB	03eH
	DB	03fH
	DB	040H
	DB	041H
	DB	041H
	DB	042H
	DB	043H
	DB	044H
	DB	045H
	DB	046H
	DB	047H
	DB	022H
	DB	022H
	DB	022H
	DB	022H
	DB	022H
	DB	022H
	DB	022H
	DB	022H
	DB	022H
	DB	023H
	DB	023H
	DB	023H
	DB	024H
	DB	024H
	DB	024H
	DB	025H
	DB	025H
	DB	026H
	DB	026H
	DB	026H
	DB	027H
	DB	027H
	DB	028H
	DB	029H
	DB	029H
	DB	02aH
	DB	02aH
	DB	02bH
	DB	02cH
	DB	02cH
	DB	02dH
	DB	02eH
	DB	02eH
	DB	02fH
	DB	030H
	DB	030H
	DB	031H
	DB	032H
	DB	032H
	DB	033H
	DB	034H
	DB	035H
	DB	036H
	DB	036H
	DB	037H
	DB	038H
	DB	039H
	DB	03aH
	DB	03aH
	DB	03bH
	DB	03cH
	DB	03dH
	DB	03eH
	DB	03eH
	DB	03fH
	DB	040H
	DB	041H
	DB	042H
	DB	043H
	DB	044H
	DB	044H
	DB	045H
	DB	046H
	DB	047H
	DB	023H
	DB	023H
	DB	023H
	DB	023H
	DB	023H
	DB	023H
	DB	023H
	DB	023H
	DB	023H
	DB	024H
	DB	024H
	DB	024H
	DB	025H
	DB	025H
	DB	025H
	DB	026H
	DB	026H
	DB	026H
	DB	027H
	DB	027H
	DB	028H
	DB	028H
	DB	029H
	DB	029H
	DB	02aH
	DB	02bH
	DB	02bH
	DB	02cH
	DB	02cH
	DB	02dH
	DB	02eH
	DB	02eH
	DB	02fH
	DB	030H
	DB	030H
	DB	031H
	DB	032H
	DB	032H
	DB	033H
	DB	034H
	DB	035H
	DB	035H
	DB	036H
	DB	037H
	DB	038H
	DB	039H
	DB	039H
	DB	03aH
	DB	03bH
	DB	03cH
	DB	03dH
	DB	03dH
	DB	03eH
	DB	03fH
	DB	040H
	DB	041H
	DB	042H
	DB	042H
	DB	043H
	DB	044H
	DB	045H
	DB	046H
	DB	047H
	DB	048H
	DB	024H
	DB	024H
	DB	024H
	DB	024H
	DB	024H
	DB	024H
	DB	024H
	DB	024H
	DB	024H
	DB	025H
	DB	025H
	DB	025H
	DB	025H
	DB	026H
	DB	026H
	DB	027H
	DB	027H
	DB	027H
	DB	028H
	DB	028H
	DB	029H
	DB	029H
	DB	02aH
	DB	02aH
	DB	02bH
	DB	02bH
	DB	02cH
	DB	02dH
	DB	02dH
	DB	02eH
	DB	02eH
	DB	02fH
	DB	030H
	DB	030H
	DB	031H
	DB	032H
	DB	032H
	DB	033H
	DB	034H
	DB	035H
	DB	035H
	DB	036H
	DB	037H
	DB	038H
	DB	038H
	DB	039H
	DB	03aH
	DB	03bH
	DB	03cH
	DB	03cH
	DB	03dH
	DB	03eH
	DB	03fH
	DB	040H
	DB	040H
	DB	041H
	DB	042H
	DB	043H
	DB	044H
	DB	045H
	DB	045H
	DB	046H
	DB	047H
	DB	048H
	DB	025H
	DB	025H
	DB	025H
	DB	025H
	DB	025H
	DB	025H
	DB	025H
	DB	025H
	DB	025H
	DB	026H
	DB	026H
	DB	026H
	DB	026H
	DB	027H
	DB	027H
	DB	027H
	DB	028H
	DB	028H
	DB	029H
	DB	029H
	DB	02aH
	DB	02aH
	DB	02bH
	DB	02bH
	DB	02cH
	DB	02cH
	DB	02dH
	DB	02dH
	DB	02eH
	DB	02fH
	DB	02fH
	DB	030H
	DB	030H
	DB	031H
	DB	032H
	DB	032H
	DB	033H
	DB	034H
	DB	035H
	DB	035H
	DB	036H
	DB	037H
	DB	037H
	DB	038H
	DB	039H
	DB	03aH
	DB	03bH
	DB	03bH
	DB	03cH
	DB	03dH
	DB	03eH
	DB	03fH
	DB	03fH
	DB	040H
	DB	041H
	DB	042H
	DB	043H
	DB	043H
	DB	044H
	DB	045H
	DB	046H
	DB	047H
	DB	048H
	DB	049H
	DB	026H
	DB	026H
	DB	026H
	DB	026H
	DB	026H
	DB	026H
	DB	026H
	DB	026H
	DB	026H
	DB	027H
	DB	027H
	DB	027H
	DB	027H
	DB	028H
	DB	028H
	DB	028H
	DB	029H
	DB	029H
	DB	02aH
	DB	02aH
	DB	02aH
	DB	02bH
	DB	02bH
	DB	02cH
	DB	02cH
	DB	02dH
	DB	02eH
	DB	02eH
	DB	02fH
	DB	02fH
	DB	030H
	DB	031H
	DB	031H
	DB	032H
	DB	032H
	DB	033H
	DB	034H
	DB	035H
	DB	035H
	DB	036H
	DB	037H
	DB	037H
	DB	038H
	DB	039H
	DB	03aH
	DB	03aH
	DB	03bH
	DB	03cH
	DB	03dH
	DB	03eH
	DB	03eH
	DB	03fH
	DB	040H
	DB	041H
	DB	042H
	DB	042H
	DB	043H
	DB	044H
	DB	045H
	DB	046H
	DB	047H
	DB	047H
	DB	048H
	DB	049H
	DB	027H
	DB	027H
	DB	027H
	DB	027H
	DB	027H
	DB	027H
	DB	027H
	DB	027H
	DB	027H
	DB	028H
	DB	028H
	DB	028H
	DB	028H
	DB	029H
	DB	029H
	DB	029H
	DB	02aH
	DB	02aH
	DB	02aH
	DB	02bH
	DB	02bH
	DB	02cH
	DB	02cH
	DB	02dH
	DB	02dH
	DB	02eH
	DB	02eH
	DB	02fH
	DB	030H
	DB	030H
	DB	031H
	DB	031H
	DB	032H
	DB	033H
	DB	033H
	DB	034H
	DB	035H
	DB	035H
	DB	036H
	DB	037H
	DB	037H
	DB	038H
	DB	039H
	DB	03aH
	DB	03aH
	DB	03bH
	DB	03cH
	DB	03dH
	DB	03dH
	DB	03eH
	DB	03fH
	DB	040H
	DB	041H
	DB	041H
	DB	042H
	DB	043H
	DB	044H
	DB	045H
	DB	045H
	DB	046H
	DB	047H
	DB	048H
	DB	049H
	DB	04aH
	DB	028H
	DB	028H
	DB	028H
	DB	028H
	DB	028H
	DB	028H
	DB	028H
	DB	028H
	DB	028H
	DB	029H
	DB	029H
	DB	029H
	DB	029H
	DB	02aH
	DB	02aH
	DB	02aH
	DB	02bH
	DB	02bH
	DB	02bH
	DB	02cH
	DB	02cH
	DB	02dH
	DB	02dH
	DB	02eH
	DB	02eH
	DB	02fH
	DB	02fH
	DB	030H
	DB	030H
	DB	031H
	DB	032H
	DB	032H
	DB	033H
	DB	033H
	DB	034H
	DB	035H
	DB	035H
	DB	036H
	DB	037H
	DB	037H
	DB	038H
	DB	039H
	DB	03aH
	DB	03aH
	DB	03bH
	DB	03cH
	DB	03cH
	DB	03dH
	DB	03eH
	DB	03fH
	DB	040H
	DB	040H
	DB	041H
	DB	042H
	DB	043H
	DB	044H
	DB	044H
	DB	045H
	DB	046H
	DB	047H
	DB	048H
	DB	048H
	DB	049H
	DB	04aH
	DB	029H
	DB	029H
	DB	029H
	DB	029H
	DB	029H
	DB	029H
	DB	029H
	DB	029H
	DB	029H
	DB	029H
	DB	02aH
	DB	02aH
	DB	02aH
	DB	02bH
	DB	02bH
	DB	02bH
	DB	02cH
	DB	02cH
	DB	02cH
	DB	02dH
	DB	02dH
	DB	02eH
	DB	02eH
	DB	02fH
	DB	02fH
	DB	030H
	DB	030H
	DB	031H
	DB	031H
	DB	032H
	DB	032H
	DB	033H
	DB	034H
	DB	034H
	DB	035H
	DB	035H
	DB	036H
	DB	037H
	DB	037H
	DB	038H
	DB	039H
	DB	039H
	DB	03aH
	DB	03bH
	DB	03cH
	DB	03cH
	DB	03dH
	DB	03eH
	DB	03fH
	DB	03fH
	DB	040H
	DB	041H
	DB	042H
	DB	043H
	DB	043H
	DB	044H
	DB	045H
	DB	046H
	DB	047H
	DB	047H
	DB	048H
	DB	049H
	DB	04aH
	DB	04bH
	DB	02aH
	DB	02aH
	DB	02aH
	DB	02aH
	DB	02aH
	DB	02aH
	DB	02aH
	DB	02aH
	DB	02aH
	DB	02aH
	DB	02bH
	DB	02bH
	DB	02bH
	DB	02bH
	DB	02cH
	DB	02cH
	DB	02cH
	DB	02dH
	DB	02dH
	DB	02eH
	DB	02eH
	DB	02eH
	DB	02fH
	DB	02fH
	DB	030H
	DB	030H
	DB	031H
	DB	031H
	DB	032H
	DB	033H
	DB	033H
	DB	034H
	DB	034H
	DB	035H
	DB	036H
	DB	036H
	DB	037H
	DB	037H
	DB	038H
	DB	039H
	DB	03aH
	DB	03aH
	DB	03bH
	DB	03cH
	DB	03cH
	DB	03dH
	DB	03eH
	DB	03fH
	DB	03fH
	DB	040H
	DB	041H
	DB	042H
	DB	042H
	DB	043H
	DB	044H
	DB	045H
	DB	046H
	DB	046H
	DB	047H
	DB	048H
	DB	049H
	DB	04aH
	DB	04aH
	DB	04bH
	DB	02bH
	DB	02bH
	DB	02bH
	DB	02bH
	DB	02bH
	DB	02bH
	DB	02bH
	DB	02bH
	DB	02bH
	DB	02bH
	DB	02cH
	DB	02cH
	DB	02cH
	DB	02cH
	DB	02dH
	DB	02dH
	DB	02dH
	DB	02eH
	DB	02eH
	DB	02fH
	DB	02fH
	DB	02fH
	DB	030H
	DB	030H
	DB	031H
	DB	031H
	DB	032H
	DB	032H
	DB	033H
	DB	033H
	DB	034H
	DB	035H
	DB	035H
	DB	036H
	DB	036H
	DB	037H
	DB	038H
	DB	038H
	DB	039H
	DB	03aH
	DB	03aH
	DB	03bH
	DB	03cH
	DB	03cH
	DB	03dH
	DB	03eH
	DB	03eH
	DB	03fH
	DB	040H
	DB	041H
	DB	041H
	DB	042H
	DB	043H
	DB	044H
	DB	045H
	DB	045H
	DB	046H
	DB	047H
	DB	048H
	DB	049H
	DB	049H
	DB	04aH
	DB	04bH
	DB	04cH
	DB	02cH
	DB	02cH
	DB	02cH
	DB	02cH
	DB	02cH
	DB	02cH
	DB	02cH
	DB	02cH
	DB	02cH
	DB	02cH
	DB	02dH
	DB	02dH
	DB	02dH
	DB	02dH
	DB	02eH
	DB	02eH
	DB	02eH
	DB	02fH
	DB	02fH
	DB	02fH
	DB	030H
	DB	030H
	DB	031H
	DB	031H
	DB	032H
	DB	032H
	DB	033H
	DB	033H
	DB	034H
	DB	034H
	DB	035H
	DB	035H
	DB	036H
	DB	037H
	DB	037H
	DB	038H
	DB	038H
	DB	039H
	DB	03aH
	DB	03aH
	DB	03bH
	DB	03cH
	DB	03cH
	DB	03dH
	DB	03eH
	DB	03eH
	DB	03fH
	DB	040H
	DB	041H
	DB	041H
	DB	042H
	DB	043H
	DB	044H
	DB	044H
	DB	045H
	DB	046H
	DB	047H
	DB	048H
	DB	048H
	DB	049H
	DB	04aH
	DB	04bH
	DB	04cH
	DB	04cH
	DB	02dH
	DB	02dH
	DB	02dH
	DB	02dH
	DB	02dH
	DB	02dH
	DB	02dH
	DB	02dH
	DB	02dH
	DB	02dH
	DB	02eH
	DB	02eH
	DB	02eH
	DB	02eH
	DB	02fH
	DB	02fH
	DB	02fH
	DB	030H
	DB	030H
	DB	030H
	DB	031H
	DB	031H
	DB	032H
	DB	032H
	DB	033H
	DB	033H
	DB	033H
	DB	034H
	DB	035H
	DB	035H
	DB	036H
	DB	036H
	DB	037H
	DB	037H
	DB	038H
	DB	039H
	DB	039H
	DB	03aH
	DB	03aH
	DB	03bH
	DB	03cH
	DB	03cH
	DB	03dH
	DB	03eH
	DB	03eH
	DB	03fH
	DB	040H
	DB	041H
	DB	041H
	DB	042H
	DB	043H
	DB	044H
	DB	044H
	DB	045H
	DB	046H
	DB	047H
	DB	047H
	DB	048H
	DB	049H
	DB	04aH
	DB	04bH
	DB	04bH
	DB	04cH
	DB	04dH
	DB	02eH
	DB	02eH
	DB	02eH
	DB	02eH
	DB	02eH
	DB	02eH
	DB	02eH
	DB	02eH
	DB	02eH
	DB	02eH
	DB	02fH
	DB	02fH
	DB	02fH
	DB	02fH
	DB	030H
	DB	030H
	DB	030H
	DB	031H
	DB	031H
	DB	031H
	DB	032H
	DB	032H
	DB	032H
	DB	033H
	DB	033H
	DB	034H
	DB	034H
	DB	035H
	DB	035H
	DB	036H
	DB	036H
	DB	037H
	DB	038H
	DB	038H
	DB	039H
	DB	039H
	DB	03aH
	DB	03bH
	DB	03bH
	DB	03cH
	DB	03cH
	DB	03dH
	DB	03eH
	DB	03eH
	DB	03fH
	DB	040H
	DB	041H
	DB	041H
	DB	042H
	DB	043H
	DB	043H
	DB	044H
	DB	045H
	DB	046H
	DB	046H
	DB	047H
	DB	048H
	DB	049H
	DB	04aH
	DB	04aH
	DB	04bH
	DB	04cH
	DB	04dH
	DB	04eH
	DB	02fH
	DB	02fH
	DB	02fH
	DB	02fH
	DB	02fH
	DB	02fH
	DB	02fH
	DB	02fH
	DB	02fH
	DB	02fH
	DB	030H
	DB	030H
	DB	030H
	DB	030H
	DB	031H
	DB	031H
	DB	031H
	DB	031H
	DB	032H
	DB	032H
	DB	033H
	DB	033H
	DB	033H
	DB	034H
	DB	034H
	DB	035H
	DB	035H
	DB	036H
	DB	036H
	DB	037H
	DB	037H
	DB	038H
	DB	038H
	DB	039H
	DB	03aH
	DB	03aH
	DB	03bH
	DB	03bH
	DB	03cH
	DB	03dH
	DB	03dH
	DB	03eH
	DB	03fH
	DB	03fH
	DB	040H
	DB	041H
	DB	041H
	DB	042H
	DB	043H
	DB	043H
	DB	044H
	DB	045H
	DB	046H
	DB	046H
	DB	047H
	DB	048H
	DB	049H
	DB	049H
	DB	04aH
	DB	04bH
	DB	04cH
	DB	04dH
	DB	04dH
	DB	04eH
	DB	030H
	DB	030H
	DB	030H
	DB	030H
	DB	030H
	DB	030H
	DB	030H
	DB	030H
	DB	030H
	DB	030H
	DB	031H
	DB	031H
	DB	031H
	DB	031H
	DB	032H
	DB	032H
	DB	032H
	DB	032H
	DB	033H
	DB	033H
	DB	034H
	DB	034H
	DB	034H
	DB	035H
	DB	035H
	DB	036H
	DB	036H
	DB	037H
	DB	037H
	DB	038H
	DB	038H
	DB	039H
	DB	039H
	DB	03aH
	DB	03aH
	DB	03bH
	DB	03cH
	DB	03cH
	DB	03dH
	DB	03dH
	DB	03eH
	DB	03fH
	DB	03fH
	DB	040H
	DB	041H
	DB	041H
	DB	042H
	DB	043H
	DB	043H
	DB	044H
	DB	045H
	DB	046H
	DB	046H
	DB	047H
	DB	048H
	DB	049H
	DB	049H
	DB	04aH
	DB	04bH
	DB	04cH
	DB	04cH
	DB	04dH
	DB	04eH
	DB	04fH
	DB	031H
	DB	031H
	DB	031H
	DB	031H
	DB	031H
	DB	031H
	DB	031H
	DB	031H
	DB	031H
	DB	031H
	DB	032H
	DB	032H
	DB	032H
	DB	032H
	DB	032H
	DB	033H
	DB	033H
	DB	033H
	DB	034H
	DB	034H
	DB	034H
	DB	035H
	DB	035H
	DB	036H
	DB	036H
	DB	037H
	DB	037H
	DB	037H
	DB	038H
	DB	038H
	DB	039H
	DB	039H
	DB	03aH
	DB	03bH
	DB	03bH
	DB	03cH
	DB	03cH
	DB	03dH
	DB	03eH
	DB	03eH
	DB	03fH
	DB	03fH
	DB	040H
	DB	041H
	DB	041H
	DB	042H
	DB	043H
	DB	043H
	DB	044H
	DB	045H
	DB	046H
	DB	046H
	DB	047H
	DB	048H
	DB	048H
	DB	049H
	DB	04aH
	DB	04bH
	DB	04bH
	DB	04cH
	DB	04dH
	DB	04eH
	DB	04fH
	DB	04fH
	DB	032H
	DB	032H
	DB	032H
	DB	032H
	DB	032H
	DB	032H
	DB	032H
	DB	032H
	DB	032H
	DB	032H
	DB	032H
	DB	033H
	DB	033H
	DB	033H
	DB	033H
	DB	034H
	DB	034H
	DB	034H
	DB	035H
	DB	035H
	DB	035H
	DB	036H
	DB	036H
	DB	037H
	DB	037H
	DB	037H
	DB	038H
	DB	038H
	DB	039H
	DB	039H
	DB	03aH
	DB	03aH
	DB	03bH
	DB	03bH
	DB	03cH
	DB	03dH
	DB	03dH
	DB	03eH
	DB	03eH
	DB	03fH
	DB	040H
	DB	040H
	DB	041H
	DB	041H
	DB	042H
	DB	043H
	DB	043H
	DB	044H
	DB	045H
	DB	046H
	DB	046H
	DB	047H
	DB	048H
	DB	048H
	DB	049H
	DB	04aH
	DB	04bH
	DB	04bH
	DB	04cH
	DB	04dH
	DB	04eH
	DB	04eH
	DB	04fH
	DB	050H
	DB	033H
	DB	033H
	DB	033H
	DB	033H
	DB	033H
	DB	033H
	DB	033H
	DB	033H
	DB	033H
	DB	033H
	DB	033H
	DB	034H
	DB	034H
	DB	034H
	DB	034H
	DB	035H
	DB	035H
	DB	035H
	DB	036H
	DB	036H
	DB	036H
	DB	037H
	DB	037H
	DB	037H
	DB	038H
	DB	038H
	DB	039H
	DB	039H
	DB	03aH
	DB	03aH
	DB	03bH
	DB	03bH
	DB	03cH
	DB	03cH
	DB	03dH
	DB	03dH
	DB	03eH
	DB	03fH
	DB	03fH
	DB	040H
	DB	040H
	DB	041H
	DB	042H
	DB	042H
	DB	043H
	DB	044H
	DB	044H
	DB	045H
	DB	046H
	DB	046H
	DB	047H
	DB	048H
	DB	048H
	DB	049H
	DB	04aH
	DB	04bH
	DB	04bH
	DB	04cH
	DB	04dH
	DB	04dH
	DB	04eH
	DB	04fH
	DB	050H
	DB	051H
	DB	034H
	DB	034H
	DB	034H
	DB	034H
	DB	034H
	DB	034H
	DB	034H
	DB	034H
	DB	034H
	DB	034H
	DB	034H
	DB	035H
	DB	035H
	DB	035H
	DB	035H
	DB	036H
	DB	036H
	DB	036H
	DB	037H
	DB	037H
	DB	037H
	DB	038H
	DB	038H
	DB	038H
	DB	039H
	DB	039H
	DB	03aH
	DB	03aH
	DB	03bH
	DB	03bH
	DB	03cH
	DB	03cH
	DB	03dH
	DB	03dH
	DB	03eH
	DB	03eH
	DB	03fH
	DB	03fH
	DB	040H
	DB	041H
	DB	041H
	DB	042H
	DB	042H
	DB	043H
	DB	044H
	DB	044H
	DB	045H
	DB	046H
	DB	046H
	DB	047H
	DB	048H
	DB	048H
	DB	049H
	DB	04aH
	DB	04aH
	DB	04bH
	DB	04cH
	DB	04dH
	DB	04dH
	DB	04eH
	DB	04fH
	DB	050H
	DB	050H
	DB	051H
	DB	035H
	DB	035H
	DB	035H
	DB	035H
	DB	035H
	DB	035H
	DB	035H
	DB	035H
	DB	035H
	DB	035H
	DB	035H
	DB	036H
	DB	036H
	DB	036H
	DB	036H
	DB	037H
	DB	037H
	DB	037H
	DB	037H
	DB	038H
	DB	038H
	DB	039H
	DB	039H
	DB	039H
	DB	03aH
	DB	03aH
	DB	03bH
	DB	03bH
	DB	03bH
	DB	03cH
	DB	03cH
	DB	03dH
	DB	03dH
	DB	03eH
	DB	03eH
	DB	03fH
	DB	040H
	DB	040H
	DB	041H
	DB	041H
	DB	042H
	DB	043H
	DB	043H
	DB	044H
	DB	044H
	DB	045H
	DB	046H
	DB	046H
	DB	047H
	DB	048H
	DB	048H
	DB	049H
	DB	04aH
	DB	04aH
	DB	04bH
	DB	04cH
	DB	04dH
	DB	04dH
	DB	04eH
	DB	04fH
	DB	050H
	DB	050H
	DB	051H
	DB	052H
	DB	036H
	DB	036H
	DB	036H
	DB	036H
	DB	036H
	DB	036H
	DB	036H
	DB	036H
	DB	036H
	DB	036H
	DB	036H
	DB	037H
	DB	037H
	DB	037H
	DB	037H
	DB	038H
	DB	038H
	DB	038H
	DB	038H
	DB	039H
	DB	039H
	DB	039H
	DB	03aH
	DB	03aH
	DB	03bH
	DB	03bH
	DB	03bH
	DB	03cH
	DB	03cH
	DB	03dH
	DB	03dH
	DB	03eH
	DB	03eH
	DB	03fH
	DB	03fH
	DB	040H
	DB	040H
	DB	041H
	DB	042H
	DB	042H
	DB	043H
	DB	043H
	DB	044H
	DB	045H
	DB	045H
	DB	046H
	DB	046H
	DB	047H
	DB	048H
	DB	048H
	DB	049H
	DB	04aH
	DB	04aH
	DB	04bH
	DB	04cH
	DB	04dH
	DB	04dH
	DB	04eH
	DB	04fH
	DB	04fH
	DB	050H
	DB	051H
	DB	052H
	DB	052H
	DB	037H
	DB	037H
	DB	037H
	DB	037H
	DB	037H
	DB	037H
	DB	037H
	DB	037H
	DB	037H
	DB	037H
	DB	037H
	DB	038H
	DB	038H
	DB	038H
	DB	038H
	DB	039H
	DB	039H
	DB	039H
	DB	039H
	DB	03aH
	DB	03aH
	DB	03aH
	DB	03bH
	DB	03bH
	DB	03cH
	DB	03cH
	DB	03cH
	DB	03dH
	DB	03dH
	DB	03eH
	DB	03eH
	DB	03fH
	DB	03fH
	DB	040H
	DB	040H
	DB	041H
	DB	041H
	DB	042H
	DB	042H
	DB	043H
	DB	044H
	DB	044H
	DB	045H
	DB	045H
	DB	046H
	DB	047H
	DB	047H
	DB	048H
	DB	049H
	DB	049H
	DB	04aH
	DB	04bH
	DB	04bH
	DB	04cH
	DB	04dH
	DB	04dH
	DB	04eH
	DB	04fH
	DB	04fH
	DB	050H
	DB	051H
	DB	052H
	DB	052H
	DB	053H
	DB	038H
	DB	038H
	DB	038H
	DB	038H
	DB	038H
	DB	038H
	DB	038H
	DB	038H
	DB	038H
	DB	038H
	DB	038H
	DB	039H
	DB	039H
	DB	039H
	DB	039H
	DB	039H
	DB	03aH
	DB	03aH
	DB	03aH
	DB	03bH
	DB	03bH
	DB	03bH
	DB	03cH
	DB	03cH
	DB	03cH
	DB	03dH
	DB	03dH
	DB	03eH
	DB	03eH
	DB	03fH
	DB	03fH
	DB	040H
	DB	040H
	DB	041H
	DB	041H
	DB	042H
	DB	042H
	DB	043H
	DB	043H
	DB	044H
	DB	044H
	DB	045H
	DB	046H
	DB	046H
	DB	047H
	DB	047H
	DB	048H
	DB	049H
	DB	049H
	DB	04aH
	DB	04bH
	DB	04bH
	DB	04cH
	DB	04dH
	DB	04dH
	DB	04eH
	DB	04fH
	DB	04fH
	DB	050H
	DB	051H
	DB	052H
	DB	052H
	DB	053H
	DB	054H
	DB	039H
	DB	039H
	DB	039H
	DB	039H
	DB	039H
	DB	039H
	DB	039H
	DB	039H
	DB	039H
	DB	039H
	DB	039H
	DB	03aH
	DB	03aH
	DB	03aH
	DB	03aH
	DB	03aH
	DB	03bH
	DB	03bH
	DB	03bH
	DB	03cH
	DB	03cH
	DB	03cH
	DB	03dH
	DB	03dH
	DB	03dH
	DB	03eH
	DB	03eH
	DB	03fH
	DB	03fH
	DB	03fH
	DB	040H
	DB	040H
	DB	041H
	DB	041H
	DB	042H
	DB	042H
	DB	043H
	DB	043H
	DB	044H
	DB	045H
	DB	045H
	DB	046H
	DB	046H
	DB	047H
	DB	048H
	DB	048H
	DB	049H
	DB	049H
	DB	04aH
	DB	04bH
	DB	04bH
	DB	04cH
	DB	04dH
	DB	04dH
	DB	04eH
	DB	04fH
	DB	04fH
	DB	050H
	DB	051H
	DB	052H
	DB	052H
	DB	053H
	DB	054H
	DB	054H
	DB	03aH
	DB	03aH
	DB	03aH
	DB	03aH
	DB	03aH
	DB	03aH
	DB	03aH
	DB	03aH
	DB	03aH
	DB	03aH
	DB	03aH
	DB	03bH
	DB	03bH
	DB	03bH
	DB	03bH
	DB	03bH
	DB	03cH
	DB	03cH
	DB	03cH
	DB	03dH
	DB	03dH
	DB	03dH
	DB	03eH
	DB	03eH
	DB	03eH
	DB	03fH
	DB	03fH
	DB	03fH
	DB	040H
	DB	040H
	DB	041H
	DB	041H
	DB	042H
	DB	042H
	DB	043H
	DB	043H
	DB	044H
	DB	044H
	DB	045H
	DB	045H
	DB	046H
	DB	047H
	DB	047H
	DB	048H
	DB	048H
	DB	049H
	DB	04aH
	DB	04aH
	DB	04bH
	DB	04bH
	DB	04cH
	DB	04dH
	DB	04dH
	DB	04eH
	DB	04fH
	DB	04fH
	DB	050H
	DB	051H
	DB	052H
	DB	052H
	DB	053H
	DB	054H
	DB	054H
	DB	055H
	DB	03bH
	DB	03bH
	DB	03bH
	DB	03bH
	DB	03bH
	DB	03bH
	DB	03bH
	DB	03bH
	DB	03bH
	DB	03bH
	DB	03bH
	DB	03cH
	DB	03cH
	DB	03cH
	DB	03cH
	DB	03cH
	DB	03dH
	DB	03dH
	DB	03dH
	DB	03dH
	DB	03eH
	DB	03eH
	DB	03eH
	DB	03fH
	DB	03fH
	DB	040H
	DB	040H
	DB	040H
	DB	041H
	DB	041H
	DB	042H
	DB	042H
	DB	043H
	DB	043H
	DB	044H
	DB	044H
	DB	045H
	DB	045H
	DB	046H
	DB	046H
	DB	047H
	DB	047H
	DB	048H
	DB	049H
	DB	049H
	DB	04aH
	DB	04aH
	DB	04bH
	DB	04cH
	DB	04cH
	DB	04dH
	DB	04dH
	DB	04eH
	DB	04fH
	DB	04fH
	DB	050H
	DB	051H
	DB	052H
	DB	052H
	DB	053H
	DB	054H
	DB	054H
	DB	055H
	DB	056H
	DB	03cH
	DB	03cH
	DB	03cH
	DB	03cH
	DB	03cH
	DB	03cH
	DB	03cH
	DB	03cH
	DB	03cH
	DB	03cH
	DB	03cH
	DB	03dH
	DB	03dH
	DB	03dH
	DB	03dH
	DB	03dH
	DB	03eH
	DB	03eH
	DB	03eH
	DB	03eH
	DB	03fH
	DB	03fH
	DB	03fH
	DB	040H
	DB	040H
	DB	041H
	DB	041H
	DB	041H
	DB	042H
	DB	042H
	DB	043H
	DB	043H
	DB	044H
	DB	044H
	DB	044H
	DB	045H
	DB	045H
	DB	046H
	DB	047H
	DB	047H
	DB	048H
	DB	048H
	DB	049H
	DB	049H
	DB	04aH
	DB	04bH
	DB	04bH
	DB	04cH
	DB	04cH
	DB	04dH
	DB	04eH
	DB	04eH
	DB	04fH
	DB	050H
	DB	050H
	DB	051H
	DB	052H
	DB	052H
	DB	053H
	DB	054H
	DB	054H
	DB	055H
	DB	056H
	DB	057H
	DB	03dH
	DB	03dH
	DB	03dH
	DB	03dH
	DB	03dH
	DB	03dH
	DB	03dH
	DB	03dH
	DB	03dH
	DB	03dH
	DB	03dH
	DB	03dH
	DB	03eH
	DB	03eH
	DB	03eH
	DB	03eH
	DB	03fH
	DB	03fH
	DB	03fH
	DB	03fH
	DB	040H
	DB	040H
	DB	040H
	DB	041H
	DB	041H
	DB	041H
	DB	042H
	DB	042H
	DB	043H
	DB	043H
	DB	043H
	DB	044H
	DB	044H
	DB	045H
	DB	045H
	DB	046H
	DB	046H
	DB	047H
	DB	047H
	DB	048H
	DB	048H
	DB	049H
	DB	04aH
	DB	04aH
	DB	04bH
	DB	04bH
	DB	04cH
	DB	04dH
	DB	04dH
	DB	04eH
	DB	04eH
	DB	04fH
	DB	050H
	DB	050H
	DB	051H
	DB	052H
	DB	052H
	DB	053H
	DB	054H
	DB	054H
	DB	055H
	DB	056H
	DB	056H
	DB	057H
	DB	03eH
	DB	03eH
	DB	03eH
	DB	03eH
	DB	03eH
	DB	03eH
	DB	03eH
	DB	03eH
	DB	03eH
	DB	03eH
	DB	03eH
	DB	03eH
	DB	03fH
	DB	03fH
	DB	03fH
	DB	03fH
	DB	040H
	DB	040H
	DB	040H
	DB	040H
	DB	041H
	DB	041H
	DB	041H
	DB	042H
	DB	042H
	DB	042H
	DB	043H
	DB	043H
	DB	044H
	DB	044H
	DB	044H
	DB	045H
	DB	045H
	DB	046H
	DB	046H
	DB	047H
	DB	047H
	DB	048H
	DB	048H
	DB	049H
	DB	049H
	DB	04aH
	DB	04aH
	DB	04bH
	DB	04cH
	DB	04cH
	DB	04dH
	DB	04dH
	DB	04eH
	DB	04fH
	DB	04fH
	DB	050H
	DB	050H
	DB	051H
	DB	052H
	DB	052H
	DB	053H
	DB	054H
	DB	054H
	DB	055H
	DB	056H
	DB	056H
	DB	057H
	DB	058H
	DB	03fH
	DB	03fH
	DB	03fH
	DB	03fH
	DB	03fH
	DB	03fH
	DB	03fH
	DB	03fH
	DB	03fH
	DB	03fH
	DB	03fH
	DB	03fH
	DB	040H
	DB	040H
	DB	040H
	DB	040H
	DB	041H
	DB	041H
	DB	041H
	DB	041H
	DB	042H
	DB	042H
	DB	042H
	DB	043H
	DB	043H
	DB	043H
	DB	044H
	DB	044H
	DB	044H
	DB	045H
	DB	045H
	DB	046H
	DB	046H
	DB	047H
	DB	047H
	DB	048H
	DB	048H
	DB	049H
	DB	049H
	DB	04aH
	DB	04aH
	DB	04bH
	DB	04bH
	DB	04cH
	DB	04cH
	DB	04dH
	DB	04eH
	DB	04eH
	DB	04fH
	DB	04fH
	DB	050H
	DB	051H
	DB	051H
	DB	052H
	DB	052H
	DB	053H
	DB	054H
	DB	054H
	DB	055H
	DB	056H
	DB	057H
	DB	057H
	DB	058H
	DB	059H
_DATA	ENDS
PUBLIC	?radar@@YAXPAUaction@@PAH1@Z			; radar
PUBLIC	?radar2@@YAHPAUaction@@HHH@Z			; radar2
; Function compile flags: /Ogtp
; File \\VBOXSVR\_stoneage\repos\ssm-sacli\system\Radar.cpp
;	COMDAT ?radar2@@YAHPAUaction@@HHH@Z
_TEXT	SEGMENT
_pAct$ = 8						; size = 4
_y$2$ = 12						; size = 4
_x$ = 12						; size = 4
tv543 = 16						; size = 4
_y$ = 16						; size = 4
_cnt$ = 20						; size = 4
?radar2@@YAHPAUaction@@HHH@Z PROC			; radar2, COMDAT

; 258  : {

  00000	55		 push	 ebp
  00001	8b ec		 mov	 ebp, esp

; 259  : 	int d0,d3=0,d4;
; 260  : 	int dist;	// ?????
; 261  : 	
; 262  : 	x-=ATR_H_POS(pAct);		/*???*/

  00003	8b 4d 08	 mov	 ecx, DWORD PTR _pAct$[ebp]
  00006	53		 push	 ebx
  00007	56		 push	 esi
  00008	8b 75 0c	 mov	 esi, DWORD PTR _x$[ebp]
  0000b	8b 59 18	 mov	 ebx, DWORD PTR [ecx+24]
  0000e	2b f3		 sub	 esi, ebx

; 263  : 	if(x<0){
; 264  : 		x = 0 - x;		/*???*/
; 265  : 		d3++;		/*????*/
; 266  : 	}
; 267  : 	d4=(x)>>6;

  00010	2b 5d 0c	 sub	 ebx, DWORD PTR _x$[ebp]
  00013	85 f6		 test	 esi, esi
  00015	57		 push	 edi

; 268  : 
; 269  : 	y-=ATR_V_POS(pAct);		/*???*/

  00016	8b 79 1c	 mov	 edi, DWORD PTR [ecx+28]
  00019	0f 49 de	 cmovns	 ebx, esi
  0001c	8b 4d 10	 mov	 ecx, DWORD PTR _y$[ebp]
  0001f	8b d3		 mov	 edx, ebx
  00021	2b cf		 sub	 ecx, edi
  00023	c1 ee 1f	 shr	 esi, 31			; 0000001fH

; 270  : 	if(y<0){
; 271  : 		y = 0 - y;
; 272  : 		d3+=2;
; 273  : 	}
; 274  : 	d0=(y)>>6;			/*?????????????*/

  00026	2b 7d 10	 sub	 edi, DWORD PTR _y$[ebp]
  00029	c1 fa 06	 sar	 edx, 6
  0002c	8b c7		 mov	 eax, edi
  0002e	85 c9		 test	 ecx, ecx
  00030	8d 7e 02	 lea	 edi, DWORD PTR [esi+2]
  00033	0f 49 c1	 cmovns	 eax, ecx
  00036	0f 49 fe	 cmovns	 edi, esi
  00039	8b c8		 mov	 ecx, eax
  0003b	c1 f9 06	 sar	 ecx, 6

; 275  : 
; 276  : 	if(d4<d0) d4=d0;		/*?????*/
; 277  : 
; 278  : 	x=(x)>>d4;		/*?????*/
; 279  : 	y=(y)>>d4;

  0003e	3b d1		 cmp	 edx, ecx
  00040	0f 4d ca	 cmovge	 ecx, edx
  00043	d3 f8		 sar	 eax, cl

; 280  : 
; 281  : 	y=(y)<<6;

  00045	c1 e0 06	 shl	 eax, 6
  00048	d3 fb		 sar	 ebx, cl

; 282  : 	y+=x;		/*?????????*/

  0004a	03 c3		 add	 eax, ebx
  0004c	89 4d 10	 mov	 DWORD PTR tv543[ebp], ecx
  0004f	89 45 0c	 mov	 DWORD PTR _y$2$[ebp], eax

; 283  : 
; 284  : 	x = (int)(Course_Tbl[y]);		/*?????????*/
; 285  : 
; 286  : 	if(d3==1){
; 287  : 		x-=32;		/*??????*/
; 288  : 		x = 0 - x;
; 289  : 	}
; 290  : 	if(d3==2){

  00052	b9 20 00 00 00	 mov	 ecx, 32			; 00000020H
  00057	0f be 80 00 00
	00 00		 movsx	 eax, BYTE PTR ?Course_Tbl@@3PACA[eax]
  0005e	2b c8		 sub	 ecx, eax
  00060	83 ff 01	 cmp	 edi, 1
  00063	0f 45 c8	 cmovne	 ecx, eax

; 291  : 		x-=16;		/*???????*/
; 292  : 		x = 0 - x;
; 293  : 	}
; 294  : 	if(d3==3){

  00066	b8 10 00 00 00	 mov	 eax, 16			; 00000010H
  0006b	2b c1		 sub	 eax, ecx
  0006d	83 ff 02	 cmp	 edi, 2
  00070	0f 45 c1	 cmovne	 eax, ecx
  00073	83 ff 03	 cmp	 edi, 3
  00076	75 06		 jne	 SHORT $LN7@radar2

; 295  : 	x+=16;		/*??*/

  00078	83 c0 f0	 add	 eax, -16		; fffffff0H

; 296  : 	x=x&31;

  0007b	83 e0 1f	 and	 eax, 31			; 0000001fH
$LN7@radar2:

; 297  : 	}
; 298  : 	
; 299  : 	
; 300  : 	// ??????????
; 301  : 	if( pAct->dirCnt == 0 ){ 

  0007e	8b 4d 08	 mov	 ecx, DWORD PTR _pAct$[ebp]
  00081	8b b9 30 01 00
	00		 mov	 edi, DWORD PTR [ecx+304]
  00087	85 ff		 test	 edi, edi
  00089	75 52		 jne	 SHORT $LN16@radar2

; 302  : 		// ????????
; 303  : 		// ?
; 304  : 		if( x - pAct->crs >  16 ) x -= 32;	

  0008b	8b b1 38 01 00
	00		 mov	 esi, DWORD PTR [ecx+312]
  00091	8b d0		 mov	 edx, eax
  00093	2b d6		 sub	 edx, esi
  00095	83 fa 10	 cmp	 edx, 16			; 00000010H
  00098	7e 05		 jle	 SHORT $LN9@radar2
  0009a	83 e8 20	 sub	 eax, 32			; 00000020H
  0009d	eb 08		 jmp	 SHORT $LN11@radar2
$LN9@radar2:

; 305  : 		else if( x - pAct->crs < -16 ) x += 32;

  0009f	83 fa f0	 cmp	 edx, -16		; fffffff0H
  000a2	7d 03		 jge	 SHORT $LN11@radar2
  000a4	83 c0 20	 add	 eax, 32			; 00000020H
$LN11@radar2:

; 306  : 		// ??
; 307  : 		if( x - pAct->crs != 0 ){

  000a7	2b c6		 sub	 eax, esi
  000a9	74 32		 je	 SHORT $LN16@radar2

; 308  : 			if( x - pAct->crs > 0 ){ 

  000ab	85 c0		 test	 eax, eax
  000ad	7e 1a		 jle	 SHORT $LN13@radar2

; 309  : 				pAct->crs++;

  000af	8d 46 01	 lea	 eax, DWORD PTR [esi+1]
  000b2	89 81 38 01 00
	00		 mov	 DWORD PTR [ecx+312], eax

; 310  : 				if( pAct->crs == 32 ) pAct->crs = 0;

  000b8	83 f8 20	 cmp	 eax, 32			; 00000020H
  000bb	75 20		 jne	 SHORT $LN16@radar2
  000bd	c7 81 38 01 00
	00 00 00 00 00	 mov	 DWORD PTR [ecx+312], 0

; 311  : 			}else{

  000c7	eb 14		 jmp	 SHORT $LN16@radar2
$LN13@radar2:

; 312  : 				pAct->crs--;

  000c9	8d 46 ff	 lea	 eax, DWORD PTR [esi-1]

; 313  : 				if( pAct->crs == -1 ) pAct->crs = 31;

  000cc	ba 1f 00 00 00	 mov	 edx, 31			; 0000001fH
  000d1	83 f8 ff	 cmp	 eax, -1
  000d4	0f 44 c2	 cmove	 eax, edx
  000d7	89 81 38 01 00
	00		 mov	 DWORD PTR [ecx+312], eax
$LN16@radar2:

; 314  : 			}
; 315  : 		}
; 316  : 		
; 317  : 	}
; 318  : 	// ????????
; 319  : 	pAct->dirCnt++;

  000dd	8d 47 01	 lea	 eax, DWORD PTR [edi+1]

; 320  : 	if( pAct->dirCnt >= cnt ) pAct->dirCnt = 0;

  000e0	33 d2		 xor	 edx, edx
  000e2	3b 45 14	 cmp	 eax, DWORD PTR _cnt$[ebp]

; 321  : 	
; 322  : 	dist =(int)(Distance_Tbl[ y ]);		/*??(89??)*/

  000e5	8b 7d 0c	 mov	 edi, DWORD PTR _y$2$[ebp]
  000e8	0f 4d c2	 cmovge	 eax, edx
  000eb	89 81 30 01 00
	00		 mov	 DWORD PTR [ecx+304], eax

; 323  : 	return  dist<<d4;		/*??????*/

  000f1	8b 4d 10	 mov	 ecx, DWORD PTR tv543[ebp]
  000f4	0f be 87 00 00
	00 00		 movsx	 eax, BYTE PTR ?Distance_Tbl@@3PACA[edi]
  000fb	5f		 pop	 edi
  000fc	5e		 pop	 esi
  000fd	d3 e0		 shl	 eax, cl
  000ff	5b		 pop	 ebx

; 324  : }

  00100	5d		 pop	 ebp
  00101	c3		 ret	 0
?radar2@@YAHPAUaction@@HHH@Z ENDP			; radar2
_TEXT	ENDS
; Function compile flags: /Ogtp
; File \\VBOXSVR\_stoneage\repos\ssm-sacli\system\Radar.cpp
;	COMDAT ?radar@@YAXPAUaction@@PAH1@Z
_TEXT	SEGMENT
tv425 = 8						; size = 4
_d4$1$ = 8						; size = 4
_a0$ = 8						; size = 4
_d1$ = 12						; size = 4
_d2$ = 16						; size = 4
?radar@@YAXPAUaction@@PAH1@Z PROC			; radar, COMDAT

; 158  : {

  00000	55		 push	 ebp
  00001	8b ec		 mov	 ebp, esp

; 159  : 	int d0,d3=0,d4;
; 160  : #if 0
; 161  : 	*d1-=ATR_H_POS(a0);		/*???*/
; 162  : 	if(*d1<0){
; 163  : 		*d1 = 0 - *d1;		/*???*/
; 164  : 		d3++;		/*????*/
; 165  : 	}
; 166  : 	d4=(*d1)>>6;
; 167  : 
; 168  : 	*d2-=ATR_V_POS(a0);		/*???*/
; 169  : 	if(*d2<0){
; 170  : 		*d2 = 0 - *d2;
; 171  : 		d3+=2;
; 172  : 	}
; 173  : 	d0=(*d2)>>6;			/*?????????????*/
; 174  : 
; 175  : 	if(d4<d0) d4=d0;		/*?????*/
; 176  : 
; 177  : 	*d1=(*d1)>>d4;		/*?????*/
; 178  : 	*d2=(*d2)>>d4;
; 179  : 
; 180  : 	*d2=(*d2)<<6;
; 181  : 	*d2+=*d1;		/*?????????*/
; 182  : 
; 183  : 	*d1=(int)(Course_Tbl[*d2]);		/*?????????*/
; 184  : 
; 185  : 	if(d3==1){
; 186  : 		*d1-=32;		/*??????*/
; 187  : 		*d1 = 0 - *d1;		/*???*/
; 188  : 	}
; 189  : 	if(d3==2){
; 190  : 		*d1-=16;		/*???????*/
; 191  : 		*d1 = 0 - *d1;		/*???*/
; 192  : 	}
; 193  : 	if(d3==3){
; 194  : 	*d1+=16;		/*??*/
; 195  : 	*d1=*d1&31;
; 196  : 	}
; 197  : 	*d2=(int)(Distance_Tbl[*d2]);		/*??(89??)*/
; 198  : 	*d2=*d2<<d4;		/*??????*/
; 199  : #else
; 200  : 	*d1-=ATR_H_POS(a0);		/*???*/

  00003	8b 4d 08	 mov	 ecx, DWORD PTR _a0$[ebp]
  00006	53		 push	 ebx
  00007	56		 push	 esi
  00008	8b 75 0c	 mov	 esi, DWORD PTR _d1$[ebp]
  0000b	33 db		 xor	 ebx, ebx
  0000d	8b 41 18	 mov	 eax, DWORD PTR [ecx+24]
  00010	57		 push	 edi
  00011	29 06		 sub	 DWORD PTR [esi], eax
  00013	8b 06		 mov	 eax, DWORD PTR [esi]

; 201  : 	if(*d1<0){

  00015	79 09		 jns	 SHORT $LN9@radar

; 202  : 		*d1 = 0 - *d1;		/*???*/

  00017	f7 d8		 neg	 eax

; 203  : 		d3++;		/*????*/

  00019	bb 01 00 00 00	 mov	 ebx, 1
  0001e	89 06		 mov	 DWORD PTR [esi], eax
$LN9@radar:

; 204  : 	}
; 205  : 	d4=(*d1)/64;
; 206  : 
; 207  : 	*d2-=ATR_V_POS(a0);		/*???*/

  00020	8b 7d 10	 mov	 edi, DWORD PTR _d2$[ebp]
  00023	8b 49 1c	 mov	 ecx, DWORD PTR [ecx+28]
  00026	99		 cdq
  00027	83 e2 3f	 and	 edx, 63			; 0000003fH
  0002a	03 c2		 add	 eax, edx
  0002c	c1 f8 06	 sar	 eax, 6
  0002f	29 0f		 sub	 DWORD PTR [edi], ecx
  00031	89 45 08	 mov	 DWORD PTR tv425[ebp], eax
  00034	8b 07		 mov	 eax, DWORD PTR [edi]

; 208  : 	if(*d2<0){

  00036	79 07		 jns	 SHORT $LN10@radar

; 209  : 		*d2 = 0 - *d2;

  00038	f7 d8		 neg	 eax

; 210  : 		d3+=2;

  0003a	83 c3 02	 add	 ebx, 2
  0003d	89 07		 mov	 DWORD PTR [edi], eax
$LN10@radar:

; 211  : 	}
; 212  : 	d0=(*d2)/64;			/*?????????????*/

  0003f	99		 cdq
  00040	83 e2 3f	 and	 edx, 63			; 0000003fH
  00043	8d 0c 02	 lea	 ecx, DWORD PTR [edx+eax]

; 213  : 
; 214  : 	if(d4<d0) d4=d0;		/*?????*/
; 215  : 
; 216  : 	d4++;		//????
; 217  : 
; 218  : 	*d1=(*d1)/d4;		/*?????*/

  00046	8b 06		 mov	 eax, DWORD PTR [esi]
  00048	c1 f9 06	 sar	 ecx, 6
  0004b	39 4d 08	 cmp	 DWORD PTR tv425[ebp], ecx
  0004e	99		 cdq
  0004f	0f 4d 4d 08	 cmovge	 ecx, DWORD PTR tv425[ebp]
  00053	41		 inc	 ecx
  00054	f7 f9		 idiv	 ecx
  00056	89 4d 08	 mov	 DWORD PTR _d4$1$[ebp], ecx
  00059	89 06		 mov	 DWORD PTR [esi], eax

; 219  : 	*d2=(*d2)/d4;

  0005b	8b 07		 mov	 eax, DWORD PTR [edi]
  0005d	99		 cdq
  0005e	f7 f9		 idiv	 ecx

; 220  : 
; 221  : 	*d2=(*d2)<<6;

  00060	c1 e0 06	 shl	 eax, 6
  00063	89 07		 mov	 DWORD PTR [edi], eax

; 222  : 	*d2+=*d1;		/*?????????*/

  00065	03 06		 add	 eax, DWORD PTR [esi]
  00067	89 07		 mov	 DWORD PTR [edi], eax

; 223  : 
; 224  : 	*d1=(int)(Course_Tbl[*d2]);		/*?????????*/

  00069	0f be 88 00 00
	00 00		 movsx	 ecx, BYTE PTR ?Course_Tbl@@3PACA[eax]
  00070	89 0e		 mov	 DWORD PTR [esi], ecx

; 225  : 
; 226  : 	if(d3==1){

  00072	83 fb 01	 cmp	 ebx, 1
  00075	75 09		 jne	 SHORT $LN5@radar

; 227  : 		*d1-=32;		/*??????*/
; 228  : 		*d1 = 0 - *d1;		/*???*/

  00077	b8 20 00 00 00	 mov	 eax, 32			; 00000020H
  0007c	2b c1		 sub	 eax, ecx

; 229  : 	}
; 230  : 	if(d3==2){

  0007e	eb 19		 jmp	 SHORT $LN11@radar
$LN5@radar:
  00080	83 fb 02	 cmp	 ebx, 2
  00083	75 09		 jne	 SHORT $LN6@radar

; 231  : 		*d1-=16;		/*???????*/
; 232  : 		*d1 = 0 - *d1;		/*???*/

  00085	b8 10 00 00 00	 mov	 eax, 16			; 00000010H
  0008a	2b c1		 sub	 eax, ecx

; 233  : 	}
; 234  : 	if(d3==3){

  0008c	eb 0b		 jmp	 SHORT $LN11@radar
$LN6@radar:
  0008e	83 fb 03	 cmp	 ebx, 3
  00091	75 08		 jne	 SHORT $LN7@radar

; 235  : 	*d1+=16;		/*??*/

  00093	8d 41 f0	 lea	 eax, DWORD PTR [ecx-16]

; 236  : 	*d1=*d1&31;

  00096	83 e0 1f	 and	 eax, 31			; 0000001fH
$LN11@radar:

; 237  : 	}
; 238  : 	*d2=(int)(Distance_Tbl[*d2]);		/*??(89??)*/

  00099	89 06		 mov	 DWORD PTR [esi], eax
$LN7@radar:
  0009b	8b 07		 mov	 eax, DWORD PTR [edi]
  0009d	0f be 80 00 00
	00 00		 movsx	 eax, BYTE PTR ?Distance_Tbl@@3PACA[eax]

; 239  : 	*d2=*d2*d4;		/*??????*/

  000a4	0f af 45 08	 imul	 eax, DWORD PTR _d4$1$[ebp]
  000a8	89 07		 mov	 DWORD PTR [edi], eax
  000aa	5f		 pop	 edi
  000ab	5e		 pop	 esi
  000ac	5b		 pop	 ebx

; 240  : #endif
; 241  : }

  000ad	5d		 pop	 ebp
  000ae	c3		 ret	 0
?radar@@YAXPAUaction@@PAH1@Z ENDP			; radar
_TEXT	ENDS
END
