; Listing generated by Microsoft (R) Optimizing Compiler Version 19.28.29336.0 

	TITLE	C:\Users\gg862\OneDrive\¹ÙÅÁ È­¸é\¸¾Äí¿Ï·á\Client Source Code1.31ÀÏº»\oft\sys2.cpp
	.686P
	.XMM
	include listing.inc
	.model	flat

INCLUDELIB LIBCMT
INCLUDELIB OLDNAMES

PUBLIC	?pDInput@@3PAUIDirectInputA@@A			; pDInput
PUBLIC	?pDInput2@@3PAUIDirectInputA@@A			; pDInput2
PUBLIC	?m_bt@@3_NA					; m_bt
_BSS	SEGMENT
?pDInput@@3PAUIDirectInputA@@A DD 01H DUP (?)		; pDInput
?pDInput2@@3PAUIDirectInputA@@A DD 01H DUP (?)		; pDInput2
?m_bt@@3_NA DB	01H DUP (?)				; m_bt
_BSS	ENDS
PUBLIC	?joy_auto_repeat@@YAKE@Z			; joy_auto_repeat
PUBLIC	?GetJoystickCallback@@YGHPAUDIDEVICEINSTANCEA@@PAX@Z ; GetJoystickCallback
PUBLIC	?joy_read@@YAXXZ				; joy_read
PUBLIC	?InitDInput@@YAHXZ				; InitDInput
PUBLIC	?EndDInput@@YAHXZ				; EndDInput
EXTRN	___report_rangecheckfailure:PROC
EXTRN	__imp__GetAsyncKeyState@4:PROC
EXTRN	_DirectInputCreateA@16:PROC
EXTRN	?GetImeString@@YAPADXZ:PROC			; GetImeString
EXTRN	?lssproto_MA_send@@YAXHHHH@Z:PROC		; lssproto_MA_send
EXTRN	?setCharMind@@YAXPAUaction@@H@Z:PROC		; setCharMind
EXTRN	@__security_check_cookie@4:PROC
EXTRN	?hWnd@@3PAUHWND__@@A:DWORD			; hWnd
EXTRN	_IID_IDirectInputDevice2A:BYTE
EXTRN	_GUID_SysKeyboard:BYTE
EXTRN	_c_dfDIKeyboard:BYTE
EXTRN	?joy_con@@3PAKA:QWORD				; joy_con
EXTRN	?joy_trg@@3PAKA:QWORD				; joy_trg
EXTRN	?joy_pul@@3PAKA:QWORD				; joy_pul
EXTRN	?joy_buf@@3PAKA:QWORD				; joy_buf
EXTRN	?joy_auto@@3PAKA:QWORD				; joy_auto
EXTRN	?joy_timer@@3PAGA:DWORD				; joy_timer
EXTRN	?di_key@@3PAEA:BYTE				; di_key
EXTRN	?pDInputDevice@@3PAUIDirectInputDeviceA@@A:DWORD ; pDInputDevice
EXTRN	?pDInputDevice2@@3PAUIDirectInputDevice2A@@A:DWORD ; pDInputDevice2
EXTRN	?joy_flg@@3DA:BYTE				; joy_flg
EXTRN	?keyboad_flg@@3DA:BYTE				; keyboad_flg
EXTRN	?DInputActiveFlag@@3HA:DWORD			; DInputActiveFlag
EXTRN	?pc@@3UPC@@A:BYTE				; pc
EXTRN	?sockfd@@3IA:DWORD				; sockfd
EXTRN	?nowGx@@3HA:DWORD				; nowGx
EXTRN	?nowGy@@3HA:DWORD				; nowGy
EXTRN	?hInst@@3PAUHINSTANCE__@@A:DWORD		; hInst
EXTRN	___security_cookie:DWORD
; Function compile flags: /Ogtp
; File C:\Users\gg862\OneDrive\¹ÙÅÁ È­¸é\¸¾Äí¿Ï·á\Client Source Code1.31ÀÏº»\oft\sys2.cpp
;	COMDAT ?EndDInput@@YAHXZ
_TEXT	SEGMENT
?EndDInput@@YAHXZ PROC					; EndDInput, COMDAT

; 668  : 	//?????ï¼¯ï¼«??
; 669  : 	if(keyboad_flg == TRUE){

  00000	80 3d 00 00 00
	00 01		 cmp	 BYTE PTR ?keyboad_flg@@3DA, 1 ; keyboad_flg
  00007	75 3f		 jne	 SHORT $LN4@EndDInput

; 670  : 		pDInputDevice->Unacquire();

  00009	a1 00 00 00 00	 mov	 eax, DWORD PTR ?pDInputDevice@@3PAUIDirectInputDeviceA@@A ; pDInputDevice
  0000e	50		 push	 eax
  0000f	8b 08		 mov	 ecx, DWORD PTR [eax]
  00011	ff 51 20	 call	 DWORD PTR [ecx+32]

; 671  : 		RELEASE(pDInputDevice);

  00014	8b 0d 00 00 00
	00		 mov	 ecx, DWORD PTR ?pDInputDevice@@3PAUIDirectInputDeviceA@@A ; pDInputDevice
  0001a	85 c9		 test	 ecx, ecx
  0001c	74 10		 je	 SHORT $LN3@EndDInput
  0001e	8b 01		 mov	 eax, DWORD PTR [ecx]
  00020	51		 push	 ecx
  00021	ff 50 08	 call	 DWORD PTR [eax+8]
  00024	c7 05 00 00 00
	00 00 00 00 00	 mov	 DWORD PTR ?pDInputDevice@@3PAUIDirectInputDeviceA@@A, 0 ; pDInputDevice
$LN3@EndDInput:

; 672  : 		RELEASE(pDInput);

  0002e	8b 0d 00 00 00
	00		 mov	 ecx, DWORD PTR ?pDInput@@3PAUIDirectInputA@@A ; pDInput
  00034	85 c9		 test	 ecx, ecx
  00036	74 10		 je	 SHORT $LN4@EndDInput
  00038	8b 01		 mov	 eax, DWORD PTR [ecx]
  0003a	51		 push	 ecx
  0003b	ff 50 08	 call	 DWORD PTR [eax+8]
  0003e	c7 05 00 00 00
	00 00 00 00 00	 mov	 DWORD PTR ?pDInput@@3PAUIDirectInputA@@A, 0 ; pDInput
$LN4@EndDInput:

; 673  : 	}
; 674  : 	//????????ï¼¯ï¼«??
; 675  : 	if(joy_flg == TRUE){

  00048	80 3d 00 00 00
	00 01		 cmp	 BYTE PTR ?joy_flg@@3DA, 1 ; joy_flg
  0004f	75 3f		 jne	 SHORT $LN10@EndDInput

; 676  : 		pDInputDevice2->Unacquire();

  00051	a1 00 00 00 00	 mov	 eax, DWORD PTR ?pDInputDevice2@@3PAUIDirectInputDevice2A@@A ; pDInputDevice2
  00056	50		 push	 eax
  00057	8b 08		 mov	 ecx, DWORD PTR [eax]
  00059	ff 51 20	 call	 DWORD PTR [ecx+32]

; 677  : 		RELEASE(pDInputDevice2);

  0005c	8b 0d 00 00 00
	00		 mov	 ecx, DWORD PTR ?pDInputDevice2@@3PAUIDirectInputDevice2A@@A ; pDInputDevice2
  00062	85 c9		 test	 ecx, ecx
  00064	74 10		 je	 SHORT $LN6@EndDInput
  00066	8b 01		 mov	 eax, DWORD PTR [ecx]
  00068	51		 push	 ecx
  00069	ff 50 08	 call	 DWORD PTR [eax+8]
  0006c	c7 05 00 00 00
	00 00 00 00 00	 mov	 DWORD PTR ?pDInputDevice2@@3PAUIDirectInputDevice2A@@A, 0 ; pDInputDevice2
$LN6@EndDInput:

; 678  : 		RELEASE(pDInput2);

  00076	8b 0d 00 00 00
	00		 mov	 ecx, DWORD PTR ?pDInput2@@3PAUIDirectInputA@@A ; pDInput2
  0007c	85 c9		 test	 ecx, ecx
  0007e	74 10		 je	 SHORT $LN10@EndDInput
  00080	8b 01		 mov	 eax, DWORD PTR [ecx]
  00082	51		 push	 ecx
  00083	ff 50 08	 call	 DWORD PTR [eax+8]
  00086	c7 05 00 00 00
	00 00 00 00 00	 mov	 DWORD PTR ?pDInput2@@3PAUIDirectInputA@@A, 0 ; pDInput2
$LN10@EndDInput:

; 679  : 	}
; 680  : 
; 681  : 	return TRUE;
; 682  : }

  00090	b8 01 00 00 00	 mov	 eax, 1
  00095	c3		 ret	 0
?EndDInput@@YAHXZ ENDP					; EndDInput
_TEXT	ENDS
; Function compile flags: /Ogtp
; File C:\Users\gg862\OneDrive\¹ÙÅÁ È­¸é\¸¾Äí¿Ï·á\Client Source Code1.31ÀÏº»\oft\sys2.cpp
;	COMDAT ?InitDInput@@YAHXZ
_TEXT	SEGMENT
?InitDInput@@YAHXZ PROC					; InitDInput, COMDAT

; 556  : 	HRESULT ret;
; 557  : 
; 558  : 	if( GetAsyncKeyState( VK_CONTROL ) & 0x8000 ){		//????????????

  00000	6a 11		 push	 17			; 00000011H
  00002	ff 15 00 00 00
	00		 call	 DWORD PTR __imp__GetAsyncKeyState@4
  00008	66 0f ba e0 0f	 bt	 ax, 15			; 0000000fH
  0000d	0f 82 95 00 00
	00		 jb	 $LN22@InitDInput

; 559  : 		return FALSE;
; 560  : 	}
; 561  : #ifndef DI_2
; 562  : 	ret = DirectInput8Create( hInst, DIRECTINPUT_VERSION, IID_IDirectInput8, (void**)&pDInput, NULL);
; 563  : 	if(ret != DI_OK){
; 564  : 		return FALSE;
; 565  : 	}
; 566  : #else
; 567  : 	ret = DirectInputCreate(hInst,DIRECTINPUT_VERSION,&pDInput,NULL);

  00013	6a 00		 push	 0
  00015	68 00 00 00 00	 push	 OFFSET ?pDInput@@3PAUIDirectInputA@@A ; pDInput
  0001a	68 00 07 00 00	 push	 1792			; 00000700H
  0001f	ff 35 00 00 00
	00		 push	 DWORD PTR ?hInst@@3PAUHINSTANCE__@@A ; hInst
  00025	e8 00 00 00 00	 call	 _DirectInputCreateA@16

; 568  : 	if(ret != DI_OK){

  0002a	85 c0		 test	 eax, eax
  0002c	75 7a		 jne	 SHORT $LN22@InitDInput

; 569  : 		return FALSE;
; 570  : 	}
; 571  : #endif
; 572  : 	//???????????????????î’•
; 573  : 	ret = pDInput->CreateDevice(GUID_SysKeyboard,&pDInputDevice,NULL);

  0002e	a1 00 00 00 00	 mov	 eax, DWORD PTR ?pDInput@@3PAUIDirectInputA@@A ; pDInput
  00033	6a 00		 push	 0
  00035	68 00 00 00 00	 push	 OFFSET ?pDInputDevice@@3PAUIDirectInputDeviceA@@A ; pDInputDevice
  0003a	68 00 00 00 00	 push	 OFFSET _GUID_SysKeyboard
  0003f	8b 08		 mov	 ecx, DWORD PTR [eax]
  00041	50		 push	 eax
  00042	ff 51 0c	 call	 DWORD PTR [ecx+12]

; 574  : 	if(ret != DI_OK){

  00045	85 c0		 test	 eax, eax
  00047	75 45		 jne	 SHORT $LN10@InitDInput

; 575  : 		RELEASE(pDInput);
; 576  : 		return FALSE;
; 577  : 	}
; 578  : 
; 579  : 	//??????????î“†î˜‹
; 580  : 	ret = pDInputDevice->SetDataFormat(&c_dfDIKeyboard);

  00049	a1 00 00 00 00	 mov	 eax, DWORD PTR ?pDInputDevice@@3PAUIDirectInputDeviceA@@A ; pDInputDevice
  0004e	68 00 00 00 00	 push	 OFFSET _c_dfDIKeyboard
  00053	50		 push	 eax
  00054	8b 08		 mov	 ecx, DWORD PTR [eax]
  00056	ff 51 2c	 call	 DWORD PTR [ecx+44]

; 581  : 	if(ret != DI_OK){

  00059	85 c0		 test	 eax, eax
  0005b	75 17		 jne	 SHORT $LN25@InitDInput

; 582  : 		RELEASE(pDInputDevice);
; 583  : 		RELEASE(pDInput);
; 584  : 		return FALSE;
; 585  : 	}
; 586  : 
; 587  : 	//????î“†î˜‹
; 588  : 	ret = pDInputDevice->SetCooperativeLevel(hWnd,DISCL_NONEXCLUSIVE | DISCL_FOREGROUND);

  0005d	a1 00 00 00 00	 mov	 eax, DWORD PTR ?pDInputDevice@@3PAUIDirectInputDeviceA@@A ; pDInputDevice
  00062	6a 06		 push	 6
  00064	ff 35 00 00 00
	00		 push	 DWORD PTR ?hWnd@@3PAUHWND__@@A ; hWnd
  0006a	8b 08		 mov	 ecx, DWORD PTR [eax]
  0006c	50		 push	 eax
  0006d	ff 51 34	 call	 DWORD PTR [ecx+52]

; 589  : 	if(ret != DI_OK){

  00070	85 c0		 test	 eax, eax
  00072	74 37		 je	 SHORT $LN9@InitDInput
$LN25@InitDInput:

; 605  : 		return FALSE;

  00074	8b 0d 00 00 00
	00		 mov	 ecx, DWORD PTR ?pDInputDevice@@3PAUIDirectInputDeviceA@@A ; pDInputDevice
  0007a	85 c9		 test	 ecx, ecx
  0007c	74 10		 je	 SHORT $LN10@InitDInput
  0007e	8b 01		 mov	 eax, DWORD PTR [ecx]
  00080	51		 push	 ecx
  00081	ff 50 08	 call	 DWORD PTR [eax+8]
  00084	c7 05 00 00 00
	00 00 00 00 00	 mov	 DWORD PTR ?pDInputDevice@@3PAUIDirectInputDeviceA@@A, 0 ; pDInputDevice
$LN10@InitDInput:
  0008e	8b 0d 00 00 00
	00		 mov	 ecx, DWORD PTR ?pDInput@@3PAUIDirectInputA@@A ; pDInput
  00094	85 c9		 test	 ecx, ecx
  00096	74 10		 je	 SHORT $LN22@InitDInput
  00098	8b 01		 mov	 eax, DWORD PTR [ecx]
  0009a	51		 push	 ecx
  0009b	ff 50 08	 call	 DWORD PTR [eax+8]
  0009e	c7 05 00 00 00
	00 00 00 00 00	 mov	 DWORD PTR ?pDInput@@3PAUIDirectInputA@@A, 0 ; pDInput
$LN22@InitDInput:
  000a8	33 c0		 xor	 eax, eax

; 612  : 
; 613  : 	//?????????î–™?
; 614  : 	pDInputDevice2 = NULL;
; 615  : 
; 616  : #ifndef DI_2
; 617  : 	pDInput2->EnumDevices( DI8DEVCLASS_GAMECTRL, (LPDIENUMDEVICESCALLBACK)GetJoystickCallback, NULL, DIEDFL_ATTACHEDONLY);
; 618  : 	if(pDInputDevice2 == NULL){
; 619  : 		RELEASE(pDInput2);
; 620  : 		return FALSE;
; 621  : 	}
; 622  : #else
; 623  : 	pDInput2->EnumDevices(DIDEVTYPE_JOYSTICK,(LPDIENUMDEVICESCALLBACK)GetJoystickCallback,NULL,DIEDFL_ATTACHEDONLY);
; 624  : 	if(pDInputDevice2 == NULL){
; 625  : 		RELEASE(pDInput2);
; 626  : 		return FALSE;
; 627  : 	}
; 628  : #endif
; 629  : 	//??????????î“†î˜‹
; 630  : 	ret = pDInputDevice2->SetDataFormat(&c_dfDIJoystick);
; 631  : 	if(ret != DI_OK){
; 632  : 		RELEASE(pDInputDevice2);
; 633  : 		RELEASE(pDInput2);
; 634  : 		return FALSE;
; 635  : 	}
; 636  : 
; 637  : 	//????î“†î˜‹
; 638  : 	ret = pDInputDevice2->SetCooperativeLevel(hWnd,DISCL_NONEXCLUSIVE | DISCL_FOREGROUND);
; 639  : 	if(ret != DI_OK){
; 640  : 		RELEASE(pDInputDevice2);
; 641  : 		RELEASE(pDInput2);
; 642  : 		return FALSE;
; 643  : 	}
; 644  : 
; 645  : 	DIPROPRANGE diprg; 
; 646  :  
; 647  : 	// î¡?î–±?îœª??î“†î˜‹
; 648  : 	diprg.diph.dwSize	= sizeof(diprg); 
; 649  : 	diprg.diph.dwHeaderSize	= sizeof(diprg.diph); 
; 650  : 	diprg.diph.dwObj	= DIJOFS_X; 
; 651  : 	diprg.diph.dwHow	= DIPH_BYOFFSET; 
; 652  : 	diprg.lMin	= -1000; 
; 653  : 	diprg.lMax	= +1000; 
; 654  :  	pDInputDevice2->SetProperty(DIPROP_RANGE, &diprg.diph);
; 655  : 	diprg.diph.dwObj	= DIJOFS_Y; 
; 656  :  	pDInputDevice2->SetProperty(DIPROP_RANGE, &diprg.diph);
; 657  : 
; 658  : 	pDInputDevice2->Acquire();
; 659  : 
; 660  : 	joy_flg = TRUE;		//????????ï¼¯ï¼«
; 661  : 	return TRUE;
; 662  : }

  000aa	c3		 ret	 0
$LN9@InitDInput:

; 590  : 		RELEASE(pDInputDevice);
; 591  : 		RELEASE(pDInput);
; 592  : 		return FALSE;
; 593  : 	}
; 594  : 
; 595  : 	pDInputDevice->Acquire();

  000ab	a1 00 00 00 00	 mov	 eax, DWORD PTR ?pDInputDevice@@3PAUIDirectInputDeviceA@@A ; pDInputDevice
  000b0	50		 push	 eax
  000b1	8b 08		 mov	 ecx, DWORD PTR [eax]
  000b3	ff 51 1c	 call	 DWORD PTR [ecx+28]

; 596  : 
; 597  : #ifndef DI_2
; 598  : 	ret = DirectInput8Create( hInst, DIRECTINPUT_VERSION, IID_IDirectInput8, (void**)&pDInput, NULL);
; 599  : 	if(ret != DI_OK){
; 600  : 		return FALSE;
; 601  : 	}
; 602  : #else
; 603  : 	ret = DirectInputCreate(hInst,DIRECTINPUT_VERSION,&pDInput2,NULL);

  000b6	6a 00		 push	 0
  000b8	68 00 00 00 00	 push	 OFFSET ?pDInput2@@3PAUIDirectInputA@@A ; pDInput2
  000bd	68 00 07 00 00	 push	 1792			; 00000700H
  000c2	ff 35 00 00 00
	00		 push	 DWORD PTR ?hInst@@3PAUHINSTANCE__@@A ; hInst
  000c8	e8 00 00 00 00	 call	 _DirectInputCreateA@16

; 604  : 	if(ret != DI_OK){

  000cd	85 c0		 test	 eax, eax
  000cf	75 d7		 jne	 SHORT $LN22@InitDInput

; 606  : 	}
; 607  : #endif
; 608  : 	keyboad_flg = TRUE;		//?????ï¼¯ï¼«
; 609  : 
; 610  : 	joy_flg = FALSE;		//????????î ¹îŒ¸?

  000d1	a2 00 00 00 00	 mov	 BYTE PTR ?joy_flg@@3DA, al ; joy_flg

; 611  : 	return TRUE;

  000d6	b8 01 00 00 00	 mov	 eax, 1
  000db	c6 05 00 00 00
	00 01		 mov	 BYTE PTR ?keyboad_flg@@3DA, 1 ; keyboad_flg

; 612  : 
; 613  : 	//?????????î–™?
; 614  : 	pDInputDevice2 = NULL;
; 615  : 
; 616  : #ifndef DI_2
; 617  : 	pDInput2->EnumDevices( DI8DEVCLASS_GAMECTRL, (LPDIENUMDEVICESCALLBACK)GetJoystickCallback, NULL, DIEDFL_ATTACHEDONLY);
; 618  : 	if(pDInputDevice2 == NULL){
; 619  : 		RELEASE(pDInput2);
; 620  : 		return FALSE;
; 621  : 	}
; 622  : #else
; 623  : 	pDInput2->EnumDevices(DIDEVTYPE_JOYSTICK,(LPDIENUMDEVICESCALLBACK)GetJoystickCallback,NULL,DIEDFL_ATTACHEDONLY);
; 624  : 	if(pDInputDevice2 == NULL){
; 625  : 		RELEASE(pDInput2);
; 626  : 		return FALSE;
; 627  : 	}
; 628  : #endif
; 629  : 	//??????????î“†î˜‹
; 630  : 	ret = pDInputDevice2->SetDataFormat(&c_dfDIJoystick);
; 631  : 	if(ret != DI_OK){
; 632  : 		RELEASE(pDInputDevice2);
; 633  : 		RELEASE(pDInput2);
; 634  : 		return FALSE;
; 635  : 	}
; 636  : 
; 637  : 	//????î“†î˜‹
; 638  : 	ret = pDInputDevice2->SetCooperativeLevel(hWnd,DISCL_NONEXCLUSIVE | DISCL_FOREGROUND);
; 639  : 	if(ret != DI_OK){
; 640  : 		RELEASE(pDInputDevice2);
; 641  : 		RELEASE(pDInput2);
; 642  : 		return FALSE;
; 643  : 	}
; 644  : 
; 645  : 	DIPROPRANGE diprg; 
; 646  :  
; 647  : 	// î¡?î–±?îœª??î“†î˜‹
; 648  : 	diprg.diph.dwSize	= sizeof(diprg); 
; 649  : 	diprg.diph.dwHeaderSize	= sizeof(diprg.diph); 
; 650  : 	diprg.diph.dwObj	= DIJOFS_X; 
; 651  : 	diprg.diph.dwHow	= DIPH_BYOFFSET; 
; 652  : 	diprg.lMin	= -1000; 
; 653  : 	diprg.lMax	= +1000; 
; 654  :  	pDInputDevice2->SetProperty(DIPROP_RANGE, &diprg.diph);
; 655  : 	diprg.diph.dwObj	= DIJOFS_Y; 
; 656  :  	pDInputDevice2->SetProperty(DIPROP_RANGE, &diprg.diph);
; 657  : 
; 658  : 	pDInputDevice2->Acquire();
; 659  : 
; 660  : 	joy_flg = TRUE;		//????????ï¼¯ï¼«
; 661  : 	return TRUE;
; 662  : }

  000e2	c3		 ret	 0
?InitDInput@@YAHXZ ENDP					; InitDInput
_TEXT	ENDS
; Function compile flags: /Ogtp
; File C:\Users\gg862\OneDrive\¹ÙÅÁ È­¸é\¸¾Äí¿Ï·á\Client Source Code1.31ÀÏº»\oft\sys2.cpp
;	COMDAT ?joy_read@@YAXXZ
_TEXT	SEGMENT
_dijs$ = -84						; size = 80
__$ArrayPad$ = -4					; size = 4
?joy_read@@YAXXZ PROC					; joy_read, COMDAT

; 261  : {

  00000	55		 push	 ebp
  00001	8b ec		 mov	 ebp, esp
  00003	83 ec 54	 sub	 esp, 84			; 00000054H
  00006	a1 00 00 00 00	 mov	 eax, DWORD PTR ___security_cookie
  0000b	33 c5		 xor	 eax, ebp
  0000d	89 45 fc	 mov	 DWORD PTR __$ArrayPad$[ebp], eax

; 262  : 	Uint32	d0,d1;
; 263  : 	Uint32 a,c;
; 264  : 	HRESULT ret = DI_OK;
; 265  : 	DIJOYSTATE dijs;
; 266  : 
; 267  : 	if(keyboad_flg == FALSE){		//?????????

  00010	80 3d 00 00 00
	00 00		 cmp	 BYTE PTR ?keyboad_flg@@3DA, 0 ; keyboad_flg
  00017	0f 84 1e 09 00
	00		 je	 $LN113@joy_read

; 268  : 		return;
; 269  : 	}
; 270  : 
; 271  : 	d0=0;						

  0001d	56		 push	 esi
  0001e	33 f6		 xor	 esi, esi

; 272  : 	
; 273  : 	//??î”ªîŽ•???
; 274  : 	
; 275  : 	if( DInputActiveFlag == TRUE ){

  00020	83 3d 00 00 00
	00 01		 cmp	 DWORD PTR ?DInputActiveFlag@@3HA, 1 ; DInputActiveFlag
  00027	0f 85 dc 00 00
	00		 jne	 $LN131@joy_read

; 276  : 		if(joy_flg == TRUE){		//????????ï¼¯ï¼«??

  0002d	80 3d 00 00 00
	00 01		 cmp	 BYTE PTR ?joy_flg@@3DA, 1 ; joy_flg
  00034	0f 85 91 00 00
	00		 jne	 $LN13@joy_read

; 277  : 			pDInputDevice2->Poll();		//????????îš‡???

  0003a	a1 00 00 00 00	 mov	 eax, DWORD PTR ?pDInputDevice2@@3PAUIDirectInputDevice2A@@A ; pDInputDevice2
  0003f	50		 push	 eax
  00040	8b 08		 mov	 ecx, DWORD PTR [eax]
  00042	ff 51 64	 call	 DWORD PTR [ecx+100]

; 278  : 			ret = pDInputDevice2->GetDeviceState(sizeof(DIJOYSTATE),&dijs);

  00045	a1 00 00 00 00	 mov	 eax, DWORD PTR ?pDInputDevice2@@3PAUIDirectInputDevice2A@@A ; pDInputDevice2
  0004a	8d 55 ac	 lea	 edx, DWORD PTR _dijs$[ebp]
  0004d	52		 push	 edx
  0004e	6a 50		 push	 80			; 00000050H
  00050	50		 push	 eax
  00051	8b 08		 mov	 ecx, DWORD PTR [eax]
  00053	ff 51 24	 call	 DWORD PTR [ecx+36]

; 279  : 			if(ret == DI_OK){

  00056	85 c0		 test	 eax, eax
  00058	75 5f		 jne	 SHORT $LN5@joy_read

; 280  : 				if(dijs.lX > 500)

  0005a	81 7d ac f4 01
	00 00		 cmp	 DWORD PTR _dijs$[ebp], 500 ; 000001f4H
  00061	b9 00 80 00 00	 mov	 ecx, 32768		; 00008000H
  00066	0f 4f f1	 cmovg	 esi, ecx

; 281  : 					d0|=JOY_RIGHT;
; 282  : 				if(dijs.lX < -500)

  00069	81 7d ac 0c fe
	ff ff		 cmp	 DWORD PTR _dijs$[ebp], -500 ; fffffe0cH
  00070	7d 06		 jge	 SHORT $LN8@joy_read

; 283  : 					d0|=JOY_LEFT;

  00072	81 ce 00 40 00
	00		 or	 esi, 16384		; 00004000H
$LN8@joy_read:

; 284  : 				if(dijs.lY > 500)

  00078	8b 45 b0	 mov	 eax, DWORD PTR _dijs$[ebp+4]
  0007b	3d f4 01 00 00	 cmp	 eax, 500		; 000001f4H
  00080	7e 06		 jle	 SHORT $LN9@joy_read

; 285  : 					d0|=JOY_DOWN;

  00082	81 ce 00 20 00
	00		 or	 esi, 8192		; 00002000H
$LN9@joy_read:

; 286  : 				if(dijs.lY < -500)

  00088	3d 0c fe ff ff	 cmp	 eax, -500		; fffffe0cH
  0008d	7d 06		 jge	 SHORT $LN10@joy_read

; 287  : 					d0|=JOY_UP;

  0008f	81 ce 00 10 00
	00		 or	 esi, 4096		; 00001000H
$LN10@joy_read:

; 288  : 				if(dijs.rgbButtons[0] & 0x80)

  00095	0f b6 45 dc	 movzx	 eax, BYTE PTR _dijs$[ebp+48]

; 289  : 					d0|=JOY_A;
; 290  : 				if(dijs.rgbButtons[1] & 0x80)

  00099	8b ce		 mov	 ecx, esi
  0009b	81 c9 00 04 00
	00		 or	 ecx, 1024		; 00000400H
  000a1	24 80		 and	 al, 128			; 00000080H
  000a3	0f b6 45 dd	 movzx	 eax, BYTE PTR _dijs$[ebp+49]
  000a7	0f 44 ce	 cmove	 ecx, esi

; 291  : 					d0|=JOY_B;
; 292  : 			}

  000aa	8b f1		 mov	 esi, ecx
  000ac	81 ce 00 01 00
	00		 or	 esi, 256		; 00000100H
  000b2	24 80		 and	 al, 128			; 00000080H
  000b4	0f 44 f1	 cmove	 esi, ecx
  000b7	eb 12		 jmp	 SHORT $LN13@joy_read
$LN5@joy_read:

; 293  : 			else if(ret == DIERR_INPUTLOST){

  000b9	3d 1e 00 07 80	 cmp	 eax, -2147024866	; 8007001eH
  000be	75 0b		 jne	 SHORT $LN13@joy_read

; 294  : 				pDInputDevice2->Acquire();

  000c0	a1 00 00 00 00	 mov	 eax, DWORD PTR ?pDInputDevice2@@3PAUIDirectInputDevice2A@@A ; pDInputDevice2
  000c5	50		 push	 eax
  000c6	8b 08		 mov	 ecx, DWORD PTR [eax]
  000c8	ff 51 1c	 call	 DWORD PTR [ecx+28]
$LN13@joy_read:

; 295  : 			}
; 296  : 		}
; 297  : 		ret = pDInputDevice->GetDeviceState(256,di_key);		//?????îš‡???

  000cb	a1 00 00 00 00	 mov	 eax, DWORD PTR ?pDInputDevice@@3PAUIDirectInputDeviceA@@A ; pDInputDevice
  000d0	68 00 00 00 00	 push	 OFFSET ?di_key@@3PAEA	; di_key
  000d5	68 00 01 00 00	 push	 256			; 00000100H
  000da	50		 push	 eax
  000db	8b 08		 mov	 ecx, DWORD PTR [eax]
  000dd	ff 51 24	 call	 DWORD PTR [ecx+36]

; 298  : 	}
; 299  : 	if(ret == DI_OK){

  000e0	85 c0		 test	 eax, eax
  000e2	74 25		 je	 SHORT $LN131@joy_read

; 544  : 	}
; 545  : 	else if(ret == DIERR_INPUTLOST){

  000e4	3d 1e 00 07 80	 cmp	 eax, -2147024866	; 8007001eH
  000e9	0f 85 4b 08 00
	00		 jne	 $LN133@joy_read

; 546  : 		pDInputDevice->Acquire();

  000ef	a1 00 00 00 00	 mov	 eax, DWORD PTR ?pDInputDevice@@3PAUIDirectInputDeviceA@@A ; pDInputDevice
  000f4	50		 push	 eax
  000f5	8b 08		 mov	 ecx, DWORD PTR [eax]
  000f7	ff 51 1c	 call	 DWORD PTR [ecx+28]
  000fa	5e		 pop	 esi

; 547  : 	}
; 548  : }

  000fb	8b 4d fc	 mov	 ecx, DWORD PTR __$ArrayPad$[ebp]
  000fe	33 cd		 xor	 ecx, ebp
  00100	e8 00 00 00 00	 call	 @__security_check_cookie@4
  00105	8b e5		 mov	 esp, ebp
  00107	5d		 pop	 ebp
  00108	c3		 ret	 0
$LN131@joy_read:

; 300  : 		if(di_key[DIK_LEFT] & 0x80)

  00109	0f b6 05 cb 00
	00 00		 movzx	 eax, BYTE PTR ?di_key@@3PAEA+203

; 301  : 			d0|=JOY_LEFT;
; 302  : 		if(di_key[DIK_UP] & 0x80)

  00110	8b ce		 mov	 ecx, esi
  00112	81 c9 00 40 00
	00		 or	 ecx, 16384		; 00004000H
  00118	24 80		 and	 al, 128			; 00000080H
  0011a	0f b6 05 c8 00
	00 00		 movzx	 eax, BYTE PTR ?di_key@@3PAEA+200
  00121	0f 44 ce	 cmove	 ecx, esi

; 303  : 			d0|=JOY_UP;
; 304  : 		if(di_key[DIK_RIGHT] & 0x80)

  00124	8b d1		 mov	 edx, ecx
  00126	81 ca 00 10 00
	00		 or	 edx, 4096		; 00001000H
  0012c	24 80		 and	 al, 128			; 00000080H
  0012e	0f b6 05 cd 00
	00 00		 movzx	 eax, BYTE PTR ?di_key@@3PAEA+205
  00135	0f 44 d1	 cmove	 edx, ecx

; 305  : 			d0|=JOY_RIGHT;
; 306  : 		if(di_key[DIK_DOWN] & 0x80)

  00138	8b ca		 mov	 ecx, edx
  0013a	81 c9 00 80 00
	00		 or	 ecx, 32768		; 00008000H
  00140	24 80		 and	 al, 128			; 00000080H
  00142	0f b6 05 d0 00
	00 00		 movzx	 eax, BYTE PTR ?di_key@@3PAEA+208
  00149	0f 44 ca	 cmove	 ecx, edx

; 307  : 			d0|=JOY_DOWN;
; 308  : 		//if(di_key[DIK_Z] & 0x80)
; 309  : 		//	d0|=JOY_A;
; 310  : 		//if(di_key[DIK_X] & 0x80)
; 311  : 		//	d0|=JOY_B;
; 312  : 		//if(di_key[DIK_G] & 0x80)
; 313  : 		//	d0|=JOY_A;
; 314  : 		//if(di_key[DIK_H] & 0x80)
; 315  : 		//	d0|=JOY_B;
; 316  : 			
; 317  : 		// ???? ?????????
; 318  : 		// ESC ??
; 319  : 		if(di_key[DIK_ESCAPE] & 0x80){

  0014c	8b d1		 mov	 edx, ecx
  0014e	81 ca 00 20 00
	00		 or	 edx, 8192		; 00002000H
  00154	24 80		 and	 al, 128			; 00000080H
  00156	0f b6 05 01 00
	00 00		 movzx	 eax, BYTE PTR ?di_key@@3PAEA+1
  0015d	0f 44 d1	 cmove	 edx, ecx

; 320  : 			// ?????????îž°??î¡Š??
; 321  : 			//if( ImeBufferBak2 == NULL ) 
; 322  : 			d0|=JOY_ESC;
; 323  : 		}
; 324  : 		
; 325  : 		// ??????? Ctrl ???????????
; 326  : 		if( di_key[DIK_RCONTROL] & 0x80 || di_key[DIK_LCONTROL] & 0x80 ){ 

  00160	8b f2		 mov	 esi, edx
  00162	81 ce 00 00 00
	80		 or	 esi, -2147483648	; 80000000H
  00168	24 80		 and	 al, 128			; 00000080H
  0016a	0f 44 f2	 cmove	 esi, edx
  0016d	f6 05 9d 00 00
	00 80		 test	 BYTE PTR ?di_key@@3PAEA+157, 128 ; 00000080H
  00174	75 0d		 jne	 SHORT $LN22@joy_read
  00176	f6 05 1d 00 00
	00 80		 test	 BYTE PTR ?di_key@@3PAEA+29, 128 ; 00000080H
  0017d	0f 84 c3 00 00
	00		 je	 $LN32@joy_read
$LN22@joy_read:

; 327  : 			// Ctrl + M
; 328  : 			if( di_key[DIK_M] & 0x80 )	d0|=JOY_CTRL_M;

  00183	0f b6 05 32 00
	00 00		 movzx	 eax, BYTE PTR ?di_key@@3PAEA+50

; 329  : 			// Ctrl + S
; 330  : 			if( di_key[DIK_S] & 0x80 )	d0|=JOY_CTRL_S;

  0018a	8b ce		 mov	 ecx, esi
  0018c	81 c9 00 00 00
	40		 or	 ecx, 1073741824		; 40000000H
  00192	24 80		 and	 al, 128			; 00000080H
  00194	0f b6 05 1f 00
	00 00		 movzx	 eax, BYTE PTR ?di_key@@3PAEA+31
  0019b	0f 44 ce	 cmove	 ecx, esi

; 331  : 			// Ctrl + P
; 332  : 			if( di_key[DIK_P] & 0x80 )	d0|=JOY_CTRL_P;

  0019e	8b d1		 mov	 edx, ecx
  001a0	81 ca 00 00 00
	20		 or	 edx, 536870912		; 20000000H
  001a6	24 80		 and	 al, 128			; 00000080H
  001a8	0f b6 05 19 00
	00 00		 movzx	 eax, BYTE PTR ?di_key@@3PAEA+25
  001af	0f 44 d1	 cmove	 edx, ecx

; 333  : 			// Ctrl + I
; 334  : 			if( di_key[DIK_I] & 0x80 )	d0|=JOY_CTRL_I;

  001b2	8b ca		 mov	 ecx, edx
  001b4	81 c9 00 00 00
	10		 or	 ecx, 268435456		; 10000000H
  001ba	24 80		 and	 al, 128			; 00000080H
  001bc	0f b6 05 17 00
	00 00		 movzx	 eax, BYTE PTR ?di_key@@3PAEA+23
  001c3	0f 44 ca	 cmove	 ecx, edx

; 335  : 			// Ctrl + E
; 336  : 			if( di_key[DIK_E] & 0x80 )	d0|=JOY_CTRL_E;

  001c6	8b d1		 mov	 edx, ecx
  001c8	81 ca 00 00 00
	08		 or	 edx, 134217728		; 08000000H
  001ce	24 80		 and	 al, 128			; 00000080H
  001d0	0f b6 05 12 00
	00 00		 movzx	 eax, BYTE PTR ?di_key@@3PAEA+18
  001d7	0f 44 d1	 cmove	 edx, ecx

; 337  : 			// Ctrl + A
; 338  : 			if( di_key[DIK_A] & 0x80 )	d0|=JOY_CTRL_A;

  001da	8b ca		 mov	 ecx, edx
  001dc	81 c9 00 00 00
	04		 or	 ecx, 67108864		; 04000000H
  001e2	24 80		 and	 al, 128			; 00000080H
  001e4	0f b6 05 1e 00
	00 00		 movzx	 eax, BYTE PTR ?di_key@@3PAEA+30
  001eb	0f 44 ca	 cmove	 ecx, edx

; 339  : 			// Ctrl + C
; 340  : 			if( di_key[DIK_C] & 0x80 )	d0|=JOY_CTRL_C;

  001ee	8b d1		 mov	 edx, ecx
  001f0	81 ca 00 00 00
	02		 or	 edx, 33554432		; 02000000H
  001f6	24 80		 and	 al, 128			; 00000080H
  001f8	0f b6 05 2e 00
	00 00		 movzx	 eax, BYTE PTR ?di_key@@3PAEA+46
  001ff	0f 44 d1	 cmove	 edx, ecx

; 341  : 			// Ctrl + V
; 342  : 			if( di_key[DIK_V] & 0x80 )	d0|=JOY_CTRL_V;

  00202	8b ca		 mov	 ecx, edx
  00204	81 c9 00 00 00
	01		 or	 ecx, 16777216		; 01000000H
  0020a	24 80		 and	 al, 128			; 00000080H
  0020c	0f b6 05 2f 00
	00 00		 movzx	 eax, BYTE PTR ?di_key@@3PAEA+47
  00213	0f 44 ca	 cmove	 ecx, edx

; 343  : 			// Ctrl + Z
; 344  : 			if( di_key[DIK_Z] & 0x80 )	d0|=JOY_A;

  00216	8b d1		 mov	 edx, ecx
  00218	81 ca 00 00 80
	00		 or	 edx, 8388608		; 00800000H
  0021e	24 80		 and	 al, 128			; 00000080H
  00220	0f b6 05 2c 00
	00 00		 movzx	 eax, BYTE PTR ?di_key@@3PAEA+44
  00227	0f 44 d1	 cmove	 edx, ecx

; 345  : 			// Ctrl + X
; 346  : 			if( di_key[DIK_X] & 0x80 )	d0|=JOY_B;

  0022a	8b f2		 mov	 esi, edx
  0022c	81 ce 00 04 00
	00		 or	 esi, 1024		; 00000400H
  00232	24 80		 and	 al, 128			; 00000080H
  00234	0f 44 f2	 cmove	 esi, edx
  00237	f6 05 2d 00 00
	00 80		 test	 BYTE PTR ?di_key@@3PAEA+45, 128 ; 00000080H
  0023e	74 06		 je	 SHORT $LN32@joy_read
  00240	81 ce 00 01 00
	00		 or	 esi, 256		; 00000100H
$LN32@joy_read:

; 347  : 			// Ctrl + T
; 348  : 			//if( di_key[DIK_T] & 0x80 )	d0|=JOY_CTRL_T;
; 349  : 			
; 350  : 		}
; 351  : 		
; 352  : 		// îšîŽ™??
; 353  : 		if( di_key[DIK_PRIOR]	& 0x80)		d0|=JOY_P_UP;

  00246	0f b6 05 c9 00
	00 00		 movzx	 eax, BYTE PTR ?di_key@@3PAEA+201

; 354  : 		if( di_key[DIK_NEXT] 	& 0x80)		d0|=JOY_P_DOWN;

  0024d	8b ce		 mov	 ecx, esi
  0024f	83 c9 01	 or	 ecx, 1
  00252	24 80		 and	 al, 128			; 00000080H
  00254	0f b6 05 d1 00
	00 00		 movzx	 eax, BYTE PTR ?di_key@@3PAEA+209
  0025b	0f 44 ce	 cmove	 ecx, esi

; 355  : 		if( di_key[DIK_HOME] 	& 0x80)		d0|=JOY_HOME;

  0025e	8b d1		 mov	 edx, ecx
  00260	83 ca 02	 or	 edx, 2
  00263	24 80		 and	 al, 128			; 00000080H
  00265	0f b6 05 c7 00
	00 00		 movzx	 eax, BYTE PTR ?di_key@@3PAEA+199
  0026c	0f 44 d1	 cmove	 edx, ecx

; 356  : 		if( di_key[DIK_END] 	& 0x80)		d0|=JOY_END;

  0026f	8b ca		 mov	 ecx, edx
  00271	83 c9 04	 or	 ecx, 4
  00274	24 80		 and	 al, 128			; 00000080H
  00276	0f b6 05 cf 00
	00 00		 movzx	 eax, BYTE PTR ?di_key@@3PAEA+207
  0027d	0f 44 ca	 cmove	 ecx, edx

; 357  : 		if( di_key[DIK_INSERT] 	& 0x80)		d0|=JOY_INS;

  00280	8b d1		 mov	 edx, ecx
  00282	83 ca 08	 or	 edx, 8
  00285	24 80		 and	 al, 128			; 00000080H
  00287	0f b6 05 d2 00
	00 00		 movzx	 eax, BYTE PTR ?di_key@@3PAEA+210
  0028e	0f 44 d1	 cmove	 edx, ecx

; 358  : 		if( di_key[DIK_DELETE] 	& 0x80)		d0|=JOY_DEL;

  00291	8b f2		 mov	 esi, edx
  00293	83 ce 10	 or	 esi, 16			; 00000010H
  00296	24 80		 and	 al, 128			; 00000080H
  00298	0f b6 05 d3 00
	00 00		 movzx	 eax, BYTE PTR ?di_key@@3PAEA+211
  0029f	0f 44 f2	 cmove	 esi, edx

; 359  : 		
; 360  : 		
; 361  : 		
; 362  : 		joy_con[0] = d0;

  002a2	8b ce		 mov	 ecx, esi
  002a4	83 c9 20	 or	 ecx, 32			; 00000020H
  002a7	24 80		 and	 al, 128			; 00000080H
  002a9	0f 44 ce	 cmove	 ecx, esi

; 363  : 
; 364  : 		d0=0;

  002ac	33 f6		 xor	 esi, esi
  002ae	89 0d 00 00 00
	00		 mov	 DWORD PTR ?joy_con@@3PAKA, ecx

; 365  : 		
; 366  : 		//??î”ªîŽ•???
; 367  : 		// ???îŸ‰???î¡Š??
; 368  : 		if( GetImeString() == NULL ){

  002b4	e8 00 00 00 00	 call	 ?GetImeString@@YAPADXZ	; GetImeString
  002b9	85 c0		 test	 eax, eax
  002bb	0f 85 cf 00 00
	00		 jne	 $LN51@joy_read

; 369  : 			
; 370  : 			// ?????????
; 371  : 			if(di_key[DIK_F1] & 0x80) d0|=JOY_F1;

  002c1	0f b6 0d 3b 00
	00 00		 movzx	 ecx, BYTE PTR ?di_key@@3PAEA+59

; 372  : 			if(di_key[DIK_F2] & 0x80) d0|=JOY_F2;

  002c8	0f b6 05 3c 00
	00 00		 movzx	 eax, BYTE PTR ?di_key@@3PAEA+60
  002cf	c1 e9 07	 shr	 ecx, 7

; 373  : 			if(di_key[DIK_F3] & 0x80) d0|=JOY_F3;

  002d2	8b d1		 mov	 edx, ecx
  002d4	83 ca 02	 or	 edx, 2
  002d7	24 80		 and	 al, 128			; 00000080H
  002d9	0f b6 05 3d 00
	00 00		 movzx	 eax, BYTE PTR ?di_key@@3PAEA+61
  002e0	0f 44 d1	 cmove	 edx, ecx

; 374  : 			if(di_key[DIK_F4] & 0x80) d0|=JOY_F4;

  002e3	8b ca		 mov	 ecx, edx
  002e5	83 c9 04	 or	 ecx, 4
  002e8	24 80		 and	 al, 128			; 00000080H
  002ea	0f b6 05 3e 00
	00 00		 movzx	 eax, BYTE PTR ?di_key@@3PAEA+62
  002f1	0f 44 ca	 cmove	 ecx, edx

; 375  : 			
; 376  : 			if(di_key[DIK_F5] & 0x80) d0|=JOY_F5;

  002f4	8b d1		 mov	 edx, ecx
  002f6	83 ca 08	 or	 edx, 8
  002f9	24 80		 and	 al, 128			; 00000080H
  002fb	0f b6 05 3f 00
	00 00		 movzx	 eax, BYTE PTR ?di_key@@3PAEA+63
  00302	0f 44 d1	 cmove	 edx, ecx

; 377  : 			if(di_key[DIK_F6] & 0x80) d0|=JOY_F6;

  00305	8b ca		 mov	 ecx, edx
  00307	83 c9 10	 or	 ecx, 16			; 00000010H
  0030a	24 80		 and	 al, 128			; 00000080H
  0030c	0f b6 05 40 00
	00 00		 movzx	 eax, BYTE PTR ?di_key@@3PAEA+64
  00313	0f 44 ca	 cmove	 ecx, edx

; 378  : 			if(di_key[DIK_F7] & 0x80) d0|=JOY_F7;

  00316	8b d1		 mov	 edx, ecx
  00318	83 ca 20	 or	 edx, 32			; 00000020H
  0031b	24 80		 and	 al, 128			; 00000080H
  0031d	0f b6 05 41 00
	00 00		 movzx	 eax, BYTE PTR ?di_key@@3PAEA+65
  00324	0f 44 d1	 cmove	 edx, ecx

; 379  : 			if(di_key[DIK_F8] & 0x80) d0|=JOY_F8;

  00327	8b ca		 mov	 ecx, edx
  00329	83 c9 40	 or	 ecx, 64			; 00000040H
  0032c	24 80		 and	 al, 128			; 00000080H
  0032e	0f b6 05 42 00
	00 00		 movzx	 eax, BYTE PTR ?di_key@@3PAEA+66
  00335	0f 44 ca	 cmove	 ecx, edx

; 380  : 			
; 381  : 			if(di_key[DIK_F9] & 0x80) d0|=JOY_F9;

  00338	8b d1		 mov	 edx, ecx
  0033a	81 ca 80 00 00
	00		 or	 edx, 128		; 00000080H
  00340	24 80		 and	 al, 128			; 00000080H
  00342	0f b6 05 43 00
	00 00		 movzx	 eax, BYTE PTR ?di_key@@3PAEA+67
  00349	0f 44 d1	 cmove	 edx, ecx

; 382  : 			if(di_key[DIK_F10] & 0x80) d0|=JOY_F10;

  0034c	8b ca		 mov	 ecx, edx
  0034e	81 c9 00 01 00
	00		 or	 ecx, 256		; 00000100H
  00354	24 80		 and	 al, 128			; 00000080H
  00356	0f b6 05 44 00
	00 00		 movzx	 eax, BYTE PTR ?di_key@@3PAEA+68
  0035d	0f 44 ca	 cmove	 ecx, edx

; 383  : 			if(di_key[DIK_F11] & 0x80) d0|=JOY_F11;

  00360	8b d1		 mov	 edx, ecx
  00362	81 ca 00 02 00
	00		 or	 edx, 512		; 00000200H
  00368	24 80		 and	 al, 128			; 00000080H
  0036a	0f b6 05 57 00
	00 00		 movzx	 eax, BYTE PTR ?di_key@@3PAEA+87
  00371	0f 44 d1	 cmove	 edx, ecx

; 384  : 			if(di_key[DIK_F12] & 0x80) d0|=JOY_F12;

  00374	8b f2		 mov	 esi, edx
  00376	81 ce 00 04 00
	00		 or	 esi, 1024		; 00000400H
  0037c	24 80		 and	 al, 128			; 00000080H
  0037e	0f 44 f2	 cmove	 esi, edx
  00381	f6 05 58 00 00
	00 80		 test	 BYTE PTR ?di_key@@3PAEA+88, 128 ; 00000080H
  00388	74 06		 je	 SHORT $LN51@joy_read
  0038a	81 ce 00 08 00
	00		 or	 esi, 2048		; 00000800H
$LN51@joy_read:

; 385  : 		}
; 386  : 		// ??????? Ctrl ???????????
; 387  : 		if( di_key[DIK_RCONTROL] & 0x80 || di_key[DIK_LCONTROL] & 0x80 ){ 

  00390	f6 05 9d 00 00
	00 80		 test	 BYTE PTR ?di_key@@3PAEA+157, 128 ; 00000080H
  00397	75 0d		 jne	 SHORT $LN53@joy_read
  00399	f6 05 1d 00 00
	00 80		 test	 BYTE PTR ?di_key@@3PAEA+29, 128 ; 00000080H
  003a0	0f 84 72 01 00
	00		 je	 $LN72@joy_read
$LN53@joy_read:

; 388  : 			// ??????????????
; 389  : 			if(di_key[DIK_1] & 0x80) d0|=JOY_CTRL_1;

  003a6	f6 05 02 00 00
	00 80		 test	 BYTE PTR ?di_key@@3PAEA+2, 128 ; 00000080H
  003ad	74 06		 je	 SHORT $LN54@joy_read
  003af	81 ce 00 10 00
	00		 or	 esi, 4096		; 00001000H
$LN54@joy_read:

; 390  : 			if(di_key[DIK_2] & 0x80) d0|=JOY_CTRL_2;

  003b5	0f b6 05 03 00
	00 00		 movzx	 eax, BYTE PTR ?di_key@@3PAEA+3

; 391  : 			if(di_key[DIK_3] & 0x80) d0|=JOY_CTRL_3;

  003bc	8b ce		 mov	 ecx, esi
  003be	81 c9 00 20 00
	00		 or	 ecx, 8192		; 00002000H
  003c4	24 80		 and	 al, 128			; 00000080H
  003c6	0f b6 05 04 00
	00 00		 movzx	 eax, BYTE PTR ?di_key@@3PAEA+4
  003cd	0f 44 ce	 cmove	 ecx, esi

; 392  : 			if(di_key[DIK_4] & 0x80) d0|=JOY_CTRL_4;

  003d0	8b d1		 mov	 edx, ecx
  003d2	81 ca 00 40 00
	00		 or	 edx, 16384		; 00004000H
  003d8	24 80		 and	 al, 128			; 00000080H
  003da	0f b6 05 05 00
	00 00		 movzx	 eax, BYTE PTR ?di_key@@3PAEA+5
  003e1	0f 44 d1	 cmove	 edx, ecx

; 393  : 			if(di_key[DIK_5] & 0x80) d0|=JOY_CTRL_5;

  003e4	8b ca		 mov	 ecx, edx
  003e6	81 c9 00 80 00
	00		 or	 ecx, 32768		; 00008000H
  003ec	24 80		 and	 al, 128			; 00000080H
  003ee	0f b6 05 06 00
	00 00		 movzx	 eax, BYTE PTR ?di_key@@3PAEA+6
  003f5	0f 44 ca	 cmove	 ecx, edx

; 394  : 			if(di_key[DIK_6] & 0x80) d0|=JOY_CTRL_6;

  003f8	8b d1		 mov	 edx, ecx
  003fa	81 ca 00 00 01
	00		 or	 edx, 65536		; 00010000H
  00400	24 80		 and	 al, 128			; 00000080H
  00402	0f b6 05 07 00
	00 00		 movzx	 eax, BYTE PTR ?di_key@@3PAEA+7
  00409	0f 44 d1	 cmove	 edx, ecx

; 395  : 			if(di_key[DIK_7] & 0x80) d0|=JOY_CTRL_7;

  0040c	8b ca		 mov	 ecx, edx
  0040e	81 c9 00 00 02
	00		 or	 ecx, 131072		; 00020000H
  00414	24 80		 and	 al, 128			; 00000080H
  00416	0f b6 05 08 00
	00 00		 movzx	 eax, BYTE PTR ?di_key@@3PAEA+8
  0041d	0f 44 ca	 cmove	 ecx, edx

; 396  : 			if(di_key[DIK_8] & 0x80) d0|=JOY_CTRL_8;

  00420	8b d1		 mov	 edx, ecx
  00422	81 ca 00 00 04
	00		 or	 edx, 262144		; 00040000H
  00428	24 80		 and	 al, 128			; 00000080H
  0042a	0f b6 05 09 00
	00 00		 movzx	 eax, BYTE PTR ?di_key@@3PAEA+9
  00431	0f 44 d1	 cmove	 edx, ecx

; 397  : 			if(di_key[DIK_9] & 0x80) d0|=JOY_CTRL_9;

  00434	8b ca		 mov	 ecx, edx
  00436	81 c9 00 00 08
	00		 or	 ecx, 524288		; 00080000H
  0043c	24 80		 and	 al, 128			; 00000080H
  0043e	0f b6 05 0a 00
	00 00		 movzx	 eax, BYTE PTR ?di_key@@3PAEA+10
  00445	0f 44 ca	 cmove	 ecx, edx

; 398  : 			if(di_key[DIK_0] & 0x80) d0|=JOY_CTRL_0;

  00448	8b d1		 mov	 edx, ecx
  0044a	81 ca 00 00 10
	00		 or	 edx, 1048576		; 00100000H
  00450	24 80		 and	 al, 128			; 00000080H
  00452	0f b6 05 0b 00
	00 00		 movzx	 eax, BYTE PTR ?di_key@@3PAEA+11
  00459	0f 44 d1	 cmove	 edx, ecx

; 399  : 			if(di_key[DIK_MINUS] & 0x80) 	d0|=JOY_CTRL_MINUS;

  0045c	8b ca		 mov	 ecx, edx
  0045e	81 c9 00 00 20
	00		 or	 ecx, 2097152		; 00200000H
  00464	24 80		 and	 al, 128			; 00000080H
  00466	0f b6 05 0c 00
	00 00		 movzx	 eax, BYTE PTR ?di_key@@3PAEA+12
  0046d	0f 44 ca	 cmove	 ecx, edx

; 400  : 			//cary åå…­
; 401  : 			if(di_key[DIK_EQUALS] & 0x80) 	d0|=JOY_CTRL_CIRCUMFLEX;

  00470	8b d1		 mov	 edx, ecx
  00472	81 ca 00 00 40
	00		 or	 edx, 4194304		; 00400000H
  00478	24 80		 and	 al, 128			; 00000080H
  0047a	0f b6 05 0d 00
	00 00		 movzx	 eax, BYTE PTR ?di_key@@3PAEA+13
  00481	0f 44 d1	 cmove	 edx, ecx

; 402  : 			if(di_key[DIK_BACKSLASH] & 0x80) d0|=JOY_CTRL_YEN;

  00484	8b ca		 mov	 ecx, edx
  00486	81 c9 00 00 80
	00		 or	 ecx, 8388608		; 00800000H
  0048c	24 80		 and	 al, 128			; 00000080H
  0048e	0f b6 05 2b 00
	00 00		 movzx	 eax, BYTE PTR ?di_key@@3PAEA+43
  00495	0f 44 ca	 cmove	 ecx, edx

; 403  : 			if(di_key[DIK_J] & 0x80) d0|=JOY_CTRL_J;

  00498	8b d1		 mov	 edx, ecx
  0049a	81 ca 00 00 00
	10		 or	 edx, 268435456		; 10000000H
  004a0	24 80		 and	 al, 128			; 00000080H
  004a2	0f b6 05 24 00
	00 00		 movzx	 eax, BYTE PTR ?di_key@@3PAEA+36
  004a9	0f 44 d1	 cmove	 edx, ecx

; 404  : 			if(di_key[DIK_Q] & 0x80) d0|=JOY_CTRL_Q;

  004ac	8b ca		 mov	 ecx, edx
  004ae	81 c9 00 00 00
	01		 or	 ecx, 16777216		; 01000000H
  004b4	24 80		 and	 al, 128			; 00000080H
  004b6	0f b6 05 10 00
	00 00		 movzx	 eax, BYTE PTR ?di_key@@3PAEA+16
  004bd	0f 44 ca	 cmove	 ecx, edx

; 405  : 			if(di_key[DIK_W] & 0x80) d0|=JOY_CTRL_W;

  004c0	8b d1		 mov	 edx, ecx
  004c2	81 ca 00 00 00
	20		 or	 edx, 536870912		; 20000000H
  004c8	24 80		 and	 al, 128			; 00000080H
  004ca	0f b6 05 11 00
	00 00		 movzx	 eax, BYTE PTR ?di_key@@3PAEA+17
  004d1	0f 44 d1	 cmove	 edx, ecx

; 406  : 			if(di_key[DIK_G] & 0x80) d0|=JOY_CTRL_G;

  004d4	8b ca		 mov	 ecx, edx
  004d6	81 c9 00 00 00
	40		 or	 ecx, 1073741824		; 40000000H
  004dc	24 80		 and	 al, 128			; 00000080H
  004de	0f b6 05 22 00
	00 00		 movzx	 eax, BYTE PTR ?di_key@@3PAEA+34
  004e5	0f 44 ca	 cmove	 ecx, edx

; 407  : 			
; 408  : 			// Robin 0607 channel
; 409  : 			if(di_key[DIK_C] & 0x80) d0|=JOY_CTRL_C;

  004e8	8b d1		 mov	 edx, ecx
  004ea	81 ca 00 00 00
	80		 or	 edx, -2147483648	; 80000000H
  004f0	24 80		 and	 al, 128			; 00000080H
  004f2	0f b6 05 2e 00
	00 00		 movzx	 eax, BYTE PTR ?di_key@@3PAEA+46
  004f9	0f 44 d1	 cmove	 edx, ecx

; 410  : 
; 411  : 			#ifdef _TELLCHANNEL				//ROG ADD å¯†è¯­é¢‘é“
; 412  : 			if( di_key[DIK_R] & 0x80 ) d0|=JOY_CTRL_R;

  004fc	8b f2		 mov	 esi, edx
  004fe	81 ce 00 00 00
	01		 or	 esi, 16777216		; 01000000H
  00504	24 80		 and	 al, 128			; 00000080H
  00506	0f 44 f2	 cmove	 esi, edx
  00509	f6 05 13 00 00
	00 80		 test	 BYTE PTR ?di_key@@3PAEA+19, 128 ; 00000080H
  00510	74 06		 je	 SHORT $LN72@joy_read
  00512	81 ce 00 00 00
	80		 or	 esi, -2147483648	; 80000000H
$LN72@joy_read:

; 413  : 			#endif
; 414  : 
; 415  : 		}
; 416  : 		
; 417  : 		// ?????????
; 418  : 		//if(di_key[DIK_SYSRQ] & 0x80) d0|=JOY_PRINT_SCREEN;
; 419  : 		// ????
; 420  : 		if (di_key[DIK_TAB] & 0x80)

  00518	0f b6 05 0f 00
	00 00		 movzx	 eax, BYTE PTR ?di_key@@3PAEA+15

; 421  : 		{
; 422  : 					d0 |= JOY_TAB;
; 423  : 		}
; 424  : 		// ?????
; 425  : 		if(di_key[DIK_RSHIFT] & 0x80) d0|=JOY_RSHIFT;

  0051f	8b ce		 mov	 ecx, esi
  00521	81 c9 00 00 00
	02		 or	 ecx, 33554432		; 02000000H
  00527	24 80		 and	 al, 128			; 00000080H
  00529	0f b6 05 36 00
	00 00		 movzx	 eax, BYTE PTR ?di_key@@3PAEA+54
  00530	0f 44 ce	 cmove	 ecx, esi

; 426  : 		if(di_key[DIK_LSHIFT] & 0x80) d0|=JOY_LSHIFT;

  00533	8b d1		 mov	 edx, ecx
  00535	81 ca 00 00 00
	04		 or	 edx, 67108864		; 04000000H
  0053b	24 80		 and	 al, 128			; 00000080H
  0053d	0f b6 05 2a 00
	00 00		 movzx	 eax, BYTE PTR ?di_key@@3PAEA+42
  00544	0f 44 d1	 cmove	 edx, ecx
  00547	57		 push	 edi

; 427  : 		// ??????
; 428  : 		//if(di_key[DIK_RETURN] & 0x80) d0|=JOY_RETURN;
; 429  : 
; 430  : #ifdef _MIND_ICON		
; 431  : 		if( (pc.ptAct) && ((di_key[DIK_LMENU] & 0x80) || (di_key[DIK_RMENU] & 0x80)) && pc.ptAct->pYobi ){

  00548	8b fa		 mov	 edi, edx
  0054a	81 cf 00 00 00
	08		 or	 edi, 134217728		; 08000000H
  00550	24 80		 and	 al, 128			; 00000080H
  00552	a1 ec 50 00 00	 mov	 eax, DWORD PTR ?pc@@3UPC@@A+20716
  00557	0f 44 fa	 cmove	 edi, edx
  0055a	85 c0		 test	 eax, eax
  0055c	0f 84 66 03 00
	00		 je	 $LN112@joy_read
  00562	f6 05 38 00 00
	00 80		 test	 BYTE PTR ?di_key@@3PAEA+56, 128 ; 00000080H
  00569	75 0d		 jne	 SHORT $LN77@joy_read
  0056b	f6 05 b8 00 00
	00 80		 test	 BYTE PTR ?di_key@@3PAEA+184, 128 ; 00000080H
  00572	0f 84 50 03 00
	00		 je	 $LN112@joy_read
$LN77@joy_read:
  00578	8b 48 0c	 mov	 ecx, DWORD PTR [eax+12]
  0057b	85 c9		 test	 ecx, ecx
  0057d	0f 84 45 03 00
	00		 je	 $LN112@joy_read

; 432  : 			CHAREXTRA *ext;	
; 433  : 			ext = (CHAREXTRA *)pc.ptAct->pYobi;
; 434  : 			if(!ext->ptMindIcon){

  00583	83 79 10 00	 cmp	 DWORD PTR [ecx+16], 0
  00587	0f 85 3b 03 00
	00		 jne	 $LN112@joy_read

; 435  : 				if(!m_bt && (di_key[DIK_Q] & 0x80)){

  0058d	80 3d 00 00 00
	00 00		 cmp	 BYTE PTR ?m_bt@@3_NA, 0	; m_bt
  00594	0f 85 81 02 00
	00		 jne	 $LN132@joy_read
  0059a	f6 05 10 00 00
	00 80		 test	 BYTE PTR ?di_key@@3PAEA+16, 128 ; 00000080H
  005a1	74 1c		 je	 SHORT $LN115@joy_read

; 436  : 					m_bt = true; setCharMind( pc.ptAct, SPR_heart);			    

  005a3	68 b0 8b 01 00	 push	 101296			; 00018bb0H
  005a8	50		 push	 eax
  005a9	c6 05 00 00 00
	00 01		 mov	 BYTE PTR ?m_bt@@3_NA, 1	; m_bt
  005b0	e8 00 00 00 00	 call	 ?setCharMind@@YAXPAUaction@@H@Z ; setCharMind

; 437  : 					lssproto_MA_send( sockfd, nowGx, nowGy, SPR_heart);

  005b5	68 b0 8b 01 00	 push	 101296			; 00018bb0H
  005ba	e9 42 02 00 00	 jmp	 $LN134@joy_read
$LN115@joy_read:

; 438  : 				}else if(!m_bt && (di_key[DIK_W] & 0x80)){

  005bf	f6 05 11 00 00
	00 80		 test	 BYTE PTR ?di_key@@3PAEA+17, 128 ; 00000080H
  005c6	74 1c		 je	 SHORT $LN116@joy_read

; 439  : 					m_bt = true; setCharMind( pc.ptAct, SPR_broken);				

  005c8	68 b1 8b 01 00	 push	 101297			; 00018bb1H
  005cd	50		 push	 eax
  005ce	c6 05 00 00 00
	00 01		 mov	 BYTE PTR ?m_bt@@3_NA, 1	; m_bt
  005d5	e8 00 00 00 00	 call	 ?setCharMind@@YAXPAUaction@@H@Z ; setCharMind

; 440  : 					lssproto_MA_send( sockfd, nowGx, nowGy, SPR_broken);

  005da	68 b1 8b 01 00	 push	 101297			; 00018bb1H
  005df	e9 1d 02 00 00	 jmp	 $LN134@joy_read
$LN116@joy_read:

; 441  : 				}else if(!m_bt && (di_key[DIK_E] & 0x80)){

  005e4	f6 05 12 00 00
	00 80		 test	 BYTE PTR ?di_key@@3PAEA+18, 128 ; 00000080H
  005eb	74 1c		 je	 SHORT $LN117@joy_read

; 442  : 					m_bt = true; setCharMind( pc.ptAct, SPR_m_clip);				

  005ed	68 b4 8b 01 00	 push	 101300			; 00018bb4H
  005f2	50		 push	 eax
  005f3	c6 05 00 00 00
	00 01		 mov	 BYTE PTR ?m_bt@@3_NA, 1	; m_bt
  005fa	e8 00 00 00 00	 call	 ?setCharMind@@YAXPAUaction@@H@Z ; setCharMind

; 443  : 					lssproto_MA_send( sockfd, nowGx, nowGy, SPR_m_clip);

  005ff	68 b4 8b 01 00	 push	 101300			; 00018bb4H
  00604	e9 f8 01 00 00	 jmp	 $LN134@joy_read
$LN117@joy_read:

; 444  : 				}else if(!m_bt && (di_key[DIK_R] & 0x80)){

  00609	f6 05 13 00 00
	00 80		 test	 BYTE PTR ?di_key@@3PAEA+19, 128 ; 00000080H
  00610	74 1c		 je	 SHORT $LN118@joy_read

; 445  : 					m_bt = true; setCharMind( pc.ptAct, SPR_m_stone);				

  00612	68 b5 8b 01 00	 push	 101301			; 00018bb5H
  00617	50		 push	 eax
  00618	c6 05 00 00 00
	00 01		 mov	 BYTE PTR ?m_bt@@3_NA, 1	; m_bt
  0061f	e8 00 00 00 00	 call	 ?setCharMind@@YAXPAUaction@@H@Z ; setCharMind

; 446  : 					lssproto_MA_send( sockfd, nowGx, nowGy, SPR_m_stone);

  00624	68 b5 8b 01 00	 push	 101301			; 00018bb5H
  00629	e9 d3 01 00 00	 jmp	 $LN134@joy_read
$LN118@joy_read:

; 447  : 				}else if(!m_bt && (di_key[DIK_T] & 0x80)){

  0062e	f6 05 14 00 00
	00 80		 test	 BYTE PTR ?di_key@@3PAEA+20, 128 ; 00000080H
  00635	74 1c		 je	 SHORT $LN119@joy_read

; 448  : 					m_bt = true; setCharMind( pc.ptAct, SPR_m_burlap);				

  00637	68 b6 8b 01 00	 push	 101302			; 00018bb6H
  0063c	50		 push	 eax
  0063d	c6 05 00 00 00
	00 01		 mov	 BYTE PTR ?m_bt@@3_NA, 1	; m_bt
  00644	e8 00 00 00 00	 call	 ?setCharMind@@YAXPAUaction@@H@Z ; setCharMind

; 449  : 					lssproto_MA_send( sockfd, nowGx, nowGy, SPR_m_burlap);

  00649	68 b6 8b 01 00	 push	 101302			; 00018bb6H
  0064e	e9 ae 01 00 00	 jmp	 $LN134@joy_read
$LN119@joy_read:

; 450  : 				}else if(!m_bt && (di_key[DIK_Y] & 0x80)){

  00653	f6 05 15 00 00
	00 80		 test	 BYTE PTR ?di_key@@3PAEA+21, 128 ; 00000080H
  0065a	74 1c		 je	 SHORT $LN120@joy_read

; 451  : 					m_bt = true; setCharMind( pc.ptAct, SPR_screamer);				

  0065c	68 b3 8b 01 00	 push	 101299			; 00018bb3H
  00661	50		 push	 eax
  00662	c6 05 00 00 00
	00 01		 mov	 BYTE PTR ?m_bt@@3_NA, 1	; m_bt
  00669	e8 00 00 00 00	 call	 ?setCharMind@@YAXPAUaction@@H@Z ; setCharMind

; 452  : 					lssproto_MA_send( sockfd, nowGx, nowGy, SPR_screamer);

  0066e	68 b3 8b 01 00	 push	 101299			; 00018bb3H
  00673	e9 89 01 00 00	 jmp	 $LN134@joy_read
$LN120@joy_read:

; 453  : 				}else if(!m_bt && (di_key[DIK_U] & 0x80)){

  00678	f6 05 16 00 00
	00 80		 test	 BYTE PTR ?di_key@@3PAEA+22, 128 ; 00000080H
  0067f	74 1c		 je	 SHORT $LN121@joy_read

; 454  : 					m_bt = true; setCharMind( pc.ptAct, SPR_question_mark);				

  00681	68 a9 8b 01 00	 push	 101289			; 00018ba9H
  00686	50		 push	 eax
  00687	c6 05 00 00 00
	00 01		 mov	 BYTE PTR ?m_bt@@3_NA, 1	; m_bt
  0068e	e8 00 00 00 00	 call	 ?setCharMind@@YAXPAUaction@@H@Z ; setCharMind

; 455  : 					lssproto_MA_send( sockfd, nowGx, nowGy, SPR_question_mark);

  00693	68 a9 8b 01 00	 push	 101289			; 00018ba9H
  00698	e9 64 01 00 00	 jmp	 $LN134@joy_read
$LN121@joy_read:

; 456  : 				}else if(!m_bt && (di_key[DIK_I] & 0x80)){

  0069d	f6 05 17 00 00
	00 80		 test	 BYTE PTR ?di_key@@3PAEA+23, 128 ; 00000080H
  006a4	74 1c		 je	 SHORT $LN122@joy_read

; 457  : 					m_bt = true; setCharMind( pc.ptAct, SPR_cramp);				

  006a6	68 ac 8b 01 00	 push	 101292			; 00018bacH
  006ab	50		 push	 eax
  006ac	c6 05 00 00 00
	00 01		 mov	 BYTE PTR ?m_bt@@3_NA, 1	; m_bt
  006b3	e8 00 00 00 00	 call	 ?setCharMind@@YAXPAUaction@@H@Z ; setCharMind

; 458  : 					lssproto_MA_send( sockfd, nowGx, nowGy, SPR_cramp);

  006b8	68 ac 8b 01 00	 push	 101292			; 00018bacH
  006bd	e9 3f 01 00 00	 jmp	 $LN134@joy_read
$LN122@joy_read:

; 459  : 				}else if(!m_bt && (di_key[DIK_O] & 0x80)){

  006c2	f6 05 18 00 00
	00 80		 test	 BYTE PTR ?di_key@@3PAEA+24, 128 ; 00000080H
  006c9	74 1c		 je	 SHORT $LN123@joy_read

; 460  : 					m_bt = true; setCharMind( pc.ptAct, SPR_black_squall);				

  006cb	68 ad 8b 01 00	 push	 101293			; 00018badH
  006d0	50		 push	 eax
  006d1	c6 05 00 00 00
	00 01		 mov	 BYTE PTR ?m_bt@@3_NA, 1	; m_bt
  006d8	e8 00 00 00 00	 call	 ?setCharMind@@YAXPAUaction@@H@Z ; setCharMind

; 461  : 					lssproto_MA_send( sockfd, nowGx, nowGy, SPR_black_squall);

  006dd	68 ad 8b 01 00	 push	 101293			; 00018badH
  006e2	e9 1a 01 00 00	 jmp	 $LN134@joy_read
$LN123@joy_read:

; 462  : 				}else if(!m_bt && (di_key[DIK_P] & 0x80)){

  006e7	f6 05 19 00 00
	00 80		 test	 BYTE PTR ?di_key@@3PAEA+25, 128 ; 00000080H
  006ee	74 1c		 je	 SHORT $LN124@joy_read

; 463  : 					m_bt = true; setCharMind( pc.ptAct, SPR_perspiration);				

  006f0	68 b2 8b 01 00	 push	 101298			; 00018bb2H
  006f5	50		 push	 eax
  006f6	c6 05 00 00 00
	00 01		 mov	 BYTE PTR ?m_bt@@3_NA, 1	; m_bt
  006fd	e8 00 00 00 00	 call	 ?setCharMind@@YAXPAUaction@@H@Z ; setCharMind

; 464  : 					lssproto_MA_send( sockfd, nowGx, nowGy, SPR_perspiration);

  00702	68 b2 8b 01 00	 push	 101298			; 00018bb2H
  00707	e9 f5 00 00 00	 jmp	 $LN134@joy_read
$LN124@joy_read:

; 465  : 				}else if(!m_bt && (di_key[DIK_A] & 0x80)){

  0070c	f6 05 1e 00 00
	00 80		 test	 BYTE PTR ?di_key@@3PAEA+30, 128 ; 00000080H
  00713	74 1c		 je	 SHORT $LN125@joy_read

; 466  : 					m_bt = true; setCharMind( pc.ptAct, SPR_silence);				

  00715	68 ab 8b 01 00	 push	 101291			; 00018babH
  0071a	50		 push	 eax
  0071b	c6 05 00 00 00
	00 01		 mov	 BYTE PTR ?m_bt@@3_NA, 1	; m_bt
  00722	e8 00 00 00 00	 call	 ?setCharMind@@YAXPAUaction@@H@Z ; setCharMind

; 467  : 					lssproto_MA_send( sockfd, nowGx, nowGy, SPR_silence);

  00727	68 ab 8b 01 00	 push	 101291			; 00018babH
  0072c	e9 d0 00 00 00	 jmp	 $LN134@joy_read
$LN125@joy_read:

; 468  : 				}else if(!m_bt && (di_key[DIK_S] & 0x80)){

  00731	f6 05 1f 00 00
	00 80		 test	 BYTE PTR ?di_key@@3PAEA+31, 128 ; 00000080H
  00738	74 1c		 je	 SHORT $LN126@joy_read

; 469  : 					m_bt = true; setCharMind( pc.ptAct, SPR_asleep);				

  0073a	68 aa 8b 01 00	 push	 101290			; 00018baaH
  0073f	50		 push	 eax
  00740	c6 05 00 00 00
	00 01		 mov	 BYTE PTR ?m_bt@@3_NA, 1	; m_bt
  00747	e8 00 00 00 00	 call	 ?setCharMind@@YAXPAUaction@@H@Z ; setCharMind

; 470  : 					lssproto_MA_send( sockfd, nowGx, nowGy, SPR_asleep);

  0074c	68 aa 8b 01 00	 push	 101290			; 00018baaH
  00751	e9 ab 00 00 00	 jmp	 $LN134@joy_read
$LN126@joy_read:

; 471  : 				}else if(!m_bt && (di_key[DIK_D] & 0x80)){

  00756	f6 05 20 00 00
	00 80		 test	 BYTE PTR ?di_key@@3PAEA+32, 128 ; 00000080H
  0075d	74 1c		 je	 SHORT $LN127@joy_read

; 472  : 					m_bt = true; setCharMind( pc.ptAct, SPR_cafe);				

  0075f	68 ae 8b 01 00	 push	 101294			; 00018baeH
  00764	50		 push	 eax
  00765	c6 05 00 00 00
	00 01		 mov	 BYTE PTR ?m_bt@@3_NA, 1	; m_bt
  0076c	e8 00 00 00 00	 call	 ?setCharMind@@YAXPAUaction@@H@Z ; setCharMind

; 473  : 					lssproto_MA_send( sockfd, nowGx, nowGy, SPR_cafe);

  00771	68 ae 8b 01 00	 push	 101294			; 00018baeH
  00776	e9 86 00 00 00	 jmp	 $LN134@joy_read
$LN127@joy_read:

; 474  : 				}else if(!m_bt && (di_key[DIK_F] & 0x80)){

  0077b	f6 05 21 00 00
	00 80		 test	 BYTE PTR ?di_key@@3PAEA+33, 128 ; 00000080H
  00782	74 19		 je	 SHORT $LN128@joy_read

; 475  : 					m_bt = true; setCharMind( pc.ptAct, SPR_lightbulb);				

  00784	68 af 8b 01 00	 push	 101295			; 00018bafH
  00789	50		 push	 eax
  0078a	c6 05 00 00 00
	00 01		 mov	 BYTE PTR ?m_bt@@3_NA, 1	; m_bt
  00791	e8 00 00 00 00	 call	 ?setCharMind@@YAXPAUaction@@H@Z ; setCharMind

; 476  : 					lssproto_MA_send( sockfd, nowGx, nowGy, SPR_lightbulb);

  00796	68 af 8b 01 00	 push	 101295			; 00018bafH
  0079b	eb 64		 jmp	 SHORT $LN134@joy_read
$LN128@joy_read:

; 477  : 				}else if(!m_bt && (di_key[DIK_G] & 0x80)){

  0079d	f6 05 22 00 00
	00 80		 test	 BYTE PTR ?di_key@@3PAEA+34, 128 ; 00000080H
  007a4	74 19		 je	 SHORT $LN129@joy_read

; 478  : 					m_bt = true; setCharMind( pc.ptAct, SPR_accent);				

  007a6	68 a8 8b 01 00	 push	 101288			; 00018ba8H
  007ab	50		 push	 eax
  007ac	c6 05 00 00 00
	00 01		 mov	 BYTE PTR ?m_bt@@3_NA, 1	; m_bt
  007b3	e8 00 00 00 00	 call	 ?setCharMind@@YAXPAUaction@@H@Z ; setCharMind

; 479  : 					lssproto_MA_send( sockfd, nowGx, nowGy, SPR_accent);

  007b8	68 a8 8b 01 00	 push	 101288			; 00018ba8H
  007bd	eb 42		 jmp	 SHORT $LN134@joy_read
$LN129@joy_read:

; 480  : 				}else if(!m_bt && (di_key[DIK_H] & 0x80)){

  007bf	f6 05 23 00 00
	00 80		 test	 BYTE PTR ?di_key@@3PAEA+35, 128 ; 00000080H
  007c6	74 19		 je	 SHORT $LN130@joy_read

; 481  : 					m_bt = true; setCharMind( pc.ptAct, SPR_money);				

  007c8	68 b7 8b 01 00	 push	 101303			; 00018bb7H
  007cd	50		 push	 eax
  007ce	c6 05 00 00 00
	00 01		 mov	 BYTE PTR ?m_bt@@3_NA, 1	; m_bt
  007d5	e8 00 00 00 00	 call	 ?setCharMind@@YAXPAUaction@@H@Z ; setCharMind

; 482  : 					lssproto_MA_send( sockfd, nowGx, nowGy, SPR_money);

  007da	68 b7 8b 01 00	 push	 101303			; 00018bb7H
  007df	eb 20		 jmp	 SHORT $LN134@joy_read
$LN130@joy_read:

; 483  : 				}else if(!m_bt && (di_key[DIK_J] & 0x80)){

  007e1	f6 05 24 00 00
	00 80		 test	 BYTE PTR ?di_key@@3PAEA+36, 128 ; 00000080H
  007e8	74 31		 je	 SHORT $LN132@joy_read

; 484  : 					m_bt = true; setCharMind( pc.ptAct, SPR_pk);				

  007ea	68 b8 8b 01 00	 push	 101304			; 00018bb8H
  007ef	50		 push	 eax
  007f0	c6 05 00 00 00
	00 01		 mov	 BYTE PTR ?m_bt@@3_NA, 1	; m_bt
  007f7	e8 00 00 00 00	 call	 ?setCharMind@@YAXPAUaction@@H@Z ; setCharMind

; 485  : 					lssproto_MA_send( sockfd, nowGx, nowGy, SPR_pk);

  007fc	68 b8 8b 01 00	 push	 101304			; 00018bb8H
$LN134@joy_read:

; 486  : 				}
; 487  : 				if(!(di_key[0x10]&0x80) && !(di_key[0x11]&0x80) && !(di_key[0x12]&0x80) &&
; 488  : 				   !(di_key[0x13]&0x80) && !(di_key[0x14]&0x80) && !(di_key[0x15]&0x80) &&
; 489  : 				   !(di_key[0x16]&0x80) && !(di_key[0x17]&0x80) && !(di_key[0x18]&0x80) &&
; 490  : 				   !(di_key[0x19]&0x80) && !(di_key[0x1E]&0x80) && !(di_key[0x1F]&0x80) &&
; 491  : 				   !(di_key[0x20]&0x80) && !(di_key[0x21]&0x80) && !(di_key[0x22]&0x80) &&
; 492  : 				   !(di_key[0x23]&0x80) && !(di_key[0x24]&0x80)

  00801	ff 35 00 00 00
	00		 push	 DWORD PTR ?nowGy@@3HA	; nowGy
  00807	ff 35 00 00 00
	00		 push	 DWORD PTR ?nowGx@@3HA	; nowGx
  0080d	ff 35 00 00 00
	00		 push	 DWORD PTR ?sockfd@@3IA	; sockfd
  00813	e8 00 00 00 00	 call	 ?lssproto_MA_send@@YAXHHHH@Z ; lssproto_MA_send
  00818	83 c4 18	 add	 esp, 24			; 00000018H
$LN132@joy_read:
  0081b	f6 05 10 00 00
	00 80		 test	 BYTE PTR ?di_key@@3PAEA+16, 128 ; 00000080H
  00822	0f 85 a0 00 00
	00		 jne	 $LN112@joy_read
  00828	f6 05 11 00 00
	00 80		 test	 BYTE PTR ?di_key@@3PAEA+17, 128 ; 00000080H
  0082f	0f 85 93 00 00
	00		 jne	 $LN112@joy_read
  00835	f6 05 12 00 00
	00 80		 test	 BYTE PTR ?di_key@@3PAEA+18, 128 ; 00000080H
  0083c	0f 85 86 00 00
	00		 jne	 $LN112@joy_read
  00842	f6 05 13 00 00
	00 80		 test	 BYTE PTR ?di_key@@3PAEA+19, 128 ; 00000080H
  00849	75 7d		 jne	 SHORT $LN112@joy_read
  0084b	f6 05 14 00 00
	00 80		 test	 BYTE PTR ?di_key@@3PAEA+20, 128 ; 00000080H
  00852	75 74		 jne	 SHORT $LN112@joy_read
  00854	f6 05 15 00 00
	00 80		 test	 BYTE PTR ?di_key@@3PAEA+21, 128 ; 00000080H
  0085b	75 6b		 jne	 SHORT $LN112@joy_read
  0085d	f6 05 16 00 00
	00 80		 test	 BYTE PTR ?di_key@@3PAEA+22, 128 ; 00000080H
  00864	75 62		 jne	 SHORT $LN112@joy_read
  00866	f6 05 17 00 00
	00 80		 test	 BYTE PTR ?di_key@@3PAEA+23, 128 ; 00000080H
  0086d	75 59		 jne	 SHORT $LN112@joy_read
  0086f	f6 05 18 00 00
	00 80		 test	 BYTE PTR ?di_key@@3PAEA+24, 128 ; 00000080H
  00876	75 50		 jne	 SHORT $LN112@joy_read
  00878	f6 05 19 00 00
	00 80		 test	 BYTE PTR ?di_key@@3PAEA+25, 128 ; 00000080H
  0087f	75 47		 jne	 SHORT $LN112@joy_read
  00881	f6 05 1e 00 00
	00 80		 test	 BYTE PTR ?di_key@@3PAEA+30, 128 ; 00000080H
  00888	75 3e		 jne	 SHORT $LN112@joy_read
  0088a	f6 05 1f 00 00
	00 80		 test	 BYTE PTR ?di_key@@3PAEA+31, 128 ; 00000080H
  00891	75 35		 jne	 SHORT $LN112@joy_read
  00893	f6 05 20 00 00
	00 80		 test	 BYTE PTR ?di_key@@3PAEA+32, 128 ; 00000080H
  0089a	75 2c		 jne	 SHORT $LN112@joy_read
  0089c	f6 05 21 00 00
	00 80		 test	 BYTE PTR ?di_key@@3PAEA+33, 128 ; 00000080H
  008a3	75 23		 jne	 SHORT $LN112@joy_read
  008a5	f6 05 22 00 00
	00 80		 test	 BYTE PTR ?di_key@@3PAEA+34, 128 ; 00000080H
  008ac	75 1a		 jne	 SHORT $LN112@joy_read
  008ae	f6 05 23 00 00
	00 80		 test	 BYTE PTR ?di_key@@3PAEA+35, 128 ; 00000080H
  008b5	75 11		 jne	 SHORT $LN112@joy_read
  008b7	a0 24 00 00 00	 mov	 al, BYTE PTR ?di_key@@3PAEA+36
  008bc	24 80		 and	 al, 128			; 00000080H
  008be	f6 d8		 neg	 al
  008c0	1a c0		 sbb	 al, al
  008c2	20 05 00 00 00
	00		 and	 BYTE PTR ?m_bt@@3_NA, al ; m_bt
$LN112@joy_read:

; 493  : 				  )
; 494  : 					m_bt = false;
; 495  : 			}
; 496  : 		}		
; 497  : #endif
; 498  : 
; 499  : #if 0		
; 500  : 		if(di_key[DIK_NUMPAD4] & 0x80)
; 501  : 			d0|=JOY_LEFT;
; 502  : 		if(di_key[DIK_NUMPAD8] & 0x80)
; 503  : 			d0|=JOY_UP;
; 504  : 		if(di_key[DIK_NUMPAD6] & 0x80)
; 505  : 			d0|=JOY_RIGHT;
; 506  : 		if(di_key[DIK_NUMPAD2] & 0x80)
; 507  : 			d0|=JOY_DOWN;
; 508  : 		if(di_key[DIK_A] & 0x80)
; 509  : 			d0|=JOY_A;
; 510  : 		if(di_key[DIK_S] & 0x80)
; 511  : 			d0|=JOY_B;
; 512  : 		if(di_key[DIK_T] & 0x80)
; 513  : 			d0|=JOY_A;
; 514  : 		if(di_key[DIK_Y] & 0x80)
; 515  : 			d0|=JOY_B;
; 516  : #endif			
; 517  : 		
; 518  : 		
; 519  : 		joy_con[1] = d0;
; 520  : 
; 521  : 		d1 = ~(joy_buf[0]);				//??î”ª???

  008c8	8b 0d 00 00 00
	00		 mov	 ecx, DWORD PTR ?joy_buf@@3PAKA

; 522  : 		joy_trg[0] = d1 & joy_con[0];

  008ce	8b 35 00 00 00
	00		 mov	 esi, DWORD PTR ?joy_con@@3PAKA
  008d4	f7 d1		 not	 ecx

; 523  : 
; 524  : 		d1 = ~(joy_buf[1]);				//??î”ª???

  008d6	8b 15 04 00 00
	00		 mov	 edx, DWORD PTR ?joy_buf@@3PAKA+4
  008dc	8b c1		 mov	 eax, ecx
  008de	23 c6		 and	 eax, esi
  008e0	89 3d 04 00 00
	00		 mov	 DWORD PTR ?joy_con@@3PAKA+4, edi
  008e6	a3 00 00 00 00	 mov	 DWORD PTR ?joy_trg@@3PAKA, eax
  008eb	f7 d2		 not	 edx
  008ed	8b c7		 mov	 eax, edi

; 525  : 		joy_trg[1] = d1 & joy_con[1];
; 526  : 
; 527  : 		c = ~(joy_con[0]);				//??î”ªî§îŒ–?
; 528  : 		a = ~(joy_buf[0]);
; 529  : 		a ^= c;
; 530  : 		a &= c;
; 531  : 		joy_pul[0] = a;
; 532  : 
; 533  : 		c = ~(joy_con[1]);				//??î”ªî§îŒ–?
; 534  : 		a = ~(joy_buf[1]);
; 535  : 		a ^= c;
; 536  : 		a &= c;
; 537  : 		joy_pul[1] = a;
; 538  : 
; 539  : 		joy_buf[0] = joy_con[0];

  008ef	89 35 00 00 00
	00		 mov	 DWORD PTR ?joy_buf@@3PAKA, esi
  008f5	23 c2		 and	 eax, edx
  008f7	89 3d 04 00 00
	00		 mov	 DWORD PTR ?joy_buf@@3PAKA+4, edi
  008fd	a3 04 00 00 00	 mov	 DWORD PTR ?joy_trg@@3PAKA+4, eax
  00902	8b c6		 mov	 eax, esi
  00904	f7 d0		 not	 eax
  00906	33 c8		 xor	 ecx, eax
  00908	23 c8		 and	 ecx, eax
  0090a	8b c7		 mov	 eax, edi
  0090c	f7 d0		 not	 eax
  0090e	89 0d 00 00 00
	00		 mov	 DWORD PTR ?joy_pul@@3PAKA, ecx
  00914	33 d0		 xor	 edx, eax
  00916	23 d0		 and	 edx, eax

; 540  : 		joy_buf[1] = joy_con[1];
; 541  : 
; 542  : 		joy_auto[0] = joy_auto_repeat(0);

  00918	6a 00		 push	 0
  0091a	89 15 04 00 00
	00		 mov	 DWORD PTR ?joy_pul@@3PAKA+4, edx
  00920	e8 00 00 00 00	 call	 ?joy_auto_repeat@@YAKE@Z ; joy_auto_repeat

; 543  : 		joy_auto[1] = joy_auto_repeat(1);

  00925	6a 01		 push	 1
  00927	a3 00 00 00 00	 mov	 DWORD PTR ?joy_auto@@3PAKA, eax
  0092c	e8 00 00 00 00	 call	 ?joy_auto_repeat@@YAKE@Z ; joy_auto_repeat
  00931	83 c4 08	 add	 esp, 8
  00934	a3 04 00 00 00	 mov	 DWORD PTR ?joy_auto@@3PAKA+4, eax
  00939	5f		 pop	 edi
$LN133@joy_read:
  0093a	5e		 pop	 esi
$LN113@joy_read:

; 547  : 	}
; 548  : }

  0093b	8b 4d fc	 mov	 ecx, DWORD PTR __$ArrayPad$[ebp]
  0093e	33 cd		 xor	 ecx, ebp
  00940	e8 00 00 00 00	 call	 @__security_check_cookie@4
  00945	8b e5		 mov	 esp, ebp
  00947	5d		 pop	 ebp
  00948	c3		 ret	 0
?joy_read@@YAXXZ ENDP					; joy_read
_TEXT	ENDS
; Function compile flags: /Ogtp
; File C:\Users\gg862\OneDrive\¹ÙÅÁ È­¸é\¸¾Äí¿Ï·á\Client Source Code1.31ÀÏº»\oft\sys2.cpp
;	COMDAT ?GetJoystickCallback@@YGHPAUDIDEVICEINSTANCEA@@PAX@Z
_TEXT	SEGMENT
_pDev$ = -4						; size = 4
_lpddi$ = 8						; size = 4
_pvRef$ = 12						; size = 4
?GetJoystickCallback@@YGHPAUDIDEVICEINSTANCEA@@PAX@Z PROC ; GetJoystickCallback, COMDAT

; 238  : {

  00000	55		 push	 ebp
  00001	8b ec		 mov	 ebp, esp
  00003	51		 push	 ecx

; 239  : 	HRESULT ret;
; 240  : 
; 241  : #ifndef DI_2
; 242  : 	//??????????????????????î’•
; 243  : 	ret = pDInput->CreateDevice(lpddi->guidInstance,&pDInputDevice2,NULL);
; 244  : 	if(ret != DI_OK){
; 245  : 		return DIENUM_CONTINUE;
; 246  : 	}
; 247  : #else
; 248  : 	LPDIRECTINPUTDEVICE pDev;
; 249  : 	//??????????????????????î’•
; 250  : 	ret = pDInput->CreateDevice(lpddi->guidInstance,&pDev,NULL);

  00004	8b 0d 00 00 00
	00		 mov	 ecx, DWORD PTR ?pDInput@@3PAUIDirectInputA@@A ; pDInput
  0000a	8d 45 fc	 lea	 eax, DWORD PTR _pDev$[ebp]
  0000d	6a 00		 push	 0
  0000f	50		 push	 eax
  00010	8b 45 08	 mov	 eax, DWORD PTR _lpddi$[ebp]
  00013	8b 11		 mov	 edx, DWORD PTR [ecx]
  00015	83 c0 04	 add	 eax, 4
  00018	50		 push	 eax
  00019	51		 push	 ecx
  0001a	ff 52 0c	 call	 DWORD PTR [edx+12]

; 251  : 	if(ret != DI_OK){

  0001d	85 c0		 test	 eax, eax
  0001f	74 0b		 je	 SHORT $LN2@GetJoystic

; 252  : 		return DIENUM_CONTINUE;

  00021	b8 01 00 00 00	 mov	 eax, 1

; 257  : }

  00026	8b e5		 mov	 esp, ebp
  00028	5d		 pop	 ebp
  00029	c2 08 00	 ret	 8
$LN2@GetJoystic:

; 253  : 	}
; 254  : 	pDev->QueryInterface(IID_IDirectInputDevice2,(LPVOID *)&pDInputDevice2);

  0002c	8b 45 fc	 mov	 eax, DWORD PTR _pDev$[ebp]
  0002f	68 00 00 00 00	 push	 OFFSET ?pDInputDevice2@@3PAUIDirectInputDevice2A@@A ; pDInputDevice2
  00034	68 00 00 00 00	 push	 OFFSET _IID_IDirectInputDevice2A
  00039	50		 push	 eax
  0003a	8b 08		 mov	 ecx, DWORD PTR [eax]
  0003c	ff 11		 call	 DWORD PTR [ecx]

; 255  : #endif
; 256  : 	return DIENUM_STOP;

  0003e	33 c0		 xor	 eax, eax

; 257  : }

  00040	8b e5		 mov	 esp, ebp
  00042	5d		 pop	 ebp
  00043	c2 08 00	 ret	 8
?GetJoystickCallback@@YGHPAUDIDEVICEINSTANCEA@@PAX@Z ENDP ; GetJoystickCallback
_TEXT	ENDS
; Function compile flags: /Ogtp
; File C:\Users\gg862\OneDrive\¹ÙÅÁ È­¸é\¸¾Äí¿Ï·á\Client Source Code1.31ÀÏº»\oft\sys2.cpp
;	COMDAT ?joy_auto_repeat@@YAKE@Z
_TEXT	SEGMENT
_d1$ = 8						; size = 1
?joy_auto_repeat@@YAKE@Z PROC				; joy_auto_repeat, COMDAT

; 41   : {

  00000	55		 push	 ebp
  00001	8b ec		 mov	 ebp, esp

; 42   : 	Uint32 d0=0;
; 43   : 	if( (joy_con[d1] & JOY_UP+JOY_DOWN+JOY_RIGHT+JOY_LEFT+JOY_A+JOY_B+JOY_F5+JOY_F6+JOY_F7+JOY_F8)==0  ){	/*???????*/

  00003	0f b6 4d 08	 movzx	 ecx, BYTE PTR _d1$[ebp]
  00007	33 c0		 xor	 eax, eax
  00009	8b 14 8d 00 00
	00 00		 mov	 edx, DWORD PTR ?joy_con@@3PAKA[ecx*4]
  00010	f7 c2 f0 f5 00
	00		 test	 edx, 62960		; 0000f5f0H
  00016	75 14		 jne	 SHORT $LN2@joy_auto_r

; 44   : 		joy_timer[d1]=0;		/*?????????????*/

  00018	03 c9		 add	 ecx, ecx
  0001a	83 f9 04	 cmp	 ecx, 4
  0001d	0f 83 db 01 00
	00		 jae	 $LN44@joy_auto_r
  00023	66 89 81 00 00
	00 00		 mov	 WORD PTR ?joy_timer@@3PAGA[ecx], ax

; 163  : }

  0002a	5d		 pop	 ebp
  0002b	c3		 ret	 0
$LN2@joy_auto_r:
  0002c	53		 push	 ebx

; 45   : 		return 0;
; 46   : 	}
; 47   : 	if(joy_trg[d1] & JOY_UP){				/*î¯?*/

  0002d	8b 1c 8d 00 00
	00 00		 mov	 ebx, DWORD PTR ?joy_trg@@3PAKA[ecx*4]
  00034	56		 push	 esi
  00035	be 17 00 00 00	 mov	 esi, 23			; 00000017H
  0003a	f7 c3 00 10 00
	00		 test	 ebx, 4096		; 00001000H
  00040	75 23		 jne	 SHORT $LN47@joy_auto_r

; 48   : 		d0|=JOY_UP;					/*????î¯???*/
; 49   : 	} else {
; 50   : 		if(joy_con[d1] & JOY_UP){			/*î¯?*/

  00042	f7 c2 00 10 00
	00		 test	 edx, 4096		; 00001000H
  00048	74 20		 je	 SHORT $LN6@joy_auto_r

; 51   : 			joy_timer[d1]++;	/*??*/

  0004a	66 ff 04 4d 00
	00 00 00	 inc	 WORD PTR ?joy_timer@@3PAGA[ecx*2]

; 52   : 			if(joy_timer[d1]==REPEAT_TIME){

  00052	66 83 3c 4d 00
	00 00 00 1e	 cmp	 WORD PTR ?joy_timer@@3PAGA[ecx*2], 30 ; 0000001eH
  0005b	75 0d		 jne	 SHORT $LN6@joy_auto_r

; 53   : 				joy_timer[d1]-=REPEAT_SPEED;

  0005d	66 89 34 4d 00
	00 00 00	 mov	 WORD PTR ?joy_timer@@3PAGA[ecx*2], si
$LN47@joy_auto_r:

; 54   : 				d0|=JOY_UP;
; 55   : 			}
; 56   : 		}
; 57   : 	}
; 58   : 	if(joy_trg[d1] & JOY_DOWN){				/*??*/

  00065	b8 00 10 00 00	 mov	 eax, 4096		; 00001000H
$LN6@joy_auto_r:
  0006a	f7 c3 00 20 00
	00		 test	 ebx, 8192		; 00002000H
  00070	75 23		 jne	 SHORT $LN48@joy_auto_r

; 59   : 		d0|=JOY_DOWN;					/*????????*/
; 60   : 	} else {
; 61   : 		if(joy_con[d1] & JOY_DOWN){			/*??*/

  00072	f7 c2 00 20 00
	00		 test	 edx, 8192		; 00002000H
  00078	74 20		 je	 SHORT $LN10@joy_auto_r

; 62   : 			joy_timer[d1]++;	/*??*/

  0007a	66 ff 04 4d 00
	00 00 00	 inc	 WORD PTR ?joy_timer@@3PAGA[ecx*2]

; 63   : 			if(joy_timer[d1]==REPEAT_TIME){

  00082	66 83 3c 4d 00
	00 00 00 1e	 cmp	 WORD PTR ?joy_timer@@3PAGA[ecx*2], 30 ; 0000001eH
  0008b	75 0d		 jne	 SHORT $LN10@joy_auto_r

; 64   : 				joy_timer[d1]-=REPEAT_SPEED;

  0008d	66 89 34 4d 00
	00 00 00	 mov	 WORD PTR ?joy_timer@@3PAGA[ecx*2], si
$LN48@joy_auto_r:

; 65   : 				d0|=JOY_DOWN;
; 66   : 			}
; 67   : 		}
; 68   : 	}
; 69   : 	if(joy_trg[d1] & JOY_RIGHT){				/*??*/

  00095	0d 00 20 00 00	 or	 eax, 8192		; 00002000H
$LN10@joy_auto_r:
  0009a	f7 c3 00 80 00
	00		 test	 ebx, 32768		; 00008000H
  000a0	75 23		 jne	 SHORT $LN49@joy_auto_r

; 70   : 		d0|=JOY_RIGHT;					/*????????*/
; 71   : 	} else {
; 72   : 		if(joy_con[d1] & JOY_RIGHT){			/*??*/

  000a2	f7 c2 00 80 00
	00		 test	 edx, 32768		; 00008000H
  000a8	74 20		 je	 SHORT $LN14@joy_auto_r

; 73   : 			joy_timer[d1]++;	/*??*/

  000aa	66 ff 04 4d 00
	00 00 00	 inc	 WORD PTR ?joy_timer@@3PAGA[ecx*2]

; 74   : 			if(joy_timer[d1]==REPEAT_TIME){

  000b2	66 83 3c 4d 00
	00 00 00 1e	 cmp	 WORD PTR ?joy_timer@@3PAGA[ecx*2], 30 ; 0000001eH
  000bb	75 0d		 jne	 SHORT $LN14@joy_auto_r

; 75   : 				joy_timer[d1]-=REPEAT_SPEED;

  000bd	66 89 34 4d 00
	00 00 00	 mov	 WORD PTR ?joy_timer@@3PAGA[ecx*2], si
$LN49@joy_auto_r:

; 76   : 				d0|=JOY_RIGHT;
; 77   : 			}
; 78   : 		}
; 79   : 	}
; 80   : 	if(joy_trg[d1] & JOY_LEFT){				/*??*/

  000c5	0d 00 80 00 00	 or	 eax, 32768		; 00008000H
$LN14@joy_auto_r:
  000ca	f7 c3 00 40 00
	00		 test	 ebx, 16384		; 00004000H
  000d0	75 23		 jne	 SHORT $LN50@joy_auto_r

; 81   : 		d0|=JOY_LEFT;					/*????????*/
; 82   : 	} else {
; 83   : 		if(joy_con[d1] & JOY_LEFT){			/*??*/

  000d2	f7 c2 00 40 00
	00		 test	 edx, 16384		; 00004000H
  000d8	74 20		 je	 SHORT $LN18@joy_auto_r

; 84   : 			joy_timer[d1]++;	/*??*/

  000da	66 ff 04 4d 00
	00 00 00	 inc	 WORD PTR ?joy_timer@@3PAGA[ecx*2]

; 85   : 			if(joy_timer[d1]==REPEAT_TIME){

  000e2	66 83 3c 4d 00
	00 00 00 1e	 cmp	 WORD PTR ?joy_timer@@3PAGA[ecx*2], 30 ; 0000001eH
  000eb	75 0d		 jne	 SHORT $LN18@joy_auto_r

; 86   : 				joy_timer[d1]-=REPEAT_SPEED;

  000ed	66 89 34 4d 00
	00 00 00	 mov	 WORD PTR ?joy_timer@@3PAGA[ecx*2], si
$LN50@joy_auto_r:

; 87   : 				d0|=JOY_LEFT;
; 88   : 			}
; 89   : 		}
; 90   : 	}
; 91   : 	
; 92   : #if 1
; 93   : 	if(joy_trg[d1] & JOY_A){				/*A?*/

  000f5	0d 00 40 00 00	 or	 eax, 16384		; 00004000H
$LN18@joy_auto_r:
  000fa	f7 c3 00 04 00
	00		 test	 ebx, 1024		; 00000400H
  00100	75 23		 jne	 SHORT $LN51@joy_auto_r

; 94   : 		d0|=JOY_A;					/*????????*/
; 95   : 	} else {
; 96   : 		if(joy_con[d1] & JOY_A){			/*??*/

  00102	f7 c2 00 04 00
	00		 test	 edx, 1024		; 00000400H
  00108	74 20		 je	 SHORT $LN22@joy_auto_r

; 97   : 			joy_timer[d1]++;	/*??*/

  0010a	66 ff 04 4d 00
	00 00 00	 inc	 WORD PTR ?joy_timer@@3PAGA[ecx*2]

; 98   : 			if(joy_timer[d1]==REPEAT_TIME){

  00112	66 83 3c 4d 00
	00 00 00 1e	 cmp	 WORD PTR ?joy_timer@@3PAGA[ecx*2], 30 ; 0000001eH
  0011b	75 0d		 jne	 SHORT $LN22@joy_auto_r

; 99   : 				joy_timer[d1]-=REPEAT_SPEED;

  0011d	66 89 34 4d 00
	00 00 00	 mov	 WORD PTR ?joy_timer@@3PAGA[ecx*2], si
$LN51@joy_auto_r:

; 100  : 				d0|=JOY_A;
; 101  : 			}
; 102  : 		}
; 103  : 	}
; 104  : 	
; 105  : 	if(joy_trg[d1] & JOY_B){				/*B?*/

  00125	0d 00 04 00 00	 or	 eax, 1024		; 00000400H
$LN22@joy_auto_r:
  0012a	f7 c3 00 01 00
	00		 test	 ebx, 256		; 00000100H
  00130	75 23		 jne	 SHORT $LN52@joy_auto_r

; 106  : 		d0|=JOY_B;					/*????????*/
; 107  : 	} else {
; 108  : 		if(joy_con[d1] & JOY_B){			/*??*/

  00132	f7 c2 00 01 00
	00		 test	 edx, 256		; 00000100H
  00138	74 20		 je	 SHORT $LN26@joy_auto_r

; 109  : 			joy_timer[d1]++;	/*??*/

  0013a	66 ff 04 4d 00
	00 00 00	 inc	 WORD PTR ?joy_timer@@3PAGA[ecx*2]

; 110  : 			if(joy_timer[d1]==REPEAT_TIME){

  00142	66 83 3c 4d 00
	00 00 00 1e	 cmp	 WORD PTR ?joy_timer@@3PAGA[ecx*2], 30 ; 0000001eH
  0014b	75 0d		 jne	 SHORT $LN26@joy_auto_r

; 111  : 				joy_timer[d1]-=REPEAT_SPEED;

  0014d	66 89 34 4d 00
	00 00 00	 mov	 WORD PTR ?joy_timer@@3PAGA[ecx*2], si
$LN52@joy_auto_r:

; 112  : 				d0|=JOY_B;
; 113  : 			}
; 114  : 		}
; 115  : 	}
; 116  : #endif	
; 117  : 	
; 118  : 	if(joy_trg[d1] & JOY_F5){				/*F5?*/

  00155	0d 00 01 00 00	 or	 eax, 256		; 00000100H
$LN26@joy_auto_r:
  0015a	f6 c3 10	 test	 bl, 16			; 00000010H
  0015d	75 20		 jne	 SHORT $LN53@joy_auto_r

; 119  : 		d0|=JOY_F5;					/*????????*/
; 120  : 	} else {
; 121  : 		if(joy_con[d1] & JOY_F5){			/*??*/

  0015f	f6 c2 10	 test	 dl, 16			; 00000010H
  00162	74 1e		 je	 SHORT $LN30@joy_auto_r

; 122  : 			joy_timer[d1]++;	/*??*/

  00164	66 ff 04 4d 00
	00 00 00	 inc	 WORD PTR ?joy_timer@@3PAGA[ecx*2]

; 123  : 			if(joy_timer[d1]==REPEAT_TIME){

  0016c	66 83 3c 4d 00
	00 00 00 1e	 cmp	 WORD PTR ?joy_timer@@3PAGA[ecx*2], 30 ; 0000001eH
  00175	75 0b		 jne	 SHORT $LN30@joy_auto_r

; 124  : 				joy_timer[d1]-=REPEAT_SPEED;

  00177	66 89 34 4d 00
	00 00 00	 mov	 WORD PTR ?joy_timer@@3PAGA[ecx*2], si
$LN53@joy_auto_r:

; 125  : 				d0|=JOY_F5;
; 126  : 			}
; 127  : 		}
; 128  : 	}
; 129  : 	if(joy_trg[d1] & JOY_F6){				/*F6?*/

  0017f	83 c8 10	 or	 eax, 16			; 00000010H
$LN30@joy_auto_r:
  00182	f6 c3 20	 test	 bl, 32			; 00000020H
  00185	75 20		 jne	 SHORT $LN54@joy_auto_r

; 130  : 		d0|=JOY_F6;					/*????????*/
; 131  : 	} else {
; 132  : 		if(joy_con[d1] & JOY_F6){			/*??*/

  00187	f6 c2 20	 test	 dl, 32			; 00000020H
  0018a	74 1e		 je	 SHORT $LN34@joy_auto_r

; 133  : 			joy_timer[d1]++;	/*??*/

  0018c	66 ff 04 4d 00
	00 00 00	 inc	 WORD PTR ?joy_timer@@3PAGA[ecx*2]

; 134  : 			if(joy_timer[d1]==REPEAT_TIME){

  00194	66 83 3c 4d 00
	00 00 00 1e	 cmp	 WORD PTR ?joy_timer@@3PAGA[ecx*2], 30 ; 0000001eH
  0019d	75 0b		 jne	 SHORT $LN34@joy_auto_r

; 135  : 				joy_timer[d1]-=REPEAT_SPEED;

  0019f	66 89 34 4d 00
	00 00 00	 mov	 WORD PTR ?joy_timer@@3PAGA[ecx*2], si
$LN54@joy_auto_r:

; 136  : 				d0|=JOY_F6;
; 137  : 			}
; 138  : 		}
; 139  : 	}
; 140  : 	if(joy_trg[d1] & JOY_F7){				/*F7?*/

  001a7	83 c8 20	 or	 eax, 32			; 00000020H
$LN34@joy_auto_r:
  001aa	f6 c3 40	 test	 bl, 64			; 00000040H
  001ad	75 20		 jne	 SHORT $LN55@joy_auto_r

; 141  : 		d0|=JOY_F7;					/*????????*/
; 142  : 	} else {
; 143  : 		if(joy_con[d1] & JOY_F7){			/*??*/

  001af	f6 c2 40	 test	 dl, 64			; 00000040H
  001b2	74 1e		 je	 SHORT $LN38@joy_auto_r

; 144  : 			joy_timer[d1]++;	/*??*/

  001b4	66 ff 04 4d 00
	00 00 00	 inc	 WORD PTR ?joy_timer@@3PAGA[ecx*2]

; 145  : 			if(joy_timer[d1]==REPEAT_TIME){

  001bc	66 83 3c 4d 00
	00 00 00 1e	 cmp	 WORD PTR ?joy_timer@@3PAGA[ecx*2], 30 ; 0000001eH
  001c5	75 0b		 jne	 SHORT $LN38@joy_auto_r

; 146  : 				joy_timer[d1]-=REPEAT_SPEED;

  001c7	66 89 34 4d 00
	00 00 00	 mov	 WORD PTR ?joy_timer@@3PAGA[ecx*2], si
$LN55@joy_auto_r:

; 147  : 				d0|=JOY_F7;
; 148  : 			}
; 149  : 		}
; 150  : 	}
; 151  : 	if(joy_trg[d1] & JOY_F8){				/*F8?*/

  001cf	83 c8 40	 or	 eax, 64			; 00000040H
$LN38@joy_auto_r:
  001d2	84 db		 test	 bl, bl
  001d4	78 1f		 js	 SHORT $LN56@joy_auto_r

; 152  : 		d0|=JOY_F8;					/*????????*/
; 153  : 	} else {
; 154  : 		if(joy_con[d1] & JOY_F8){			/*??*/

  001d6	84 d2		 test	 dl, dl
  001d8	79 20		 jns	 SHORT $LN42@joy_auto_r

; 155  : 			joy_timer[d1]++;	/*??*/

  001da	66 ff 04 4d 00
	00 00 00	 inc	 WORD PTR ?joy_timer@@3PAGA[ecx*2]

; 156  : 			if(joy_timer[d1]==REPEAT_TIME){

  001e2	66 83 3c 4d 00
	00 00 00 1e	 cmp	 WORD PTR ?joy_timer@@3PAGA[ecx*2], 30 ; 0000001eH
  001eb	75 0d		 jne	 SHORT $LN42@joy_auto_r

; 157  : 				joy_timer[d1]-=REPEAT_SPEED;

  001ed	66 89 34 4d 00
	00 00 00	 mov	 WORD PTR ?joy_timer@@3PAGA[ecx*2], si
$LN56@joy_auto_r:

; 158  : 				d0|=JOY_F8;
; 159  : 			}
; 160  : 		}
; 161  : 	}
; 162  : 	return d0;

  001f5	0d 80 00 00 00	 or	 eax, 128		; 00000080H
$LN42@joy_auto_r:
  001fa	5e		 pop	 esi
  001fb	5b		 pop	 ebx

; 163  : }

  001fc	5d		 pop	 ebp
  001fd	c3		 ret	 0
$LN44@joy_auto_r:

; 44   : 		joy_timer[d1]=0;		/*?????????????*/

  001fe	e8 00 00 00 00	 call	 ___report_rangecheckfailure
$LN46@joy_auto_r:
  00203	cc		 int	 3
?joy_auto_repeat@@YAKE@Z ENDP				; joy_auto_repeat
_TEXT	ENDS
END
