; Listing generated by Microsoft (R) Optimizing Compiler Version 19.28.29336.0 

	TITLE	C:\Users\gg862\OneDrive\¹ÙÅÁ È­¸é\¸¾Äí¿Ï·á\Client Source Code1.31ÀÏº»\system\t_music.cpp
	.686P
	.XMM
	include listing.inc
	.model	flat

INCLUDELIB LIBCMT
INCLUDELIB OLDNAMES

PUBLIC	?bgm_tbl@@3PAUT_MUSIC_BGM@@A			; bgm_tbl
PUBLIC	?tone_tbl@@3PAUTONE_EQU@@A			; tone_tbl
PUBLIC	?cdda_no@@3HA					; cdda_no
PUBLIC	?stereo_flg@@3HA				; stereo_flg
PUBLIC	?t_music_se_volume@@3HA				; t_music_se_volume
PUBLIC	?t_music_bgm_volume@@3HA			; t_music_bgm_volume
PUBLIC	?t_music_bgm_no@@3HA				; t_music_bgm_no
PUBLIC	?t_music_se_no@@3HA				; t_music_se_no
PUBLIC	?t_music_bgm_pitch@@3PADA			; t_music_bgm_pitch
PUBLIC	?draw_map_bgm_flg@@3HA				; draw_map_bgm_flg
PUBLIC	?map_bgm_no@@3HA				; map_bgm_no
PUBLIC	??ëå??@@3HA					; ?ëå??
PUBLIC	?env_tbl@@3PAUENVIRONMENT_EQU@@A		; env_tbl
PUBLIC	?thread_flg@@3HA				; thread_flg
PUBLIC	?dsound_flg@@3HA				; dsound_flg
PUBLIC	?pDSound@@3PAUIDirectSound@@A			; pDSound
PUBLIC	?pDSPrimary@@3PAUIDirectSoundBuffer@@A		; pDSPrimary
PUBLIC	?primaryVolume@@3JA				; primaryVolume
PUBLIC	?primaryPan@@3JA				; primaryPan
PUBLIC	?primaryFrequency@@3JA				; primaryFrequency
PUBLIC	?pDSData_tone@@3PAPAUIDirectSoundBuffer@@A	; pDSData_tone
PUBLIC	?pDSData_stream@@3PAUIDirectSoundBuffer@@A	; pDSData_stream
PUBLIC	?pDSData@@3PAPAUIDirectSoundBuffer@@A		; pDSData
PUBLIC	?dataPlay@@3PAHA				; dataPlay
PUBLIC	?dataVolume@@3PAHA				; dataVolume
PUBLIC	?dataPan@@3PAHA					; dataPan
PUBLIC	?dataFrequency@@3PAJA				; dataFrequency
PUBLIC	?voice@@3PAUVOICE_EQU@@A			; voice
PUBLIC	?tone_max_buf@@3HA				; tone_max_buf
PUBLIC	?t_music_playing_flg@@3HA			; t_music_playing_flg
PUBLIC	?t_music_fade_flg@@3HA				; t_music_fade_flg
PUBLIC	?t_music_fade_vol@@3HA				; t_music_fade_vol
PUBLIC	??_C@_08LOOFPHBM@?$DP?d?P?$DP?$DP?c?w?$DP@	; `string'
PUBLIC	??_C@_0N@INFHKGBA@?$KD?S?$KD?t?$KD?e?$KD?p?$DP?$DP?$DP?$DP@ ; `string'
PUBLIC	??_C@_09JCKPJEPE@?k?e?$DP?r?$KG?o?R?$DP?$DP@	; `string'
PUBLIC	??_C@_08IOICGCMD@?$KD?L?r?$KG?V?$LF?$DP?$DP@	; `string'
PUBLIC	??_C@_08CBNMEIFN@?$KD?T?r?$KG?V?$LF?$DP?$DP@	; `string'
PUBLIC	??_C@_08GDPJEPCA@?$KD?V?r?$KG?V?$LF?$DP?$DP@	; `string'
PUBLIC	??_C@_0L@POFHDIIK@?$KD?$MA?$KD?V?r?$KG?V?$LF?$DP?$DP@ ; `string'
PUBLIC	??_C@_0L@DIDIDBAN@?$KD?$MA?$KD?P?r?$KG?V?$LF?$DP?$DP@ ; `string'
PUBLIC	??_C@_0L@ICOMAJKB@?$KD?$MA?$KD?F?r?$KG?V?$LF?$DP?$DP@ ; `string'
PUBLIC	??_C@_08NJCNHHIM@?$KD?$MA?r?$KG?V?$LF?$DP?$DP@	; `string'
PUBLIC	??_C@_0P@BPNGJDFB@?$KD?C?$KD?o?$KD?o?$KD?k?r?$KG?V?$LF?$DP?$DP@ ; `string'
PUBLIC	??_C@_08ICLMPPGO@?$KD?M?$KD?M?$KD?L?$DP?$DP@	; `string'
PUBLIC	??_C@_0L@MAMJAONM@?$KD?$MA?$KD?D?r?$KG?V?$LF?$DP?$DP@ ; `string'
PUBLIC	??_C@_0L@NLIJCIGI@?q?$LC?w?n?$DP?u?$LB?$DP?$DP?$DP@ ; `string'
PUBLIC	??_C@_0O@BDPOMKKB@?f?Q?q?$LE?k?e?$DP?r?$KG?o?R?$DP?$DP@ ; `string'
PUBLIC	??_C@_0N@PMDODFEN@?Z?c?$DP?$DP?$NL?$KP?r?$KG?V?$LF?$DP?$DP@ ; `string'
PUBLIC	??_C@_0M@KADLMLCJ@?Z?c?$DP?$DP?$NL?$KP?$DP?$NM?t?y?j@ ; `string'
PUBLIC	??_C@_0L@KBDAPCLE@?$DP?k?e?$DP?r?$KG?o?R?$DP?$DP@ ; `string'
PUBLIC	??_C@_0L@DCPNDIBE@?$KD?$MA?$KD?W?r?$KG?V?$LF?$DP?$DP@ ; `string'
PUBLIC	??_C@_09DBOICEHL@?$DP?q?$LE?r?$KG?V?$LF?$DP?$DP@ ; `string'
PUBLIC	??_C@_08GJDMEGDJ@?$KD?Q?r?$KG?V?$LF?$DP?$DP@	; `string'
PUBLIC	??_C@_0L@BJOJBMHA@?$KD?$MA?$KD?K?r?$KG?V?$LF?$DP?$DP@ ; `string'
PUBLIC	??_C@_06HJKPLLII@?$PL?z?k?e?$DP?$DP@		; `string'
PUBLIC	??_C@_08NGFCA@?$KD?O?r?$KG?V?$LF?$DP?$DP@	; `string'
PUBLIC	??_C@_0L@JHGGBLJD@?$KD?$MA?$KD?H?r?$KG?V?$LF?$DP?$DP@ ; `string'
PUBLIC	??_C@_0L@NPIGBFPH@?$KD?$MA?$KD?M?r?$KG?V?$LF?$DP?$DP@ ; `string'
PUBLIC	??_C@_0L@LGLHDGOO@?$KD?$MA?$KD?S?r?$KG?V?$LF?$DP?$DP@ ; `string'
PUBLIC	?hEvent@@3PAPAXA				; hEvent
PUBLIC	?hThreadHandle@@3PAXA				; hThreadHandle
PUBLIC	?dwThreadID@@3KA				; dwThreadID
PUBLIC	?sd@@3USoundData@@A				; sd
PUBLIC	??_C@_0BG@BPJPJLMH@data?2bgm?2sabgm_s0?4wav@	; `string'
PUBLIC	??_C@_0BG@NEMDEIGC@data?2bgm?2sabgm_s1?4wav@	; `string'
PUBLIC	??_C@_0BG@BBGEHGOM@data?2bgm?2sabgm_t1?4wav@	; `string'
PUBLIC	??_C@_0BG@NKDIKFEJ@data?2bgm?2sabgm_t0?4wav@	; `string'
PUBLIC	??_C@_0BG@NODGAMLN@data?2bgm?2sabgm_b0?4wav@	; `string'
PUBLIC	??_C@_0BG@BFGKNPBI@data?2bgm?2sabgm_b1?4wav@	; `string'
PUBLIC	??_C@_0BG@LNOGDJIH@data?2bgm?2sabgm_d0?4wav@	; `string'
PUBLIC	??_C@_0BG@HGLKOKCC@data?2bgm?2sabgm_d1?4wav@	; `string'
PUBLIC	??_C@_0BG@PACOJIIM@data?2bgm?2sabgm_d2?4wav@	; `string'
PUBLIC	??_C@_0BG@CKHJCIKO@data?2bgm?2sabgm_f0?4wav@	; `string'
PUBLIC	??_C@_0BG@OBCFPLAL@data?2bgm?2sabgm_f1?4wav@	; `string'
PUBLIC	??_C@_0BG@FIKCHOBD@data?2bgm?2sabgm_b3?4wav@	; `string'
PUBLIC	??_C@_0BG@JDPOKNLG@data?2bgm?2sabgm_b2?4wav@	; `string'
PUBLIC	??_C@_0BG@EFKHEOKL@data?2bgm?2sabgm_b4?4wav@	; `string'
PUBLIC	??_C@_0BG@GHLBIJKF@data?2bgm?2sabgm_f2?4wav@	; `string'
PUBLIC	??_C@_0BG@JHPAAEEC@data?2bgm?2sabgm_t2?4wav@	; `string'
PUBLIC	??_C@_0BG@FMKMNHOH@data?2bgm?2sabgm_t3?4wav@	; `string'
PUBLIC	??_C@_0BG@EBKJOHFP@data?2bgm?2sabgm_t4?4wav@	; `string'
PUBLIC	??_C@_0BG@IKPFDEPK@data?2bgm?2sabgm_t5?4wav@	; `string'
PUBLIC	??_C@_0BG@MGBEGFE@data?2bgm?2sabgm_t6?4wav@	; `string'
PUBLIC	??_C@_0BG@MHDNJFPB@data?2bgm?2sabgm_t7?4wav@	; `string'
PUBLIC	??_C@_0BG@DGGLCHCE@data?2bgm?2sabgm_t8?4wav@	; `string'
PUBLIC	??_C@_0BG@PNDHPEIB@data?2bgm?2sabgm_t9?4wav@	; `string'
PUBLIC	??_C@_0BH@LAAMGHLC@data?2bgm?2sabgm_t10?4wav@	; `string'
PUBLIC	??_C@_0BH@HLFALEBH@data?2bgm?2sabgm_t11?4wav@	; `string'
PUBLIC	??_C@_0BH@PNMEMGLJ@data?2bgm?2sabgm_t12?4wav@	; `string'
PUBLIC	??_C@_0BG@OPNOBGCA@data?2bgm?2sabgm_a0?4wav@	; `string'
PUBLIC	??_C@_0BG@CEICMFIF@data?2bgm?2sabgm_a1?4wav@	; `string'
PUBLIC	??_C@_0BG@KCBGLHCL@data?2bgm?2sabgm_a2?4wav@	; `string'
PUBLIC	??_C@_0BG@GJEKGEIO@data?2bgm?2sabgm_a3?4wav@	; `string'
PUBLIC	??_C@_0BG@HEEPFEDG@data?2bgm?2sabgm_a4?4wav@	; `string'
PUBLIC	??_C@_0BG@LPBDIHJD@data?2bgm?2sabgm_a5?4wav@	; `string'
PUBLIC	?BakBgm@@3HA					; BakBgm
_BSS	SEGMENT
?tone_tbl@@3PAUTONE_EQU@@A DB 03e80H DUP (?)		; tone_tbl
?t_music_bgm_pitch@@3PADA DB 010H DUP (?)		; t_music_bgm_pitch
?draw_map_bgm_flg@@3HA DD 01H DUP (?)			; draw_map_bgm_flg
?map_bgm_no@@3HA DD 01H DUP (?)				; map_bgm_no
??ëå??@@3HA DD	01H DUP (?)				; ?ëå??
?env_tbl@@3PAUENVIRONMENT_EQU@@A DB 02d0H DUP (?)	; env_tbl
?thread_flg@@3HA DD 01H DUP (?)				; thread_flg
?dsound_flg@@3HA DD 01H DUP (?)				; dsound_flg
?pDSound@@3PAUIDirectSound@@A DD 01H DUP (?)		; pDSound
?pDSPrimary@@3PAUIDirectSoundBuffer@@A DD 01H DUP (?)	; pDSPrimary
?primaryVolume@@3JA DD 01H DUP (?)			; primaryVolume
?primaryPan@@3JA DD 01H DUP (?)				; primaryPan
?primaryFrequency@@3JA DD 01H DUP (?)			; primaryFrequency
?pDSData_tone@@3PAPAUIDirectSoundBuffer@@A DD 01f5H DUP (?) ; pDSData_tone
?pDSData_stream@@3PAUIDirectSoundBuffer@@A DD 01H DUP (?) ; pDSData_stream
?pDSData@@3PAPAUIDirectSoundBuffer@@A DD 040H DUP (?)	; pDSData
?dataPlay@@3PAHA DD 040H DUP (?)			; dataPlay
?dataVolume@@3PAHA DD 020H DUP (?)			; dataVolume
?dataPan@@3PAHA DD 020H DUP (?)				; dataPan
?dataFrequency@@3PAJA DD 020H DUP (?)			; dataFrequency
?voice@@3PAUVOICE_EQU@@A DB 0f00H DUP (?)		; voice
?tone_max_buf@@3HA DD 01H DUP (?)			; tone_max_buf
?t_music_playing_flg@@3HA DD 01H DUP (?)		; t_music_playing_flg
?t_music_fade_flg@@3HA DD 01H DUP (?)			; t_music_fade_flg
?t_music_fade_vol@@3HA DD 01H DUP (?)			; t_music_fade_vol
?hEvent@@3PAPAXA DD 03H DUP (?)				; hEvent
?hThreadHandle@@3PAXA DD 01H DUP (?)			; hThreadHandle
?dwThreadID@@3KA DD 01H DUP (?)				; dwThreadID
?sd@@3USoundData@@A DB 01cH DUP (?)			; sd
?BakBgm@@3HA DD	01H DUP (?)				; BakBgm
_BSS	ENDS
;	COMDAT ??_C@_0BG@LPBDIHJD@data?2bgm?2sabgm_a5?4wav@
CONST	SEGMENT
??_C@_0BG@LPBDIHJD@data?2bgm?2sabgm_a5?4wav@ DB 'data\bgm\sabgm_a5.wav', 00H ; `string'
CONST	ENDS
;	COMDAT ??_C@_0BG@HEEPFEDG@data?2bgm?2sabgm_a4?4wav@
CONST	SEGMENT
??_C@_0BG@HEEPFEDG@data?2bgm?2sabgm_a4?4wav@ DB 'data\bgm\sabgm_a4.wav', 00H ; `string'
CONST	ENDS
;	COMDAT ??_C@_0BG@GJEKGEIO@data?2bgm?2sabgm_a3?4wav@
CONST	SEGMENT
??_C@_0BG@GJEKGEIO@data?2bgm?2sabgm_a3?4wav@ DB 'data\bgm\sabgm_a3.wav', 00H ; `string'
CONST	ENDS
;	COMDAT ??_C@_0BG@KCBGLHCL@data?2bgm?2sabgm_a2?4wav@
CONST	SEGMENT
??_C@_0BG@KCBGLHCL@data?2bgm?2sabgm_a2?4wav@ DB 'data\bgm\sabgm_a2.wav', 00H ; `string'
CONST	ENDS
;	COMDAT ??_C@_0BG@CEICMFIF@data?2bgm?2sabgm_a1?4wav@
CONST	SEGMENT
??_C@_0BG@CEICMFIF@data?2bgm?2sabgm_a1?4wav@ DB 'data\bgm\sabgm_a1.wav', 00H ; `string'
CONST	ENDS
;	COMDAT ??_C@_0BG@OPNOBGCA@data?2bgm?2sabgm_a0?4wav@
CONST	SEGMENT
??_C@_0BG@OPNOBGCA@data?2bgm?2sabgm_a0?4wav@ DB 'data\bgm\sabgm_a0.wav', 00H ; `string'
CONST	ENDS
;	COMDAT ??_C@_0BH@PNMEMGLJ@data?2bgm?2sabgm_t12?4wav@
CONST	SEGMENT
??_C@_0BH@PNMEMGLJ@data?2bgm?2sabgm_t12?4wav@ DB 'data\bgm\sabgm_t12.wav', 00H ; `string'
CONST	ENDS
;	COMDAT ??_C@_0BH@HLFALEBH@data?2bgm?2sabgm_t11?4wav@
CONST	SEGMENT
??_C@_0BH@HLFALEBH@data?2bgm?2sabgm_t11?4wav@ DB 'data\bgm\sabgm_t11.wav', 00H ; `string'
CONST	ENDS
;	COMDAT ??_C@_0BH@LAAMGHLC@data?2bgm?2sabgm_t10?4wav@
CONST	SEGMENT
??_C@_0BH@LAAMGHLC@data?2bgm?2sabgm_t10?4wav@ DB 'data\bgm\sabgm_t10.wav', 00H ; `string'
CONST	ENDS
;	COMDAT ??_C@_0BG@PNDHPEIB@data?2bgm?2sabgm_t9?4wav@
CONST	SEGMENT
??_C@_0BG@PNDHPEIB@data?2bgm?2sabgm_t9?4wav@ DB 'data\bgm\sabgm_t9.wav', 00H ; `string'
CONST	ENDS
;	COMDAT ??_C@_0BG@DGGLCHCE@data?2bgm?2sabgm_t8?4wav@
CONST	SEGMENT
??_C@_0BG@DGGLCHCE@data?2bgm?2sabgm_t8?4wav@ DB 'data\bgm\sabgm_t8.wav', 00H ; `string'
CONST	ENDS
;	COMDAT ??_C@_0BG@MHDNJFPB@data?2bgm?2sabgm_t7?4wav@
CONST	SEGMENT
??_C@_0BG@MHDNJFPB@data?2bgm?2sabgm_t7?4wav@ DB 'data\bgm\sabgm_t7.wav', 00H ; `string'
CONST	ENDS
;	COMDAT ??_C@_0BG@MGBEGFE@data?2bgm?2sabgm_t6?4wav@
CONST	SEGMENT
??_C@_0BG@MGBEGFE@data?2bgm?2sabgm_t6?4wav@ DB 'data\bgm\sabgm_t6.wav', 00H ; `string'
CONST	ENDS
;	COMDAT ??_C@_0BG@IKPFDEPK@data?2bgm?2sabgm_t5?4wav@
CONST	SEGMENT
??_C@_0BG@IKPFDEPK@data?2bgm?2sabgm_t5?4wav@ DB 'data\bgm\sabgm_t5.wav', 00H ; `string'
CONST	ENDS
;	COMDAT ??_C@_0BG@EBKJOHFP@data?2bgm?2sabgm_t4?4wav@
CONST	SEGMENT
??_C@_0BG@EBKJOHFP@data?2bgm?2sabgm_t4?4wav@ DB 'data\bgm\sabgm_t4.wav', 00H ; `string'
CONST	ENDS
;	COMDAT ??_C@_0BG@FMKMNHOH@data?2bgm?2sabgm_t3?4wav@
CONST	SEGMENT
??_C@_0BG@FMKMNHOH@data?2bgm?2sabgm_t3?4wav@ DB 'data\bgm\sabgm_t3.wav', 00H ; `string'
CONST	ENDS
;	COMDAT ??_C@_0BG@JHPAAEEC@data?2bgm?2sabgm_t2?4wav@
CONST	SEGMENT
??_C@_0BG@JHPAAEEC@data?2bgm?2sabgm_t2?4wav@ DB 'data\bgm\sabgm_t2.wav', 00H ; `string'
CONST	ENDS
;	COMDAT ??_C@_0BG@GHLBIJKF@data?2bgm?2sabgm_f2?4wav@
CONST	SEGMENT
??_C@_0BG@GHLBIJKF@data?2bgm?2sabgm_f2?4wav@ DB 'data\bgm\sabgm_f2.wav', 00H ; `string'
CONST	ENDS
;	COMDAT ??_C@_0BG@EFKHEOKL@data?2bgm?2sabgm_b4?4wav@
CONST	SEGMENT
??_C@_0BG@EFKHEOKL@data?2bgm?2sabgm_b4?4wav@ DB 'data\bgm\sabgm_b4.wav', 00H ; `string'
CONST	ENDS
;	COMDAT ??_C@_0BG@JDPOKNLG@data?2bgm?2sabgm_b2?4wav@
CONST	SEGMENT
??_C@_0BG@JDPOKNLG@data?2bgm?2sabgm_b2?4wav@ DB 'data\bgm\sabgm_b2.wav', 00H ; `string'
CONST	ENDS
;	COMDAT ??_C@_0BG@FIKCHOBD@data?2bgm?2sabgm_b3?4wav@
CONST	SEGMENT
??_C@_0BG@FIKCHOBD@data?2bgm?2sabgm_b3?4wav@ DB 'data\bgm\sabgm_b3.wav', 00H ; `string'
CONST	ENDS
;	COMDAT ??_C@_0BG@OBCFPLAL@data?2bgm?2sabgm_f1?4wav@
CONST	SEGMENT
??_C@_0BG@OBCFPLAL@data?2bgm?2sabgm_f1?4wav@ DB 'data\bgm\sabgm_f1.wav', 00H ; `string'
CONST	ENDS
;	COMDAT ??_C@_0BG@CKHJCIKO@data?2bgm?2sabgm_f0?4wav@
CONST	SEGMENT
??_C@_0BG@CKHJCIKO@data?2bgm?2sabgm_f0?4wav@ DB 'data\bgm\sabgm_f0.wav', 00H ; `string'
CONST	ENDS
;	COMDAT ??_C@_0BG@PACOJIIM@data?2bgm?2sabgm_d2?4wav@
CONST	SEGMENT
??_C@_0BG@PACOJIIM@data?2bgm?2sabgm_d2?4wav@ DB 'data\bgm\sabgm_d2.wav', 00H ; `string'
CONST	ENDS
;	COMDAT ??_C@_0BG@HGLKOKCC@data?2bgm?2sabgm_d1?4wav@
CONST	SEGMENT
??_C@_0BG@HGLKOKCC@data?2bgm?2sabgm_d1?4wav@ DB 'data\bgm\sabgm_d1.wav', 00H ; `string'
CONST	ENDS
;	COMDAT ??_C@_0BG@LNOGDJIH@data?2bgm?2sabgm_d0?4wav@
CONST	SEGMENT
??_C@_0BG@LNOGDJIH@data?2bgm?2sabgm_d0?4wav@ DB 'data\bgm\sabgm_d0.wav', 00H ; `string'
CONST	ENDS
;	COMDAT ??_C@_0BG@BFGKNPBI@data?2bgm?2sabgm_b1?4wav@
CONST	SEGMENT
??_C@_0BG@BFGKNPBI@data?2bgm?2sabgm_b1?4wav@ DB 'data\bgm\sabgm_b1.wav', 00H ; `string'
CONST	ENDS
;	COMDAT ??_C@_0BG@NODGAMLN@data?2bgm?2sabgm_b0?4wav@
CONST	SEGMENT
??_C@_0BG@NODGAMLN@data?2bgm?2sabgm_b0?4wav@ DB 'data\bgm\sabgm_b0.wav', 00H ; `string'
CONST	ENDS
;	COMDAT ??_C@_0BG@NKDIKFEJ@data?2bgm?2sabgm_t0?4wav@
CONST	SEGMENT
??_C@_0BG@NKDIKFEJ@data?2bgm?2sabgm_t0?4wav@ DB 'data\bgm\sabgm_t0.wav', 00H ; `string'
CONST	ENDS
;	COMDAT ??_C@_0BG@BBGEHGOM@data?2bgm?2sabgm_t1?4wav@
CONST	SEGMENT
??_C@_0BG@BBGEHGOM@data?2bgm?2sabgm_t1?4wav@ DB 'data\bgm\sabgm_t1.wav', 00H ; `string'
CONST	ENDS
;	COMDAT ??_C@_0BG@NEMDEIGC@data?2bgm?2sabgm_s1?4wav@
CONST	SEGMENT
??_C@_0BG@NEMDEIGC@data?2bgm?2sabgm_s1?4wav@ DB 'data\bgm\sabgm_s1.wav', 00H ; `string'
CONST	ENDS
;	COMDAT ??_C@_0BG@BPJPJLMH@data?2bgm?2sabgm_s0?4wav@
CONST	SEGMENT
??_C@_0BG@BPJPJLMH@data?2bgm?2sabgm_s0?4wav@ DB 'data\bgm\sabgm_s0.wav', 00H ; `string'
CONST	ENDS
;	COMDAT ??_C@_0L@LGLHDGOO@?$KD?$MA?$KD?S?r?$KG?V?$LF?$DP?$DP@
CONST	SEGMENT
??_C@_0L@LGLHDGOO@?$KD?$MA?$KD?S?r?$KG?V?$LF?$DP?$DP@ DB 0a3H, 0c0H, 0a3H
	DB	0d3H, 0f2H, 0a6H, 0d6H, 0b5H, '??', 00H	; `string'
CONST	ENDS
;	COMDAT ??_C@_0L@NPIGBFPH@?$KD?$MA?$KD?M?r?$KG?V?$LF?$DP?$DP@
CONST	SEGMENT
??_C@_0L@NPIGBFPH@?$KD?$MA?$KD?M?r?$KG?V?$LF?$DP?$DP@ DB 0a3H, 0c0H, 0a3H
	DB	0cdH, 0f2H, 0a6H, 0d6H, 0b5H, '??', 00H	; `string'
CONST	ENDS
;	COMDAT ??_C@_0L@JHGGBLJD@?$KD?$MA?$KD?H?r?$KG?V?$LF?$DP?$DP@
CONST	SEGMENT
??_C@_0L@JHGGBLJD@?$KD?$MA?$KD?H?r?$KG?V?$LF?$DP?$DP@ DB 0a3H, 0c0H, 0a3H
	DB	0c8H, 0f2H, 0a6H, 0d6H, 0b5H, '??', 00H	; `string'
CONST	ENDS
;	COMDAT ??_C@_08NGFCA@?$KD?O?r?$KG?V?$LF?$DP?$DP@
CONST	SEGMENT
??_C@_08NGFCA@?$KD?O?r?$KG?V?$LF?$DP?$DP@ DB 0a3H, 0cfH, 0f2H, 0a6H, 0d6H
	DB	0b5H, '??', 00H				; `string'
CONST	ENDS
;	COMDAT ??_C@_06HJKPLLII@?$PL?z?k?e?$DP?$DP@
CONST	SEGMENT
??_C@_06HJKPLLII@?$PL?z?k?e?$DP?$DP@ DB 0fbH, 0faH, 0ebH, 0e5H, '??', 00H ; `string'
CONST	ENDS
;	COMDAT ??_C@_0L@BJOJBMHA@?$KD?$MA?$KD?K?r?$KG?V?$LF?$DP?$DP@
CONST	SEGMENT
??_C@_0L@BJOJBMHA@?$KD?$MA?$KD?K?r?$KG?V?$LF?$DP?$DP@ DB 0a3H, 0c0H, 0a3H
	DB	0cbH, 0f2H, 0a6H, 0d6H, 0b5H, '??', 00H	; `string'
CONST	ENDS
;	COMDAT ??_C@_08GJDMEGDJ@?$KD?Q?r?$KG?V?$LF?$DP?$DP@
CONST	SEGMENT
??_C@_08GJDMEGDJ@?$KD?Q?r?$KG?V?$LF?$DP?$DP@ DB 0a3H, 0d1H, 0f2H, 0a6H, 0d6H
	DB	0b5H, '??', 00H				; `string'
CONST	ENDS
;	COMDAT ??_C@_09DBOICEHL@?$DP?q?$LE?r?$KG?V?$LF?$DP?$DP@
CONST	SEGMENT
??_C@_09DBOICEHL@?$DP?q?$LE?r?$KG?V?$LF?$DP?$DP@ DB '?', 0f1H, 0b4H, 0f2H
	DB	0a6H, 0d6H, 0b5H, '??', 00H			; `string'
CONST	ENDS
;	COMDAT ??_C@_0L@DCPNDIBE@?$KD?$MA?$KD?W?r?$KG?V?$LF?$DP?$DP@
CONST	SEGMENT
??_C@_0L@DCPNDIBE@?$KD?$MA?$KD?W?r?$KG?V?$LF?$DP?$DP@ DB 0a3H, 0c0H, 0a3H
	DB	0d7H, 0f2H, 0a6H, 0d6H, 0b5H, '??', 00H	; `string'
CONST	ENDS
;	COMDAT ??_C@_0L@KBDAPCLE@?$DP?k?e?$DP?r?$KG?o?R?$DP?$DP@
CONST	SEGMENT
??_C@_0L@KBDAPCLE@?$DP?k?e?$DP?r?$KG?o?R?$DP?$DP@ DB '?', 0ebH, 0e5H, '?', 0f2H
	DB	0a6H, 0efH, 0d2H, '??', 00H			; `string'
CONST	ENDS
;	COMDAT ??_C@_0M@KADLMLCJ@?Z?c?$DP?$DP?$NL?$KP?$DP?$NM?t?y?j@
CONST	SEGMENT
??_C@_0M@KADLMLCJ@?Z?c?$DP?$DP?$NL?$KP?$DP?$NM?t?y?j@ DB 0daH, 0e3H, '??', 0dbH
	DB	0afH, '?', 0dcH, 0f4H, 0f9H, 0eaH, 00H	; `string'
CONST	ENDS
;	COMDAT ??_C@_0N@PMDODFEN@?Z?c?$DP?$DP?$NL?$KP?r?$KG?V?$LF?$DP?$DP@
CONST	SEGMENT
??_C@_0N@PMDODFEN@?Z?c?$DP?$DP?$NL?$KP?r?$KG?V?$LF?$DP?$DP@ DB 0daH, 0e3H
	DB	'??', 0dbH, 0afH, 0f2H, 0a6H, 0d6H, 0b5H, '??', 00H ; `string'
CONST	ENDS
;	COMDAT ??_C@_0O@BDPOMKKB@?f?Q?q?$LE?k?e?$DP?r?$KG?o?R?$DP?$DP@
CONST	SEGMENT
??_C@_0O@BDPOMKKB@?f?Q?q?$LE?k?e?$DP?r?$KG?o?R?$DP?$DP@ DB 0e6H, 0d1H, 0f1H
	DB	0b4H, 0ebH, 0e5H, '?', 0f2H, 0a6H, 0efH, 0d2H, '??', 00H ; `string'
CONST	ENDS
;	COMDAT ??_C@_0L@NLIJCIGI@?q?$LC?w?n?$DP?u?$LB?$DP?$DP?$DP@
CONST	SEGMENT
??_C@_0L@NLIJCIGI@?q?$LC?w?n?$DP?u?$LB?$DP?$DP?$DP@ DB 0f1H, 0b2H, 0f7H, 0eeH
	DB	'?', 0f5H, 0b1H, '???', 00H			; `string'
CONST	ENDS
;	COMDAT ??_C@_0L@MAMJAONM@?$KD?$MA?$KD?D?r?$KG?V?$LF?$DP?$DP@
CONST	SEGMENT
??_C@_0L@MAMJAONM@?$KD?$MA?$KD?D?r?$KG?V?$LF?$DP?$DP@ DB 0a3H, 0c0H, 0a3H
	DB	0c4H, 0f2H, 0a6H, 0d6H, 0b5H, '??', 00H	; `string'
CONST	ENDS
;	COMDAT ??_C@_08ICLMPPGO@?$KD?M?$KD?M?$KD?L?$DP?$DP@
CONST	SEGMENT
??_C@_08ICLMPPGO@?$KD?M?$KD?M?$KD?L?$DP?$DP@ DB 0a3H, 0cdH, 0a3H, 0cdH, 0a3H
	DB	0ccH, '??', 00H				; `string'
CONST	ENDS
;	COMDAT ??_C@_0P@BPNGJDFB@?$KD?C?$KD?o?$KD?o?$KD?k?r?$KG?V?$LF?$DP?$DP@
CONST	SEGMENT
??_C@_0P@BPNGJDFB@?$KD?C?$KD?o?$KD?o?$KD?k?r?$KG?V?$LF?$DP?$DP@ DB 0a3H, 0c3H
	DB	0a3H, 0efH, 0a3H, 0efH, 0a3H, 0ebH, 0f2H, 0a6H, 0d6H, 0b5H, '?'
	DB	'?', 00H					; `string'
CONST	ENDS
;	COMDAT ??_C@_08NJCNHHIM@?$KD?$MA?r?$KG?V?$LF?$DP?$DP@
CONST	SEGMENT
??_C@_08NJCNHHIM@?$KD?$MA?r?$KG?V?$LF?$DP?$DP@ DB 0a3H, 0c0H, 0f2H, 0a6H, 0d6H
	DB	0b5H, '??', 00H				; `string'
CONST	ENDS
;	COMDAT ??_C@_0L@ICOMAJKB@?$KD?$MA?$KD?F?r?$KG?V?$LF?$DP?$DP@
CONST	SEGMENT
??_C@_0L@ICOMAJKB@?$KD?$MA?$KD?F?r?$KG?V?$LF?$DP?$DP@ DB 0a3H, 0c0H, 0a3H
	DB	0c6H, 0f2H, 0a6H, 0d6H, 0b5H, '??', 00H	; `string'
CONST	ENDS
;	COMDAT ??_C@_0L@DIDIDBAN@?$KD?$MA?$KD?P?r?$KG?V?$LF?$DP?$DP@
CONST	SEGMENT
??_C@_0L@DIDIDBAN@?$KD?$MA?$KD?P?r?$KG?V?$LF?$DP?$DP@ DB 0a3H, 0c0H, 0a3H
	DB	0d0H, 0f2H, 0a6H, 0d6H, 0b5H, '??', 00H	; `string'
CONST	ENDS
;	COMDAT ??_C@_0L@POFHDIIK@?$KD?$MA?$KD?V?r?$KG?V?$LF?$DP?$DP@
CONST	SEGMENT
??_C@_0L@POFHDIIK@?$KD?$MA?$KD?V?r?$KG?V?$LF?$DP?$DP@ DB 0a3H, 0c0H, 0a3H
	DB	0d6H, 0f2H, 0a6H, 0d6H, 0b5H, '??', 00H	; `string'
CONST	ENDS
;	COMDAT ??_C@_08GDPJEPCA@?$KD?V?r?$KG?V?$LF?$DP?$DP@
CONST	SEGMENT
??_C@_08GDPJEPCA@?$KD?V?r?$KG?V?$LF?$DP?$DP@ DB 0a3H, 0d6H, 0f2H, 0a6H, 0d6H
	DB	0b5H, '??', 00H				; `string'
CONST	ENDS
;	COMDAT ??_C@_08CBNMEIFN@?$KD?T?r?$KG?V?$LF?$DP?$DP@
CONST	SEGMENT
??_C@_08CBNMEIFN@?$KD?T?r?$KG?V?$LF?$DP?$DP@ DB 0a3H, 0d4H, 0f2H, 0a6H, 0d6H
	DB	0b5H, '??', 00H				; `string'
CONST	ENDS
;	COMDAT ??_C@_08IOICGCMD@?$KD?L?r?$KG?V?$LF?$DP?$DP@
CONST	SEGMENT
??_C@_08IOICGCMD@?$KD?L?r?$KG?V?$LF?$DP?$DP@ DB 0a3H, 0ccH, 0f2H, 0a6H, 0d6H
	DB	0b5H, '??', 00H				; `string'
CONST	ENDS
;	COMDAT ??_C@_09JCKPJEPE@?k?e?$DP?r?$KG?o?R?$DP?$DP@
CONST	SEGMENT
??_C@_09JCKPJEPE@?k?e?$DP?r?$KG?o?R?$DP?$DP@ DB 0ebH, 0e5H, '?', 0f2H, 0a6H
	DB	0efH, 0d2H, '??', 00H			; `string'
CONST	ENDS
;	COMDAT ??_C@_0N@INFHKGBA@?$KD?S?$KD?t?$KD?e?$KD?p?$DP?$DP?$DP?$DP@
CONST	SEGMENT
??_C@_0N@INFHKGBA@?$KD?S?$KD?t?$KD?e?$KD?p?$DP?$DP?$DP?$DP@ DB 0a3H, 0d3H
	DB	0a3H, 0f4H, 0a3H, 0e5H, 0a3H, 0f0H, '????', 00H ; `string'
CONST	ENDS
;	COMDAT ??_C@_08LOOFPHBM@?$DP?d?P?$DP?$DP?c?w?$DP@
CONST	SEGMENT
??_C@_08LOOFPHBM@?$DP?d?P?$DP?$DP?c?w?$DP@ DB '?', 0e4H, 0d0H, '??', 0e3H
	DB	0f7H, '?', 00H				; `string'
CONST	ENDS
_DATA	SEGMENT
?bgm_tbl@@3PAUT_MUSIC_BGM@@A DD FLAT:??_C@_0BG@BPJPJLMH@data?2bgm?2sabgm_s0?4wav@ ; bgm_tbl
	DD	06eH
	DB	00H
	ORG $+3
	DD	00H
	DD	FLAT:??_C@_0BG@NEMDEIGC@data?2bgm?2sabgm_s1?4wav@
	DD	078H
	DB	00H
	ORG $+3
	DD	00H
	DD	FLAT:??_C@_0BG@NEMDEIGC@data?2bgm?2sabgm_s1?4wav@
	DD	069H
	DB	02H
	ORG $+3
	DD	00H
	DD	FLAT:??_C@_0BG@BBGEHGOM@data?2bgm?2sabgm_t1?4wav@
	DD	07fH
	DB	02H
	ORG $+3
	DD	00H
	DD	FLAT:??_C@_0BG@NKDIKFEJ@data?2bgm?2sabgm_t0?4wav@
	DD	05fH
	DB	02H
	ORG $+3
	DD	00H
	DD	FLAT:??_C@_0BG@NODGAMLN@data?2bgm?2sabgm_b0?4wav@
	DD	07aH
	DB	01H
	ORG $+3
	DD	00H
	DD	FLAT:??_C@_0BG@BFGKNPBI@data?2bgm?2sabgm_b1?4wav@
	DD	07aH
	DB	02H
	ORG $+3
	DD	00H
	DD	FLAT:??_C@_0BG@LNOGDJIH@data?2bgm?2sabgm_d0?4wav@
	DD	078H
	DB	01H
	ORG $+3
	DD	00H
	DD	FLAT:??_C@_0BG@HGLKOKCC@data?2bgm?2sabgm_d1?4wav@
	DD	069H
	DB	01H
	ORG $+3
	DD	00H
	DD	FLAT:??_C@_0BG@PACOJIIM@data?2bgm?2sabgm_d2?4wav@
	DD	064H
	DB	02H
	ORG $+3
	DD	00H
	DD	FLAT:??_C@_0BG@CKHJCIKO@data?2bgm?2sabgm_f0?4wav@
	DD	07fH
	DB	02H
	ORG $+3
	DD	00H
	DD	FLAT:??_C@_0BG@OBCFPLAL@data?2bgm?2sabgm_f1?4wav@
	DD	064H
	DB	02H
	ORG $+3
	DD	00H
	DD	FLAT:??_C@_0BG@FIKCHOBD@data?2bgm?2sabgm_b3?4wav@
	DD	06eH
	DB	02H
	ORG $+3
	DD	00H
	DD	FLAT:??_C@_0BG@JDPOKNLG@data?2bgm?2sabgm_b2?4wav@
	DD	06eH
	DB	02H
	ORG $+3
	DD	00H
	DD	FLAT:??_C@_0BG@EFKHEOKL@data?2bgm?2sabgm_b4?4wav@
	DD	06eH
	DB	02H
	ORG $+3
	DD	00H
	DD	FLAT:??_C@_0BG@GHLBIJKF@data?2bgm?2sabgm_f2?4wav@
	DD	06eH
	DB	02H
	ORG $+3
	DD	00H
	DD	FLAT:??_C@_0BG@JHPAAEEC@data?2bgm?2sabgm_t2?4wav@
	DD	06eH
	DB	02H
	ORG $+3
	DD	00H
	DD	FLAT:??_C@_0BG@FMKMNHOH@data?2bgm?2sabgm_t3?4wav@
	DD	06eH
	DB	02H
	ORG $+3
	DD	00H
	DD	FLAT:??_C@_0BG@EBKJOHFP@data?2bgm?2sabgm_t4?4wav@
	DD	06eH
	DB	02H
	ORG $+3
	DD	00H
	DD	FLAT:??_C@_0BG@IKPFDEPK@data?2bgm?2sabgm_t5?4wav@
	DD	06eH
	DB	02H
	ORG $+3
	DD	00H
	DD	FLAT:??_C@_0BG@MGBEGFE@data?2bgm?2sabgm_t6?4wav@
	DD	06eH
	DB	02H
	ORG $+3
	DD	00H
	DD	FLAT:??_C@_0BG@MHDNJFPB@data?2bgm?2sabgm_t7?4wav@
	DD	06eH
	DB	02H
	ORG $+3
	DD	00H
	DD	FLAT:??_C@_0BG@DGGLCHCE@data?2bgm?2sabgm_t8?4wav@
	DD	06eH
	DB	02H
	ORG $+3
	DD	00H
	DD	FLAT:??_C@_0BG@PNDHPEIB@data?2bgm?2sabgm_t9?4wav@
	DD	06eH
	DB	02H
	ORG $+3
	DD	00H
	DD	FLAT:??_C@_0BH@LAAMGHLC@data?2bgm?2sabgm_t10?4wav@
	DD	06eH
	DB	02H
	ORG $+3
	DD	00H
	DD	FLAT:??_C@_0BH@HLFALEBH@data?2bgm?2sabgm_t11?4wav@
	DD	06eH
	DB	02H
	ORG $+3
	DD	00H
	DD	FLAT:??_C@_0BH@PNMEMGLJ@data?2bgm?2sabgm_t12?4wav@
	DD	06eH
	DB	02H
	ORG $+3
	DD	00H
	DD	FLAT:??_C@_0BG@OPNOBGCA@data?2bgm?2sabgm_a0?4wav@
	DD	06eH
	DB	02H
	ORG $+3
	DD	00H
	DD	FLAT:??_C@_0BG@CEICMFIF@data?2bgm?2sabgm_a1?4wav@
	DD	06eH
	DB	02H
	ORG $+3
	DD	00H
	DD	FLAT:??_C@_0BG@KCBGLHCL@data?2bgm?2sabgm_a2?4wav@
	DD	06eH
	DB	02H
	ORG $+3
	DD	00H
	DD	FLAT:??_C@_0BG@GJEKGEIO@data?2bgm?2sabgm_a3?4wav@
	DD	06eH
	DB	02H
	ORG $+3
	DD	00H
	DD	FLAT:??_C@_0BG@HEEPFEDG@data?2bgm?2sabgm_a4?4wav@
	DD	06eH
	DB	02H
	ORG $+3
	DD	00H
	DD	FLAT:??_C@_0BG@LPBDIHJD@data?2bgm?2sabgm_a5?4wav@
	DD	06eH
	DB	02H
	ORG $+3
	DD	00H
?cdda_no@@3HA DD 0ffffffffH				; cdda_no
?stereo_flg@@3HA DD 01H					; stereo_flg
?t_music_se_volume@@3HA DD 0fH				; t_music_se_volume
?t_music_bgm_volume@@3HA DD 0fH				; t_music_bgm_volume
?t_music_bgm_no@@3HA DD 0ffffffffH			; t_music_bgm_no
?t_music_se_no@@3HA DD 0ffffffffH			; t_music_se_no
_DATA	ENDS
PUBLIC	?t_music_init@@YAHXZ				; t_music_init
PUBLIC	?t_music_end@@YAXXZ				; t_music_end
PUBLIC	?check_se_loop@@YAXXZ				; check_se_loop
PUBLIC	?cdda_play@@YA_NH@Z				; cdda_play
PUBLIC	?cdda_stop@@YA_NXZ				; cdda_stop
PUBLIC	?play_se@@YAHHHH@Z				; play_se
PUBLIC	?play_bgm@@YAHH@Z				; play_bgm
PUBLIC	?bgm_volume_change@@YAXXZ			; bgm_volume_change
PUBLIC	?set_gbm_pitch@@YAXXZ				; set_gbm_pitch
PUBLIC	?stop_bgm@@YAXXZ				; stop_bgm
PUBLIC	?fade_out_bgm@@YAXXZ				; fade_out_bgm
PUBLIC	?play_environment@@YAHHHH@Z			; play_environment
PUBLIC	?play_map_bgm@@YAHH@Z				; play_map_bgm
PUBLIC	___local_stdio_printf_options
PUBLIC	_sprintf
PUBLIC	?LoadWave@@YAHPBDAAPAUtWAVEFORMATEX@@AAPAEAAK@Z	; LoadWave
PUBLIC	?CreateSoundData@@YAHPBDAAPAUIDirectSoundBuffer@@@Z ; CreateSoundData
PUBLIC	?f_get@@YAHPAU_iobuf@@@Z			; f_get
PUBLIC	?get_num@@YAHPAU_iobuf@@@Z			; get_num
PUBLIC	?num_check@@YAHPAU_iobuf@@@Z			; num_check
PUBLIC	?InitDSound@@YAHXZ				; InitDSound
PUBLIC	?stop_thread@@YAXXZ				; stop_thread
PUBLIC	?EndApp@@YAHXZ					; EndApp
PUBLIC	?get_num2@@YAHPAU_iobuf@@@Z			; get_num2
PUBLIC	?num_check2@@YAHPAU_iobuf@@@Z			; num_check2
PUBLIC	?get_step@@YAHPAU_iobuf@@H@Z			; get_step
PUBLIC	?music_read@@YAHXZ				; music_read
PUBLIC	?music_init@@YAXXZ				; music_init
PUBLIC	?play_stop@@YAXXZ				; play_stop
PUBLIC	?play_start@@YAXXZ				; play_start
PUBLIC	?voice_lfo@@YAXH@Z				; voice_lfo
PUBLIC	?voice_action@@YAXH@Z				; voice_action
PUBLIC	?set_voice_param@@YAXHJHH@Z			; set_voice_param
PUBLIC	?set_tone@@YAHHJHH@Z				; set_tone
PUBLIC	?stop_voice@@YAXXZ				; stop_voice
PUBLIC	?gate@@YAXXZ					; gate
PUBLIC	?music@@YAXXZ					; music
PUBLIC	?Block_Copy@@YAXPAUIDirectSoundBuffer@@KKPAEAAJJ@Z ; Block_Copy
PUBLIC	?MyThreadFunc@@YGKPAX@Z				; MyThreadFunc
PUBLIC	?play_environment_tone@@YAHHH@Z			; play_environment_tone
PUBLIC	?play_map_bgm_check@@YAXXZ			; play_map_bgm_check
PUBLIC	?play_environment_check@@YAXXZ			; play_environment_check
PUBLIC	?bgm_fade_check@@YAXXZ				; bgm_fade_check
PUBLIC	?cdda_open@@YA_NH@Z				; cdda_open
PUBLIC	?cdda_start@@YA_NH@Z				; cdda_start
PUBLIC	?_OptionsStorage@?1??__local_stdio_printf_options@@9@4_KA ; `__local_stdio_printf_options'::`2'::_OptionsStorage
PUBLIC	??_C@_04HFHJMNCD@WAVE@				; `string'
PUBLIC	??_C@_0BD@KCLMPBKD@data?2se?2sap_01?4wav@	; `string'
PUBLIC	??_C@_0BD@CECIIDAN@data?2se?2sap_02?4wav@	; `string'
PUBLIC	??_C@_0BD@OPHEFAKI@data?2se?2sap_03?4wav@	; `string'
PUBLIC	??_C@_0BD@PCHBGABA@data?2se?2sap_04?4wav@	; `string'
PUBLIC	??_C@_0BD@DJCNLDLF@data?2se?2sap_05?4wav@	; `string'
PUBLIC	??_C@_0BD@LPLJMBBL@data?2se?2sap_06?4wav@	; `string'
PUBLIC	??_C@_0BD@HEOFBCLO@data?2se?2sap_07?4wav@	; `string'
PUBLIC	??_C@_0BD@IFLDKAGL@data?2se?2sap_08?4wav@	; `string'
PUBLIC	??_C@_0BD@EOOPHDMO@data?2se?2sap_09?4wav@	; `string'
PUBLIC	??_C@_0BD@MPJHCJLC@data?2se?2sap_10?4wav@	; `string'
PUBLIC	??_C@_0BD@EMLPKBH@data?2se?2sap_11?4wav@	; `string'
PUBLIC	??_C@_0BD@FEAGGLKE@data?2se?2sap_14?4wav@	; `string'
PUBLIC	??_C@_0BD@ICFPIILJ@data?2se?2sap_12?4wav@	; `string'
PUBLIC	??_C@_0BD@EJADFLBM@data?2se?2sap_13?4wav@	; `string'
PUBLIC	??_C@_0BD@EEOLPGJN@data?2se?2sae_01?4wav@	; `string'
PUBLIC	??_C@_0BD@MCHPIEDD@data?2se?2sae_02?4wav@	; `string'
PUBLIC	??_C@_0BD@JCDFHJG@data?2se?2sae_03?4wav@	; `string'
PUBLIC	??_C@_0BD@BECGGHCO@data?2se?2sae_04?4wav@	; `string'
PUBLIC	??_C@_0BD@NPHKLEIL@data?2se?2sae_05?4wav@	; `string'
PUBLIC	??_C@_0BD@FJOOMGCF@data?2se?2sae_06?4wav@	; `string'
PUBLIC	??_C@_0BD@JCLCBFIA@data?2se?2sae_07?4wav@	; `string'
PUBLIC	??_C@_0BD@GDOEKHFF@data?2se?2sae_08?4wav@	; `string'
PUBLIC	??_C@_0BD@KILIHEPA@data?2se?2sae_09?4wav@	; `string'
PUBLIC	??_C@_0BD@CJMACOIM@data?2se?2sae_10?4wav@	; `string'
PUBLIC	??_C@_0BD@OCJMPNCJ@data?2se?2sae_11?4wav@	; `string'
PUBLIC	??_C@_0BD@GEAIIPIH@data?2se?2sae_12?4wav@	; `string'
PUBLIC	??_C@_0BD@KPFEFMCC@data?2se?2sae_13?4wav@	; `string'
PUBLIC	??_C@_0BD@LCFBGMJK@data?2se?2sae_14?4wav@	; `string'
PUBLIC	??_C@_0BD@HJANLPDP@data?2se?2sae_15?4wav@	; `string'
PUBLIC	??_C@_0BD@PPJJMNJB@data?2se?2sae_16?4wav@	; `string'
PUBLIC	??_C@_0BD@DEMFBODE@data?2se?2sae_17?4wav@	; `string'
PUBLIC	??_C@_0BD@MFJDKMOB@data?2se?2sae_18?4wav@	; `string'
PUBLIC	??_C@_0BD@OMPHPEE@data?2se?2sae_19?4wav@	; `string'
PUBLIC	??_C@_0BD@BICIDEBB@data?2se?2sae_20?4wav@	; `string'
PUBLIC	??_C@_0BD@NDHEOHLE@data?2se?2sae_21?4wav@	; `string'
PUBLIC	??_C@_0BD@FFOAJFBK@data?2se?2sae_22?4wav@	; `string'
PUBLIC	??_C@_0BD@JOLMEGLP@data?2se?2sae_23?4wav@	; `string'
PUBLIC	??_C@_0BD@IDLJHGAH@data?2se?2sae_24?4wav@	; `string'
PUBLIC	??_C@_0BD@EIOFKFKC@data?2se?2sae_25?4wav@	; `string'
PUBLIC	??_C@_0BD@MOHBNHAM@data?2se?2sae_26?4wav@	; `string'
PUBLIC	??_C@_0BD@FCNAEKJ@data?2se?2sae_27?4wav@	; `string'
PUBLIC	??_C@_0BD@PEHLLGHM@data?2se?2sae_28?4wav@	; `string'
PUBLIC	??_C@_0BD@DPCHGFNJ@data?2se?2sae_29?4wav@	; `string'
PUBLIC	??_C@_0BD@LOFPDPKF@data?2se?2sae_30?4wav@	; `string'
PUBLIC	??_C@_0BD@HFADOMAA@data?2se?2sae_31?4wav@	; `string'
PUBLIC	??_C@_0BD@PDJHJOKO@data?2se?2sae_32?4wav@	; `string'
PUBLIC	??_C@_0BD@PPDDFEIF@data?2se?2sam_01?4wav@	; `string'
PUBLIC	??_C@_0BD@HJKHCGCL@data?2se?2sam_02?4wav@	; `string'
PUBLIC	??_C@_0BD@LCPLPFIO@data?2se?2sam_03?4wav@	; `string'
PUBLIC	??_C@_0BD@KPPOMFDG@data?2se?2sam_04?4wav@	; `string'
PUBLIC	??_C@_0BD@GEKCBGJD@data?2se?2sam_05?4wav@	; `string'
PUBLIC	??_C@_0BD@OCDGGEDN@data?2se?2sam_06?4wav@	; `string'
PUBLIC	??_C@_0BD@CJGKLHJI@data?2se?2sam_07?4wav@	; `string'
PUBLIC	??_C@_0BD@NIDMAFEN@data?2se?2sam_08?4wav@	; `string'
PUBLIC	??_C@_0BD@BDGANGOI@data?2se?2sam_09?4wav@	; `string'
PUBLIC	??_C@_0BD@JCBIIMJE@data?2se?2sam_10?4wav@	; `string'
PUBLIC	??_C@_0BD@FJEEFPDB@data?2se?2sam_11?4wav@	; `string'
PUBLIC	??_C@_0BD@NPNACNJP@data?2se?2sam_12?4wav@	; `string'
PUBLIC	??_C@_0BD@BEIMPODK@data?2se?2sam_13?4wav@	; `string'
PUBLIC	??_C@_0BD@JIJMOIC@data?2se?2sam_14?4wav@	; `string'
PUBLIC	??_C@_0BD@MCNFBNCH@data?2se?2sam_15?4wav@	; `string'
PUBLIC	??_C@_0BD@EEEBGPIJ@data?2se?2sam_16?4wav@	; `string'
PUBLIC	??_C@_0BD@IPBNLMCM@data?2se?2sam_17?4wav@	; `string'
PUBLIC	??_C@_0BD@HOELAOPJ@data?2se?2sam_18?4wav@	; `string'
PUBLIC	??_C@_0BD@LFBHNNFM@data?2se?2sam_19?4wav@	; `string'
PUBLIC	??_C@_0BD@KDPAJGAJ@data?2se?2sam_20?4wav@	; `string'
PUBLIC	??_C@_0BD@GIKMEFKM@data?2se?2sam_21?4wav@	; `string'
PUBLIC	??_C@_0BD@OODIDHAC@data?2se?2sam_22?4wav@	; `string'
PUBLIC	??_C@_0BD@CFGEOEKH@data?2se?2sam_23?4wav@	; `string'
PUBLIC	??_C@_0BD@DIGBNEBP@data?2se?2sam_24?4wav@	; `string'
PUBLIC	??_C@_0BD@IMCJCNAP@data?2se?2sak_01?4wav@	; `string'
PUBLIC	??_C@_0BD@KLNFPKB@data?2se?2sak_02?4wav@	; `string'
PUBLIC	??_C@_0BD@MBOBIMAE@data?2se?2sak_03?4wav@	; `string'
PUBLIC	??_C@_0BD@NMOELMLM@data?2se?2sak_04?4wav@	; `string'
PUBLIC	??_C@_0BD@BHLIGPBJ@data?2se?2sak_05?4wav@	; `string'
PUBLIC	??_C@_0BD@JBCMBNLH@data?2se?2sak_06?4wav@	; `string'
PUBLIC	??_C@_0BD@FKHAMOBC@data?2se?2sak_07?4wav@	; `string'
PUBLIC	??_C@_0BD@KLCGHMMH@data?2se?2sak_08?4wav@	; `string'
PUBLIC	??_C@_0BE@HNKPAMBO@data?2se?2sak_09a?4wav@	; `string'
PUBLIC	??_C@_0BD@OBACPFBO@data?2se?2sak_10?4wav@	; `string'
PUBLIC	??_C@_0BD@CKFOCGLL@data?2se?2sak_11?4wav@	; `string'
PUBLIC	??_C@_0BD@KMMKFEBF@data?2se?2sak_12?4wav@	; `string'
PUBLIC	??_C@_0BD@GHJGIHLA@data?2se?2sak_13?4wav@	; `string'
PUBLIC	??_C@_0BD@HKJDLHAI@data?2se?2sak_14?4wav@	; `string'
PUBLIC	??_C@_0BD@LBMPGEKN@data?2se?2sak_15?4wav@	; `string'
PUBLIC	??_C@_0BD@DHFLBGAD@data?2se?2sak_16?4wav@	; `string'
PUBLIC	??_C@_0BD@PMAHMFKG@data?2se?2sak_17?4wav@	; `string'
PUBLIC	??_C@_0BE@PLDLHOLA@data?2se?2sak_09b?4wav@	; `string'
PUBLIC	??_C@_0BD@JLDBMNGG@data?2se?2sas_01?4wav@	; `string'
PUBLIC	??_C@_0BD@BNKFLPMI@data?2se?2sas_02?4wav@	; `string'
PUBLIC	??_C@_0BD@NGPJGMGN@data?2se?2sas_03?4wav@	; `string'
PUBLIC	??_C@_0BD@MLPMFMNF@data?2se?2sas_04?4wav@	; `string'
PUBLIC	??_C@_0BD@KAIPHA@data?2se?2sas_05?4wav@		; `string'
PUBLIC	??_C@_0BD@IGDEPNNO@data?2se?2sas_06?4wav@	; `string'
PUBLIC	??_C@_0BD@ENGICOHL@data?2se?2sas_07?4wav@	; `string'
PUBLIC	??_C@_0BD@LMDOJMKO@data?2se?2sas_08?4wav@	; `string'
PUBLIC	??_C@_0BD@HHGCEPAL@data?2se?2sas_09?4wav@	; `string'
PUBLIC	??_C@_0BD@PGBKBFHH@data?2se?2sas_10?4wav@	; `string'
PUBLIC	??_C@_0BD@DNEGMGNC@data?2se?2sas_11?4wav@	; `string'
PUBLIC	??_C@_0BD@LLNCLEHM@data?2se?2sas_12?4wav@	; `string'
PUBLIC	??_C@_0BD@HAIOGHNJ@data?2se?2sas_13?4wav@	; `string'
PUBLIC	??_C@_0BD@KGNHIEME@data?2se?2sas_15?4wav@	; `string'
PUBLIC	??_C@_0BD@CAEDPGGK@data?2se?2sas_16?4wav@	; `string'
PUBLIC	??_C@_0BD@OLBPCFMP@data?2se?2sas_17?4wav@	; `string'
PUBLIC	??_C@_0BD@BKEJJHBK@data?2se?2sas_18?4wav@	; `string'
PUBLIC	??_C@_0BD@NBBFEELP@data?2se?2sas_19?4wav@	; `string'
PUBLIC	??_C@_0BD@MHPCAPOK@data?2se?2sas_20?4wav@	; `string'
PUBLIC	??_C@_0BD@MKONMEP@data?2se?2sas_21?4wav@	; `string'
PUBLIC	??_C@_0BD@FDJAOCNO@data?2se?2sad_01?4wav@	; `string'
PUBLIC	??_C@_0BD@NFAEJAHA@data?2se?2sad_02?4wav@	; `string'
PUBLIC	??_C@_0BD@BOFIEDNF@data?2se?2sad_03?4wav@	; `string'
PUBLIC	??_C@_0BD@DFNHDGN@data?2se?2sad_04?4wav@	; `string'
PUBLIC	??_C@_0BD@MIABKAMI@data?2se?2sad_05?4wav@	; `string'
PUBLIC	??_C@_0BE@PKJHILLA@data?2se?2saam_01?4wav@	; `string'
PUBLIC	??_C@_0BE@HMADPJBO@data?2se?2saam_02?4wav@	; `string'
PUBLIC	??_C@_0BE@LHFPCKLL@data?2se?2saam_03?4wav@	; `string'
PUBLIC	??_C@_0BE@KKFKBKAD@data?2se?2saam_04?4wav@	; `string'
PUBLIC	??_C@_0BE@GBAGMJKG@data?2se?2saam_05?4wav@	; `string'
PUBLIC	??_C@_0BE@OHJCLLAI@data?2se?2saam_06?4wav@	; `string'
PUBLIC	??_C@_0BE@CMMOGIKN@data?2se?2saam_07?4wav@	; `string'
PUBLIC	??_C@_0BE@NNJINKHI@data?2se?2saam_08?4wav@	; `string'
PUBLIC	??_C@_0BE@BGMEAJNN@data?2se?2saam_09?4wav@	; `string'
PUBLIC	??_C@_0BE@JHLMFDKB@data?2se?2saam_10?4wav@	; `string'
PUBLIC	??_C@_0BE@FMOAIAAE@data?2se?2saam_11?4wav@	; `string'
PUBLIC	??_C@_0BE@NKHEPCKK@data?2se?2saam_12?4wav@	; `string'
PUBLIC	??_C@_0BE@BBCICBAP@data?2se?2saam_13?4wav@	; `string'
PUBLIC	??_C@_0BE@MCNBBLH@data?2se?2saam_14?4wav@	; `string'
PUBLIC	??_C@_0BE@MHHBMCBC@data?2se?2saam_15?4wav@	; `string'
PUBLIC	??_C@_0BE@EBOFLALM@data?2se?2saam_16?4wav@	; `string'
PUBLIC	??_C@_0BE@IKLJGDBJ@data?2se?2saam_17?4wav@	; `string'
PUBLIC	??_C@_0BE@HLOPNBMM@data?2se?2saam_18?4wav@	; `string'
PUBLIC	??_C@_0BE@LALDACGJ@data?2se?2saam_19?4wav@	; `string'
PUBLIC	??_C@_0BE@KGFEEJDM@data?2se?2saam_20?4wav@	; `string'
PUBLIC	??_C@_0BE@GNAIJKJJ@data?2se?2saam_21?4wav@	; `string'
PUBLIC	??_C@_0BE@OLJMOIDH@data?2se?2saam_22?4wav@	; `string'
PUBLIC	??_C@_0BE@CAMADLJC@data?2se?2saam_23?4wav@	; `string'
PUBLIC	??_C@_0BE@DNMFALCK@data?2se?2saam_24?4wav@	; `string'
PUBLIC	??_C@_0BE@PGJJNIIP@data?2se?2saam_25?4wav@	; `string'
PUBLIC	??_C@_0BE@HAANKKCB@data?2se?2saam_26?4wav@	; `string'
PUBLIC	??_C@_0BE@LLFBHJIE@data?2se?2saam_27?4wav@	; `string'
PUBLIC	??_C@_0BD@GLFFOGOH@data?2se?2sa1_01?4wav@	; `string'
PUBLIC	??_C@_0BD@ONMBJEEJ@data?2se?2sa1_02?4wav@	; `string'
PUBLIC	??_C@_0BD@FCNINKCC@data?2se?2sa2_01?4wav@	; `string'
PUBLIC	??_C@_0BD@NEEMKIIM@data?2se?2sa2_02?4wav@	; `string'
PUBLIC	??_C@_0BD@BPBAHLCJ@data?2se?2sa2_03?4wav@	; `string'
PUBLIC	??_C@_0BD@CBFELJB@data?2se?2sa2_04?4wav@	; `string'
PUBLIC	??_C@_0BD@MJEJJIDE@data?2se?2sa2_05?4wav@	; `string'
PUBLIC	??_C@_0BD@EPNNOKJK@data?2se?2sa2_06?4wav@	; `string'
PUBLIC	??_C@_0BD@IEIBDJDP@data?2se?2sa2_07?4wav@	; `string'
PUBLIC	??_C@_0BD@HFNHILOK@data?2se?2sa2_08?4wav@	; `string'
PUBLIC	??_C@_0BD@LOILFIEP@data?2se?2sa2_09?4wav@	; `string'
PUBLIC	??_C@_0BD@DPPDACDD@data?2se?2sa2_10?4wav@	; `string'
PUBLIC	??_C@_0BD@EFKDMOGB@data?2se?2sa3_01?4wav@	; `string'
PUBLIC	??_C@_0BD@MDDHLMMP@data?2se?2sa3_02?4wav@	; `string'
PUBLIC	??_C@_0BD@IGLGPGK@data?2se?2sa3_03?4wav@	; `string'
PUBLIC	??_C@_0BD@BFGOFPNC@data?2se?2sa3_04?4wav@	; `string'
PUBLIC	??_C@_0BD@NODCIMHH@data?2se?2sa3_05?4wav@	; `string'
PUBLIC	??_C@_0BD@FIKGPONJ@data?2se?2sa3_06?4wav@	; `string'
PUBLIC	??_C@_0BD@JDPKCNHM@data?2se?2sa3_07?4wav@	; `string'
PUBLIC	??_C@_0BD@CGJNEHOM@data?2se?2sa1_03?4wav@	; `string'
PUBLIC	??_C@_0BD@DLJIHHFE@data?2se?2sa1_04?4wav@	; `string'
PUBLIC	??_C@_0BD@PAMEKEPB@data?2se?2sa1_05?4wav@	; `string'
PUBLIC	??_C@_0BD@HGFANGFP@data?2se?2sa1_06?4wav@	; `string'
PUBLIC	??_C@_0BD@LNAMAFPK@data?2se?2sa1_07?4wav@	; `string'
PUBLIC	??_C@_0BD@EMFKLHCP@data?2se?2sa1_08?4wav@	; `string'
PUBLIC	??_C@_0BD@IHAGGEIK@data?2se?2sa1_09?4wav@	; `string'
PUBLIC	??_C@_0BD@GHODOPG@data?2se?2sa1_10?4wav@	; `string'
PUBLIC	??_C@_0BD@MNCCONFD@data?2se?2sa1_11?4wav@	; `string'
PUBLIC	??_C@_0BD@ELLGJPPN@data?2se?2sa1_12?4wav@	; `string'
PUBLIC	??_C@_0BD@GCKMJPKJ@data?2se?2sa3_08?4wav@	; `string'
PUBLIC	??_C@_0BD@KJPAEMAM@data?2se?2sa3_09?4wav@	; `string'
PUBLIC	??_C@_0BD@IAOKEMFI@data?2se?2sa1_13?4wav@	; `string'
PUBLIC	??_C@_0BD@JNOPHMOA@data?2se?2sa1_14?4wav@	; `string'
PUBLIC	??_C@_0BD@FGLDKPEF@data?2se?2sa1_15?4wav@	; `string'
PUBLIC	??_C@_0BD@NACHNNOL@data?2se?2sa1_16?4wav@	; `string'
PUBLIC	??_C@_0BD@BLHLAOEO@data?2se?2sa1_17?4wav@	; `string'
PUBLIC	??_C@_0BD@OKCNLMJL@data?2se?2sa1_18?4wav@	; `string'
PUBLIC	??_C@_0BD@CBHBGPDO@data?2se?2sa1_19?4wav@	; `string'
PUBLIC	??_C@_0BD@DHJGCEGL@data?2se?2sa1_20?4wav@	; `string'
PUBLIC	??_C@_0BD@PMMKPHMO@data?2se?2sa1_21?4wav@	; `string'
PUBLIC	??_C@_0BD@HKFOIFGA@data?2se?2sa1_22?4wav@	; `string'
PUBLIC	??_C@_0BD@LBACFGMF@data?2se?2sa1_23?4wav@	; `string'
PUBLIC	??_C@_0BD@HCDLKDDI@data?2se?2sa2_12?4wav@	; `string'
PUBLIC	??_C@_0BD@BJGEFDLL@data?2se?2sax_01?4wav@	; `string'
PUBLIC	??_C@_0BD@JPPACBBF@data?2se?2sax_02?4wav@	; `string'
PUBLIC	??_C@_0BD@FEKMPCLA@data?2se?2sax_03?4wav@	; `string'
PUBLIC	??_C@_0BD@BJLBGINM@data?2se?2sak_91?4wav@	; `string'
PUBLIC	??_C@_0BD@FEHJMJNH@data?2se?2sak_93?4wav@	; `string'
PUBLIC	??_C@_0BD@EJHMPJGP@data?2se?2sak_94?4wav@	; `string'
PUBLIC	??_C@_02JDPG@rb@				; `string'
PUBLIC	??_C@_01KDCPPGHE@r@				; `string'
PUBLIC	??_C@_07NFDJGGOK@oft?4mml@			; `string'
PUBLIC	??_C@_02DKCKIIND@?$CFs@				; `string'
PUBLIC	??_C@_0M@EFJNBEIB@?p?$KP?5?$CFd?5?z?$LM?5?$CFs@	; `string'
PUBLIC	??_C@_0N@MJJPGILB@?p?$KP?5?$CFd?5?k?e?$DP?5?$CFs@ ; `string'
PUBLIC	??_C@_0O@PAAFIOGP@map?2bgm?$CFd?4dat@		; `string'
PUBLIC	??_C@_02DPKJAMEF@?$CFd@				; `string'
PUBLIC	??_C@_03CCKOKKND@rb?$CL@			; `string'
PUBLIC	??_C@_03HBNNNHNM@map@				; `string'
PUBLIC	??_C@_02GMLFBBN@wb@				; `string'
PUBLIC	??_C@_07FIPNLLOL@cdaudio@			; `string'
PUBLIC	__real@3ff0000000000000
PUBLIC	__real@4059000000000000
PUBLIC	__real@405fc00000000000
PUBLIC	__real@40b3880000000000
PUBLIC	__real@40c3880000000000
PUBLIC	__real@42f00000
PUBLIC	__real@4644e000
PUBLIC	__real@c003880000000000
PUBLIC	__xmm@00000001000000010000000100000001
PUBLIC	__xmm@00000004000000040000000400000004
PUBLIC	__xmm@00000008000000080000000800000008
PUBLIC	__xmm@00000030000000300000003000000030
PUBLIC	__xmm@ffffffffffffffffffffffffffffffff
EXTRN	__imp__QueryPerformanceCounter@4:PROC
EXTRN	__imp__CreateEventA@16:PROC
EXTRN	__imp__Sleep@4:PROC
EXTRN	__imp__WaitForMultipleObjects@16:PROC
EXTRN	__imp__CreateThread@24:PROC
EXTRN	__imp__ExitThread@4:PROC
EXTRN	__imp__LoadResource@8:PROC
EXTRN	__imp__LockResource@4:PROC
EXTRN	__imp__FindResourceA@12:PROC
EXTRN	__imp__GetAsyncKeyState@4:PROC
EXTRN	__imp__mciSendCommandA@16:PROC
EXTRN	__imp__mmioOpenA@12:PROC
EXTRN	__imp__mmioClose@8:PROC
EXTRN	__imp__mmioRead@12:PROC
EXTRN	__imp__mmioDescend@16:PROC
EXTRN	__imp__mmioAscend@12:PROC
EXTRN	__mkdir:PROC
EXTRN	?TimeGetTime@@YAIXZ:PROC			; TimeGetTime
EXTRN	_DirectSoundCreate@12:PROC
EXTRN	_fclose:PROC
EXTRN	_fgetc:PROC
EXTRN	_fopen:PROC
EXTRN	_fseek:PROC
EXTRN	_fwrite:PROC
EXTRN	___stdio_common_vsprintf:PROC
EXTRN	@__security_check_cookie@4:PROC
EXTRN	__chkstk:PROC
EXTRN	__libm_sse2_log_precise:PROC
EXTRN	__libm_sse2_sqrt_precise:PROC
EXTRN	_memcpy:PROC
EXTRN	_memset:PROC
EXTRN	?SaTimeZoneNo@@3HA:DWORD			; SaTimeZoneNo
EXTRN	?sCharSide@@3HA:DWORD				; sCharSide
EXTRN	?NowTime@@3KA:DWORD				; NowTime
EXTRN	_IID_IDirectSoundNotify:BYTE
EXTRN	?hWnd@@3PAUHWND__@@A:DWORD			; hWnd
EXTRN	___security_cookie:DWORD
EXTRN	__fltused:DWORD
;	COMDAT ?_OptionsStorage@?1??__local_stdio_printf_options@@9@4_KA
_BSS	SEGMENT
?_OptionsStorage@?1??__local_stdio_printf_options@@9@4_KA DQ 01H DUP (?) ; `__local_stdio_printf_options'::`2'::_OptionsStorage
_BSS	ENDS
_BSS	SEGMENT
?map_bgm_vct_no@@3HA DD 01H DUP (?)			; map_bgm_vct_no
?pDSbuffData@@3PAEA DD 01H DUP (?)			; pDSbuffData
?exit_thread_flg@@3DC DB 01H DUP (?)			; exit_thread_flg
	ALIGN	4

?thread_loop_start@@3HA DD 01H DUP (?)			; thread_loop_start
?thread_stop_flg@@3HA DD 01H DUP (?)			; thread_stop_flg
?pDSNotify@@3PAUIDirectSoundNotify@@A DD 01H DUP (?)	; pDSNotify
?stream_flg@@3DA DB 01H DUP (?)				; stream_flg
	ALIGN	8

?d_cnt@@3T_LARGE_INTEGER@@A DQ 01H DUP (?)		; d_cnt
?ch@@3HA DD	01H DUP (?)				; ch
?step_time@@3PAHA DD 020H DUP (?)			; step_time
?gate_time@@3PAHA DD 020H DUP (?)			; gate_time
?d_pedal@@3PAHA DD 020H DUP (?)				; d_pedal
?wave@@3PAHA DD	020H DUP (?)				; wave
?step_point@@3PAHA DD 020H DUP (?)			; step_point
?step_def@@3PAHA DD 020H DUP (?)			; step_def
?play_flg@@3PAHA DD 020H DUP (?)			; play_flg
?play_track_flg@@3PAHA DD 020H DUP (?)			; play_track_flg
?play_kuri_num@@3PAY0CA@HA DD 0100H DUP (?)		; play_kuri_num
?play_kuri_lv@@3PAHA DD 020H DUP (?)			; play_kuri_lv
?play_use_task@@3PAY07HA DD 0100H DUP (?)		; play_use_task
?dataToneNo@@3PAHA DD 020H DUP (?)			; dataToneNo
?tie_flg@@3PAHA DD 020H DUP (?)				; tie_flg
?note_old@@3PAY07HA DD 0100H DUP (?)			; note_old
?play_use_task_cnt@@3PAHA DD 020H DUP (?)		; play_use_task_cnt
?play_detune@@3PAHA DD 020H DUP (?)			; play_detune
?play_lfo_h@@3PAHA DD 020H DUP (?)			; play_lfo_h
?play_lfo_m@@3PAHA DD 020H DUP (?)			; play_lfo_m
?play_lfo_s@@3PAHA DD 020H DUP (?)			; play_lfo_s
?pause_flg@@3HA DD 01H DUP (?)				; pause_flg
?tempo@@3T_LARGE_INTEGER@@A DQ 01H DUP (?)		; tempo
?step@@3PAY0EAAA@HA DD 080000H DUP (?)			; step
?volume_tbl@@3PAJA DD 080H DUP (?)			; volume_tbl
?panpot_tbl@@3PAJA DD 080H DUP (?)			; panpot_tbl
?detune_tbl@@3PAHA DD 041H DUP (?)			; detune_tbl
?voice_seek_point@@3HA DD 01H DUP (?)			; voice_seek_point
?wave_count@@3JA DD 01H DUP (?)				; wave_count
?wave_address@@3JA DD 01H DUP (?)			; wave_address
?buffer_address@@3JA DD 01H DUP (?)			; buffer_address
?thread_start_flg@@3HC DD 01H DUP (?)			; thread_start_flg
?open@@3UtagMCI_OPEN_PARMSA@@A DB 014H DUP (?)		; open
?dwRes@@3KA DD	01H DUP (?)				; dwRes
?cdda_flg@@3HA DD 01H DUP (?)				; cdda_flg
_BSS	ENDS
;	COMDAT __xmm@ffffffffffffffffffffffffffffffff
CONST	SEGMENT
__xmm@ffffffffffffffffffffffffffffffff DB 0ffH, 0ffH, 0ffH, 0ffH, 0ffH, 0ffH
	DB	0ffH, 0ffH, 0ffH, 0ffH, 0ffH, 0ffH, 0ffH, 0ffH, 0ffH, 0ffH
CONST	ENDS
;	COMDAT __xmm@00000030000000300000003000000030
CONST	SEGMENT
__xmm@00000030000000300000003000000030 DB '0', 00H, 00H, 00H, '0', 00H, 00H
	DB	00H, '0', 00H, 00H, 00H, '0', 00H, 00H, 00H
CONST	ENDS
;	COMDAT __xmm@00000008000000080000000800000008
CONST	SEGMENT
__xmm@00000008000000080000000800000008 DB 08H, 00H, 00H, 00H, 08H, 00H, 00H
	DB	00H, 08H, 00H, 00H, 00H, 08H, 00H, 00H, 00H
CONST	ENDS
;	COMDAT __xmm@00000004000000040000000400000004
CONST	SEGMENT
__xmm@00000004000000040000000400000004 DB 04H, 00H, 00H, 00H, 04H, 00H, 00H
	DB	00H, 04H, 00H, 00H, 00H, 04H, 00H, 00H, 00H
CONST	ENDS
;	COMDAT __xmm@00000001000000010000000100000001
CONST	SEGMENT
__xmm@00000001000000010000000100000001 DB 01H, 00H, 00H, 00H, 01H, 00H, 00H
	DB	00H, 01H, 00H, 00H, 00H, 01H, 00H, 00H, 00H
CONST	ENDS
;	COMDAT __real@c003880000000000
CONST	SEGMENT
__real@c003880000000000 DQ 0c003880000000000r	; -2.44141
CONST	ENDS
;	COMDAT __real@4644e000
CONST	SEGMENT
__real@4644e000 DD 04644e000r			; 12600
CONST	ENDS
;	COMDAT __real@42f00000
CONST	SEGMENT
__real@42f00000 DD 042f00000r			; 120
CONST	ENDS
;	COMDAT __real@40c3880000000000
CONST	SEGMENT
__real@40c3880000000000 DQ 040c3880000000000r	; 10000
CONST	ENDS
;	COMDAT __real@40b3880000000000
CONST	SEGMENT
__real@40b3880000000000 DQ 040b3880000000000r	; 5000
CONST	ENDS
;	COMDAT __real@405fc00000000000
CONST	SEGMENT
__real@405fc00000000000 DQ 0405fc00000000000r	; 127
CONST	ENDS
;	COMDAT __real@4059000000000000
CONST	SEGMENT
__real@4059000000000000 DQ 04059000000000000r	; 100
CONST	ENDS
;	COMDAT __real@3ff0000000000000
CONST	SEGMENT
__real@3ff0000000000000 DQ 03ff0000000000000r	; 1
CONST	ENDS
;	COMDAT ??_C@_07FIPNLLOL@cdaudio@
CONST	SEGMENT
??_C@_07FIPNLLOL@cdaudio@ DB 'cdaudio', 00H		; `string'
CONST	ENDS
;	COMDAT ??_C@_02GMLFBBN@wb@
CONST	SEGMENT
??_C@_02GMLFBBN@wb@ DB 'wb', 00H			; `string'
CONST	ENDS
;	COMDAT ??_C@_03HBNNNHNM@map@
CONST	SEGMENT
??_C@_03HBNNNHNM@map@ DB 'map', 00H			; `string'
CONST	ENDS
;	COMDAT ??_C@_03CCKOKKND@rb?$CL@
CONST	SEGMENT
??_C@_03CCKOKKND@rb?$CL@ DB 'rb+', 00H			; `string'
CONST	ENDS
;	COMDAT ??_C@_02DPKJAMEF@?$CFd@
CONST	SEGMENT
??_C@_02DPKJAMEF@?$CFd@ DB '%d', 00H			; `string'
CONST	ENDS
;	COMDAT ??_C@_0O@PAAFIOGP@map?2bgm?$CFd?4dat@
CONST	SEGMENT
??_C@_0O@PAAFIOGP@map?2bgm?$CFd?4dat@ DB 'map\bgm%d.dat', 00H ; `string'
CONST	ENDS
;	COMDAT ??_C@_0N@MJJPGILB@?p?$KP?5?$CFd?5?k?e?$DP?5?$CFs@
CONST	SEGMENT
??_C@_0N@MJJPGILB@?p?$KP?5?$CFd?5?k?e?$DP?5?$CFs@ DB 0f0H, 0afH, ' %d ', 0ebH
	DB	0e5H, '? %s', 00H				; `string'
CONST	ENDS
;	COMDAT ??_C@_0M@EFJNBEIB@?p?$KP?5?$CFd?5?z?$LM?5?$CFs@
CONST	SEGMENT
??_C@_0M@EFJNBEIB@?p?$KP?5?$CFd?5?z?$LM?5?$CFs@ DB 0f0H, 0afH, ' %d ', 0faH
	DB	0bcH, ' %s', 00H				; `string'
CONST	ENDS
;	COMDAT ??_C@_02DKCKIIND@?$CFs@
CONST	SEGMENT
??_C@_02DKCKIIND@?$CFs@ DB '%s', 00H			; `string'
CONST	ENDS
;	COMDAT ??_C@_07NFDJGGOK@oft?4mml@
CONST	SEGMENT
??_C@_07NFDJGGOK@oft?4mml@ DB 'oft.mml', 00H		; `string'
CONST	ENDS
;	COMDAT ??_C@_01KDCPPGHE@r@
CONST	SEGMENT
??_C@_01KDCPPGHE@r@ DB 'r', 00H				; `string'
CONST	ENDS
_DATA	SEGMENT
?err_msg@@3PAPADA DD FLAT:??_C@_08LOOFPHBM@?$DP?d?P?$DP?$DP?c?w?$DP@ ; err_msg
	DD	FLAT:??_C@_0N@INFHKGBA@?$KD?S?$KD?t?$KD?e?$KD?p?$DP?$DP?$DP?$DP@
	DD	FLAT:??_C@_09JCKPJEPE@?k?e?$DP?r?$KG?o?R?$DP?$DP@
	DD	FLAT:??_C@_08IOICGCMD@?$KD?L?r?$KG?V?$LF?$DP?$DP@
	DD	FLAT:??_C@_08CBNMEIFN@?$KD?T?r?$KG?V?$LF?$DP?$DP@
	DD	FLAT:??_C@_08GDPJEPCA@?$KD?V?r?$KG?V?$LF?$DP?$DP@
	DD	FLAT:??_C@_0L@POFHDIIK@?$KD?$MA?$KD?V?r?$KG?V?$LF?$DP?$DP@
	DD	FLAT:??_C@_0L@DIDIDBAN@?$KD?$MA?$KD?P?r?$KG?V?$LF?$DP?$DP@
	DD	FLAT:??_C@_0L@ICOMAJKB@?$KD?$MA?$KD?F?r?$KG?V?$LF?$DP?$DP@
	DD	FLAT:??_C@_08NJCNHHIM@?$KD?$MA?r?$KG?V?$LF?$DP?$DP@
	DD	FLAT:??_C@_0P@BPNGJDFB@?$KD?C?$KD?o?$KD?o?$KD?k?r?$KG?V?$LF?$DP?$DP@
	DD	FLAT:??_C@_08ICLMPPGO@?$KD?M?$KD?M?$KD?L?$DP?$DP@
	DD	FLAT:??_C@_0L@MAMJAONM@?$KD?$MA?$KD?D?r?$KG?V?$LF?$DP?$DP@
	DD	FLAT:??_C@_0L@NLIJCIGI@?q?$LC?w?n?$DP?u?$LB?$DP?$DP?$DP@
	DD	FLAT:??_C@_0O@BDPOMKKB@?f?Q?q?$LE?k?e?$DP?r?$KG?o?R?$DP?$DP@
	DD	FLAT:??_C@_0N@PMDODFEN@?Z?c?$DP?$DP?$NL?$KP?r?$KG?V?$LF?$DP?$DP@
	DD	FLAT:??_C@_0M@KADLMLCJ@?Z?c?$DP?$DP?$NL?$KP?$DP?$NM?t?y?j@
	DD	FLAT:??_C@_0L@KBDAPCLE@?$DP?k?e?$DP?r?$KG?o?R?$DP?$DP@
	DD	FLAT:??_C@_0L@DCPNDIBE@?$KD?$MA?$KD?W?r?$KG?V?$LF?$DP?$DP@
	DD	FLAT:??_C@_09DBOICEHL@?$DP?q?$LE?r?$KG?V?$LF?$DP?$DP@
	DD	FLAT:??_C@_08GJDMEGDJ@?$KD?Q?r?$KG?V?$LF?$DP?$DP@
	DD	FLAT:??_C@_0L@BJOJBMHA@?$KD?$MA?$KD?K?r?$KG?V?$LF?$DP?$DP@
	DD	FLAT:??_C@_06HJKPLLII@?$PL?z?k?e?$DP?$DP@
	DD	FLAT:??_C@_08NGFCA@?$KD?O?r?$KG?V?$LF?$DP?$DP@
	DD	FLAT:??_C@_0L@JHGGBLJD@?$KD?$MA?$KD?H?r?$KG?V?$LF?$DP?$DP@
	DD	FLAT:??_C@_0L@NPIGBFPH@?$KD?$MA?$KD?M?r?$KG?V?$LF?$DP?$DP@
	DD	FLAT:??_C@_0L@LGLHDGOO@?$KD?$MA?$KD?S?r?$KG?V?$LF?$DP?$DP@
?note_change_tbl@@3PAHA DD 09H				; note_change_tbl
	DD	0bH
	DD	00H
	DD	02H
	DD	04H
	DD	05H
	DD	07H
?freq_tbl@@3PAHA DD 05b4H				; freq_tbl
	DD	0ac4H
	DD	0b68H
	DD	0c15H
	DD	0ccdH
	DD	0d90H
	DD	0e5fH
	DD	0f1aH
	DD	01021H
	DD	01117H
	DD	0121bH
	DD	0132eH
	DD	01452H
	DD	01588H
	DD	016d0H
	DD	0182bH
	DD	0199bH
	DD	01b21H
	DD	01cbeH
	DD	01e34H
	DD	02043H
	DD	0222eH
	DD	02436H
	DD	0265dH
	DD	028a5H
	DD	02b11H
	DD	02da0H
	DD	03057H
	DD	03336H
	DD	03642H
	DD	0397cH
	DD	03c68H
	DD	04086H
	DD	0445dH
	DD	0486dH
	DD	04cbbH
	DD	0514bH
	DD	05622H
	DD	05b40H
	DD	060aeH
	DD	0666dH
	DD	06c84H
	DD	072f8H
	DD	078d1H
	DD	0810dH
	DD	088baH
	DD	090daH
	DD	09977H
	DD	0a297H
	DD	0ac44H
	DD	0b681H
	DD	0c15cH
	DD	0ccdbH
	DD	0d909H
	DD	0e5f1H
	DD	0f1a3H
	DD	01021aH
	DD	011174H
	DD	0121b5H
	DD	0132efH
	DD	01452fH
	DD	015888H
	DD	016d02H
	DD	0182b9H
	DD	0199b7H
	DD	01b213H
	DD	01cbe3H
	DD	01e346H
	DD	020435H
	DD	0222e8H
	DD	02436bH
	DD	0265deH
	DD	028a5fH
_DATA	ENDS
;	COMDAT ??_C@_02JDPG@rb@
CONST	SEGMENT
??_C@_02JDPG@rb@ DB 'rb', 00H				; `string'
CONST	ENDS
;	COMDAT ??_C@_0BD@EJHMPJGP@data?2se?2sak_94?4wav@
CONST	SEGMENT
??_C@_0BD@EJHMPJGP@data?2se?2sak_94?4wav@ DB 'data\se\sak_94.wav', 00H ; `string'
CONST	ENDS
;	COMDAT ??_C@_0BD@FEHJMJNH@data?2se?2sak_93?4wav@
CONST	SEGMENT
??_C@_0BD@FEHJMJNH@data?2se?2sak_93?4wav@ DB 'data\se\sak_93.wav', 00H ; `string'
CONST	ENDS
;	COMDAT ??_C@_0BD@BJLBGINM@data?2se?2sak_91?4wav@
CONST	SEGMENT
??_C@_0BD@BJLBGINM@data?2se?2sak_91?4wav@ DB 'data\se\sak_91.wav', 00H ; `string'
CONST	ENDS
;	COMDAT ??_C@_0BD@FEKMPCLA@data?2se?2sax_03?4wav@
CONST	SEGMENT
??_C@_0BD@FEKMPCLA@data?2se?2sax_03?4wav@ DB 'data\se\sax_03.wav', 00H ; `string'
CONST	ENDS
;	COMDAT ??_C@_0BD@JPPACBBF@data?2se?2sax_02?4wav@
CONST	SEGMENT
??_C@_0BD@JPPACBBF@data?2se?2sax_02?4wav@ DB 'data\se\sax_02.wav', 00H ; `string'
CONST	ENDS
;	COMDAT ??_C@_0BD@BJGEFDLL@data?2se?2sax_01?4wav@
CONST	SEGMENT
??_C@_0BD@BJGEFDLL@data?2se?2sax_01?4wav@ DB 'data\se\sax_01.wav', 00H ; `string'
CONST	ENDS
;	COMDAT ??_C@_0BD@HCDLKDDI@data?2se?2sa2_12?4wav@
CONST	SEGMENT
??_C@_0BD@HCDLKDDI@data?2se?2sa2_12?4wav@ DB 'data\se\sa2_12.wav', 00H ; `string'
CONST	ENDS
;	COMDAT ??_C@_0BD@LBACFGMF@data?2se?2sa1_23?4wav@
CONST	SEGMENT
??_C@_0BD@LBACFGMF@data?2se?2sa1_23?4wav@ DB 'data\se\sa1_23.wav', 00H ; `string'
CONST	ENDS
;	COMDAT ??_C@_0BD@HKFOIFGA@data?2se?2sa1_22?4wav@
CONST	SEGMENT
??_C@_0BD@HKFOIFGA@data?2se?2sa1_22?4wav@ DB 'data\se\sa1_22.wav', 00H ; `string'
CONST	ENDS
;	COMDAT ??_C@_0BD@PMMKPHMO@data?2se?2sa1_21?4wav@
CONST	SEGMENT
??_C@_0BD@PMMKPHMO@data?2se?2sa1_21?4wav@ DB 'data\se\sa1_21.wav', 00H ; `string'
CONST	ENDS
;	COMDAT ??_C@_0BD@DHJGCEGL@data?2se?2sa1_20?4wav@
CONST	SEGMENT
??_C@_0BD@DHJGCEGL@data?2se?2sa1_20?4wav@ DB 'data\se\sa1_20.wav', 00H ; `string'
CONST	ENDS
;	COMDAT ??_C@_0BD@CBHBGPDO@data?2se?2sa1_19?4wav@
CONST	SEGMENT
??_C@_0BD@CBHBGPDO@data?2se?2sa1_19?4wav@ DB 'data\se\sa1_19.wav', 00H ; `string'
CONST	ENDS
;	COMDAT ??_C@_0BD@OKCNLMJL@data?2se?2sa1_18?4wav@
CONST	SEGMENT
??_C@_0BD@OKCNLMJL@data?2se?2sa1_18?4wav@ DB 'data\se\sa1_18.wav', 00H ; `string'
CONST	ENDS
;	COMDAT ??_C@_0BD@BLHLAOEO@data?2se?2sa1_17?4wav@
CONST	SEGMENT
??_C@_0BD@BLHLAOEO@data?2se?2sa1_17?4wav@ DB 'data\se\sa1_17.wav', 00H ; `string'
CONST	ENDS
;	COMDAT ??_C@_0BD@NACHNNOL@data?2se?2sa1_16?4wav@
CONST	SEGMENT
??_C@_0BD@NACHNNOL@data?2se?2sa1_16?4wav@ DB 'data\se\sa1_16.wav', 00H ; `string'
CONST	ENDS
;	COMDAT ??_C@_0BD@FGLDKPEF@data?2se?2sa1_15?4wav@
CONST	SEGMENT
??_C@_0BD@FGLDKPEF@data?2se?2sa1_15?4wav@ DB 'data\se\sa1_15.wav', 00H ; `string'
CONST	ENDS
;	COMDAT ??_C@_0BD@JNOPHMOA@data?2se?2sa1_14?4wav@
CONST	SEGMENT
??_C@_0BD@JNOPHMOA@data?2se?2sa1_14?4wav@ DB 'data\se\sa1_14.wav', 00H ; `string'
CONST	ENDS
;	COMDAT ??_C@_0BD@IAOKEMFI@data?2se?2sa1_13?4wav@
CONST	SEGMENT
??_C@_0BD@IAOKEMFI@data?2se?2sa1_13?4wav@ DB 'data\se\sa1_13.wav', 00H ; `string'
CONST	ENDS
;	COMDAT ??_C@_0BD@KJPAEMAM@data?2se?2sa3_09?4wav@
CONST	SEGMENT
??_C@_0BD@KJPAEMAM@data?2se?2sa3_09?4wav@ DB 'data\se\sa3_09.wav', 00H ; `string'
CONST	ENDS
;	COMDAT ??_C@_0BD@GCKMJPKJ@data?2se?2sa3_08?4wav@
CONST	SEGMENT
??_C@_0BD@GCKMJPKJ@data?2se?2sa3_08?4wav@ DB 'data\se\sa3_08.wav', 00H ; `string'
CONST	ENDS
;	COMDAT ??_C@_0BD@ELLGJPPN@data?2se?2sa1_12?4wav@
CONST	SEGMENT
??_C@_0BD@ELLGJPPN@data?2se?2sa1_12?4wav@ DB 'data\se\sa1_12.wav', 00H ; `string'
CONST	ENDS
;	COMDAT ??_C@_0BD@MNCCONFD@data?2se?2sa1_11?4wav@
CONST	SEGMENT
??_C@_0BD@MNCCONFD@data?2se?2sa1_11?4wav@ DB 'data\se\sa1_11.wav', 00H ; `string'
CONST	ENDS
;	COMDAT ??_C@_0BD@GHODOPG@data?2se?2sa1_10?4wav@
CONST	SEGMENT
??_C@_0BD@GHODOPG@data?2se?2sa1_10?4wav@ DB 'data\se\sa1_10.wav', 00H ; `string'
CONST	ENDS
;	COMDAT ??_C@_0BD@IHAGGEIK@data?2se?2sa1_09?4wav@
CONST	SEGMENT
??_C@_0BD@IHAGGEIK@data?2se?2sa1_09?4wav@ DB 'data\se\sa1_09.wav', 00H ; `string'
CONST	ENDS
;	COMDAT ??_C@_0BD@EMFKLHCP@data?2se?2sa1_08?4wav@
CONST	SEGMENT
??_C@_0BD@EMFKLHCP@data?2se?2sa1_08?4wav@ DB 'data\se\sa1_08.wav', 00H ; `string'
CONST	ENDS
;	COMDAT ??_C@_0BD@LNAMAFPK@data?2se?2sa1_07?4wav@
CONST	SEGMENT
??_C@_0BD@LNAMAFPK@data?2se?2sa1_07?4wav@ DB 'data\se\sa1_07.wav', 00H ; `string'
CONST	ENDS
;	COMDAT ??_C@_0BD@HGFANGFP@data?2se?2sa1_06?4wav@
CONST	SEGMENT
??_C@_0BD@HGFANGFP@data?2se?2sa1_06?4wav@ DB 'data\se\sa1_06.wav', 00H ; `string'
CONST	ENDS
;	COMDAT ??_C@_0BD@PAMEKEPB@data?2se?2sa1_05?4wav@
CONST	SEGMENT
??_C@_0BD@PAMEKEPB@data?2se?2sa1_05?4wav@ DB 'data\se\sa1_05.wav', 00H ; `string'
CONST	ENDS
;	COMDAT ??_C@_0BD@DLJIHHFE@data?2se?2sa1_04?4wav@
CONST	SEGMENT
??_C@_0BD@DLJIHHFE@data?2se?2sa1_04?4wav@ DB 'data\se\sa1_04.wav', 00H ; `string'
CONST	ENDS
;	COMDAT ??_C@_0BD@CGJNEHOM@data?2se?2sa1_03?4wav@
CONST	SEGMENT
??_C@_0BD@CGJNEHOM@data?2se?2sa1_03?4wav@ DB 'data\se\sa1_03.wav', 00H ; `string'
CONST	ENDS
;	COMDAT ??_C@_0BD@JDPKCNHM@data?2se?2sa3_07?4wav@
CONST	SEGMENT
??_C@_0BD@JDPKCNHM@data?2se?2sa3_07?4wav@ DB 'data\se\sa3_07.wav', 00H ; `string'
CONST	ENDS
;	COMDAT ??_C@_0BD@FIKGPONJ@data?2se?2sa3_06?4wav@
CONST	SEGMENT
??_C@_0BD@FIKGPONJ@data?2se?2sa3_06?4wav@ DB 'data\se\sa3_06.wav', 00H ; `string'
CONST	ENDS
;	COMDAT ??_C@_0BD@NODCIMHH@data?2se?2sa3_05?4wav@
CONST	SEGMENT
??_C@_0BD@NODCIMHH@data?2se?2sa3_05?4wav@ DB 'data\se\sa3_05.wav', 00H ; `string'
CONST	ENDS
;	COMDAT ??_C@_0BD@BFGOFPNC@data?2se?2sa3_04?4wav@
CONST	SEGMENT
??_C@_0BD@BFGOFPNC@data?2se?2sa3_04?4wav@ DB 'data\se\sa3_04.wav', 00H ; `string'
CONST	ENDS
;	COMDAT ??_C@_0BD@IGLGPGK@data?2se?2sa3_03?4wav@
CONST	SEGMENT
??_C@_0BD@IGLGPGK@data?2se?2sa3_03?4wav@ DB 'data\se\sa3_03.wav', 00H ; `string'
CONST	ENDS
;	COMDAT ??_C@_0BD@MDDHLMMP@data?2se?2sa3_02?4wav@
CONST	SEGMENT
??_C@_0BD@MDDHLMMP@data?2se?2sa3_02?4wav@ DB 'data\se\sa3_02.wav', 00H ; `string'
CONST	ENDS
;	COMDAT ??_C@_0BD@EFKDMOGB@data?2se?2sa3_01?4wav@
CONST	SEGMENT
??_C@_0BD@EFKDMOGB@data?2se?2sa3_01?4wav@ DB 'data\se\sa3_01.wav', 00H ; `string'
CONST	ENDS
;	COMDAT ??_C@_0BD@DPPDACDD@data?2se?2sa2_10?4wav@
CONST	SEGMENT
??_C@_0BD@DPPDACDD@data?2se?2sa2_10?4wav@ DB 'data\se\sa2_10.wav', 00H ; `string'
CONST	ENDS
;	COMDAT ??_C@_0BD@LOILFIEP@data?2se?2sa2_09?4wav@
CONST	SEGMENT
??_C@_0BD@LOILFIEP@data?2se?2sa2_09?4wav@ DB 'data\se\sa2_09.wav', 00H ; `string'
CONST	ENDS
;	COMDAT ??_C@_0BD@HFNHILOK@data?2se?2sa2_08?4wav@
CONST	SEGMENT
??_C@_0BD@HFNHILOK@data?2se?2sa2_08?4wav@ DB 'data\se\sa2_08.wav', 00H ; `string'
CONST	ENDS
;	COMDAT ??_C@_0BD@IEIBDJDP@data?2se?2sa2_07?4wav@
CONST	SEGMENT
??_C@_0BD@IEIBDJDP@data?2se?2sa2_07?4wav@ DB 'data\se\sa2_07.wav', 00H ; `string'
CONST	ENDS
;	COMDAT ??_C@_0BD@EPNNOKJK@data?2se?2sa2_06?4wav@
CONST	SEGMENT
??_C@_0BD@EPNNOKJK@data?2se?2sa2_06?4wav@ DB 'data\se\sa2_06.wav', 00H ; `string'
CONST	ENDS
;	COMDAT ??_C@_0BD@MJEJJIDE@data?2se?2sa2_05?4wav@
CONST	SEGMENT
??_C@_0BD@MJEJJIDE@data?2se?2sa2_05?4wav@ DB 'data\se\sa2_05.wav', 00H ; `string'
CONST	ENDS
;	COMDAT ??_C@_0BD@CBFELJB@data?2se?2sa2_04?4wav@
CONST	SEGMENT
??_C@_0BD@CBFELJB@data?2se?2sa2_04?4wav@ DB 'data\se\sa2_04.wav', 00H ; `string'
CONST	ENDS
;	COMDAT ??_C@_0BD@BPBAHLCJ@data?2se?2sa2_03?4wav@
CONST	SEGMENT
??_C@_0BD@BPBAHLCJ@data?2se?2sa2_03?4wav@ DB 'data\se\sa2_03.wav', 00H ; `string'
CONST	ENDS
;	COMDAT ??_C@_0BD@NEEMKIIM@data?2se?2sa2_02?4wav@
CONST	SEGMENT
??_C@_0BD@NEEMKIIM@data?2se?2sa2_02?4wav@ DB 'data\se\sa2_02.wav', 00H ; `string'
CONST	ENDS
;	COMDAT ??_C@_0BD@FCNINKCC@data?2se?2sa2_01?4wav@
CONST	SEGMENT
??_C@_0BD@FCNINKCC@data?2se?2sa2_01?4wav@ DB 'data\se\sa2_01.wav', 00H ; `string'
CONST	ENDS
;	COMDAT ??_C@_0BD@ONMBJEEJ@data?2se?2sa1_02?4wav@
CONST	SEGMENT
??_C@_0BD@ONMBJEEJ@data?2se?2sa1_02?4wav@ DB 'data\se\sa1_02.wav', 00H ; `string'
CONST	ENDS
;	COMDAT ??_C@_0BD@GLFFOGOH@data?2se?2sa1_01?4wav@
CONST	SEGMENT
??_C@_0BD@GLFFOGOH@data?2se?2sa1_01?4wav@ DB 'data\se\sa1_01.wav', 00H ; `string'
CONST	ENDS
;	COMDAT ??_C@_0BE@LLFBHJIE@data?2se?2saam_27?4wav@
CONST	SEGMENT
??_C@_0BE@LLFBHJIE@data?2se?2saam_27?4wav@ DB 'data\se\saam_27.wav', 00H ; `string'
CONST	ENDS
;	COMDAT ??_C@_0BE@HAANKKCB@data?2se?2saam_26?4wav@
CONST	SEGMENT
??_C@_0BE@HAANKKCB@data?2se?2saam_26?4wav@ DB 'data\se\saam_26.wav', 00H ; `string'
CONST	ENDS
;	COMDAT ??_C@_0BE@PGJJNIIP@data?2se?2saam_25?4wav@
CONST	SEGMENT
??_C@_0BE@PGJJNIIP@data?2se?2saam_25?4wav@ DB 'data\se\saam_25.wav', 00H ; `string'
CONST	ENDS
;	COMDAT ??_C@_0BE@DNMFALCK@data?2se?2saam_24?4wav@
CONST	SEGMENT
??_C@_0BE@DNMFALCK@data?2se?2saam_24?4wav@ DB 'data\se\saam_24.wav', 00H ; `string'
CONST	ENDS
;	COMDAT ??_C@_0BE@CAMADLJC@data?2se?2saam_23?4wav@
CONST	SEGMENT
??_C@_0BE@CAMADLJC@data?2se?2saam_23?4wav@ DB 'data\se\saam_23.wav', 00H ; `string'
CONST	ENDS
;	COMDAT ??_C@_0BE@OLJMOIDH@data?2se?2saam_22?4wav@
CONST	SEGMENT
??_C@_0BE@OLJMOIDH@data?2se?2saam_22?4wav@ DB 'data\se\saam_22.wav', 00H ; `string'
CONST	ENDS
;	COMDAT ??_C@_0BE@GNAIJKJJ@data?2se?2saam_21?4wav@
CONST	SEGMENT
??_C@_0BE@GNAIJKJJ@data?2se?2saam_21?4wav@ DB 'data\se\saam_21.wav', 00H ; `string'
CONST	ENDS
;	COMDAT ??_C@_0BE@KGFEEJDM@data?2se?2saam_20?4wav@
CONST	SEGMENT
??_C@_0BE@KGFEEJDM@data?2se?2saam_20?4wav@ DB 'data\se\saam_20.wav', 00H ; `string'
CONST	ENDS
;	COMDAT ??_C@_0BE@LALDACGJ@data?2se?2saam_19?4wav@
CONST	SEGMENT
??_C@_0BE@LALDACGJ@data?2se?2saam_19?4wav@ DB 'data\se\saam_19.wav', 00H ; `string'
CONST	ENDS
;	COMDAT ??_C@_0BE@HLOPNBMM@data?2se?2saam_18?4wav@
CONST	SEGMENT
??_C@_0BE@HLOPNBMM@data?2se?2saam_18?4wav@ DB 'data\se\saam_18.wav', 00H ; `string'
CONST	ENDS
;	COMDAT ??_C@_0BE@IKLJGDBJ@data?2se?2saam_17?4wav@
CONST	SEGMENT
??_C@_0BE@IKLJGDBJ@data?2se?2saam_17?4wav@ DB 'data\se\saam_17.wav', 00H ; `string'
CONST	ENDS
;	COMDAT ??_C@_0BE@EBOFLALM@data?2se?2saam_16?4wav@
CONST	SEGMENT
??_C@_0BE@EBOFLALM@data?2se?2saam_16?4wav@ DB 'data\se\saam_16.wav', 00H ; `string'
CONST	ENDS
;	COMDAT ??_C@_0BE@MHHBMCBC@data?2se?2saam_15?4wav@
CONST	SEGMENT
??_C@_0BE@MHHBMCBC@data?2se?2saam_15?4wav@ DB 'data\se\saam_15.wav', 00H ; `string'
CONST	ENDS
;	COMDAT ??_C@_0BE@MCNBBLH@data?2se?2saam_14?4wav@
CONST	SEGMENT
??_C@_0BE@MCNBBLH@data?2se?2saam_14?4wav@ DB 'data\se\saam_14.wav', 00H ; `string'
CONST	ENDS
;	COMDAT ??_C@_0BE@BBCICBAP@data?2se?2saam_13?4wav@
CONST	SEGMENT
??_C@_0BE@BBCICBAP@data?2se?2saam_13?4wav@ DB 'data\se\saam_13.wav', 00H ; `string'
CONST	ENDS
;	COMDAT ??_C@_0BE@NKHEPCKK@data?2se?2saam_12?4wav@
CONST	SEGMENT
??_C@_0BE@NKHEPCKK@data?2se?2saam_12?4wav@ DB 'data\se\saam_12.wav', 00H ; `string'
CONST	ENDS
;	COMDAT ??_C@_0BE@FMOAIAAE@data?2se?2saam_11?4wav@
CONST	SEGMENT
??_C@_0BE@FMOAIAAE@data?2se?2saam_11?4wav@ DB 'data\se\saam_11.wav', 00H ; `string'
CONST	ENDS
;	COMDAT ??_C@_0BE@JHLMFDKB@data?2se?2saam_10?4wav@
CONST	SEGMENT
??_C@_0BE@JHLMFDKB@data?2se?2saam_10?4wav@ DB 'data\se\saam_10.wav', 00H ; `string'
CONST	ENDS
;	COMDAT ??_C@_0BE@BGMEAJNN@data?2se?2saam_09?4wav@
CONST	SEGMENT
??_C@_0BE@BGMEAJNN@data?2se?2saam_09?4wav@ DB 'data\se\saam_09.wav', 00H ; `string'
CONST	ENDS
;	COMDAT ??_C@_0BE@NNJINKHI@data?2se?2saam_08?4wav@
CONST	SEGMENT
??_C@_0BE@NNJINKHI@data?2se?2saam_08?4wav@ DB 'data\se\saam_08.wav', 00H ; `string'
CONST	ENDS
;	COMDAT ??_C@_0BE@CMMOGIKN@data?2se?2saam_07?4wav@
CONST	SEGMENT
??_C@_0BE@CMMOGIKN@data?2se?2saam_07?4wav@ DB 'data\se\saam_07.wav', 00H ; `string'
CONST	ENDS
;	COMDAT ??_C@_0BE@OHJCLLAI@data?2se?2saam_06?4wav@
CONST	SEGMENT
??_C@_0BE@OHJCLLAI@data?2se?2saam_06?4wav@ DB 'data\se\saam_06.wav', 00H ; `string'
CONST	ENDS
;	COMDAT ??_C@_0BE@GBAGMJKG@data?2se?2saam_05?4wav@
CONST	SEGMENT
??_C@_0BE@GBAGMJKG@data?2se?2saam_05?4wav@ DB 'data\se\saam_05.wav', 00H ; `string'
CONST	ENDS
;	COMDAT ??_C@_0BE@KKFKBKAD@data?2se?2saam_04?4wav@
CONST	SEGMENT
??_C@_0BE@KKFKBKAD@data?2se?2saam_04?4wav@ DB 'data\se\saam_04.wav', 00H ; `string'
CONST	ENDS
;	COMDAT ??_C@_0BE@LHFPCKLL@data?2se?2saam_03?4wav@
CONST	SEGMENT
??_C@_0BE@LHFPCKLL@data?2se?2saam_03?4wav@ DB 'data\se\saam_03.wav', 00H ; `string'
CONST	ENDS
;	COMDAT ??_C@_0BE@HMADPJBO@data?2se?2saam_02?4wav@
CONST	SEGMENT
??_C@_0BE@HMADPJBO@data?2se?2saam_02?4wav@ DB 'data\se\saam_02.wav', 00H ; `string'
CONST	ENDS
;	COMDAT ??_C@_0BE@PKJHILLA@data?2se?2saam_01?4wav@
CONST	SEGMENT
??_C@_0BE@PKJHILLA@data?2se?2saam_01?4wav@ DB 'data\se\saam_01.wav', 00H ; `string'
CONST	ENDS
;	COMDAT ??_C@_0BD@MIABKAMI@data?2se?2sad_05?4wav@
CONST	SEGMENT
??_C@_0BD@MIABKAMI@data?2se?2sad_05?4wav@ DB 'data\se\sad_05.wav', 00H ; `string'
CONST	ENDS
;	COMDAT ??_C@_0BD@DFNHDGN@data?2se?2sad_04?4wav@
CONST	SEGMENT
??_C@_0BD@DFNHDGN@data?2se?2sad_04?4wav@ DB 'data\se\sad_04.wav', 00H ; `string'
CONST	ENDS
;	COMDAT ??_C@_0BD@BOFIEDNF@data?2se?2sad_03?4wav@
CONST	SEGMENT
??_C@_0BD@BOFIEDNF@data?2se?2sad_03?4wav@ DB 'data\se\sad_03.wav', 00H ; `string'
CONST	ENDS
;	COMDAT ??_C@_0BD@NFAEJAHA@data?2se?2sad_02?4wav@
CONST	SEGMENT
??_C@_0BD@NFAEJAHA@data?2se?2sad_02?4wav@ DB 'data\se\sad_02.wav', 00H ; `string'
CONST	ENDS
;	COMDAT ??_C@_0BD@FDJAOCNO@data?2se?2sad_01?4wav@
CONST	SEGMENT
??_C@_0BD@FDJAOCNO@data?2se?2sad_01?4wav@ DB 'data\se\sad_01.wav', 00H ; `string'
CONST	ENDS
;	COMDAT ??_C@_0BD@MKONMEP@data?2se?2sas_21?4wav@
CONST	SEGMENT
??_C@_0BD@MKONMEP@data?2se?2sas_21?4wav@ DB 'data\se\sas_21.wav', 00H ; `string'
CONST	ENDS
;	COMDAT ??_C@_0BD@MHPCAPOK@data?2se?2sas_20?4wav@
CONST	SEGMENT
??_C@_0BD@MHPCAPOK@data?2se?2sas_20?4wav@ DB 'data\se\sas_20.wav', 00H ; `string'
CONST	ENDS
;	COMDAT ??_C@_0BD@NBBFEELP@data?2se?2sas_19?4wav@
CONST	SEGMENT
??_C@_0BD@NBBFEELP@data?2se?2sas_19?4wav@ DB 'data\se\sas_19.wav', 00H ; `string'
CONST	ENDS
;	COMDAT ??_C@_0BD@BKEJJHBK@data?2se?2sas_18?4wav@
CONST	SEGMENT
??_C@_0BD@BKEJJHBK@data?2se?2sas_18?4wav@ DB 'data\se\sas_18.wav', 00H ; `string'
CONST	ENDS
;	COMDAT ??_C@_0BD@OLBPCFMP@data?2se?2sas_17?4wav@
CONST	SEGMENT
??_C@_0BD@OLBPCFMP@data?2se?2sas_17?4wav@ DB 'data\se\sas_17.wav', 00H ; `string'
CONST	ENDS
;	COMDAT ??_C@_0BD@CAEDPGGK@data?2se?2sas_16?4wav@
CONST	SEGMENT
??_C@_0BD@CAEDPGGK@data?2se?2sas_16?4wav@ DB 'data\se\sas_16.wav', 00H ; `string'
CONST	ENDS
;	COMDAT ??_C@_0BD@KGNHIEME@data?2se?2sas_15?4wav@
CONST	SEGMENT
??_C@_0BD@KGNHIEME@data?2se?2sas_15?4wav@ DB 'data\se\sas_15.wav', 00H ; `string'
CONST	ENDS
;	COMDAT ??_C@_0BD@HAIOGHNJ@data?2se?2sas_13?4wav@
CONST	SEGMENT
??_C@_0BD@HAIOGHNJ@data?2se?2sas_13?4wav@ DB 'data\se\sas_13.wav', 00H ; `string'
CONST	ENDS
;	COMDAT ??_C@_0BD@LLNCLEHM@data?2se?2sas_12?4wav@
CONST	SEGMENT
??_C@_0BD@LLNCLEHM@data?2se?2sas_12?4wav@ DB 'data\se\sas_12.wav', 00H ; `string'
CONST	ENDS
;	COMDAT ??_C@_0BD@DNEGMGNC@data?2se?2sas_11?4wav@
CONST	SEGMENT
??_C@_0BD@DNEGMGNC@data?2se?2sas_11?4wav@ DB 'data\se\sas_11.wav', 00H ; `string'
CONST	ENDS
;	COMDAT ??_C@_0BD@PGBKBFHH@data?2se?2sas_10?4wav@
CONST	SEGMENT
??_C@_0BD@PGBKBFHH@data?2se?2sas_10?4wav@ DB 'data\se\sas_10.wav', 00H ; `string'
CONST	ENDS
;	COMDAT ??_C@_0BD@HHGCEPAL@data?2se?2sas_09?4wav@
CONST	SEGMENT
??_C@_0BD@HHGCEPAL@data?2se?2sas_09?4wav@ DB 'data\se\sas_09.wav', 00H ; `string'
CONST	ENDS
;	COMDAT ??_C@_0BD@LMDOJMKO@data?2se?2sas_08?4wav@
CONST	SEGMENT
??_C@_0BD@LMDOJMKO@data?2se?2sas_08?4wav@ DB 'data\se\sas_08.wav', 00H ; `string'
CONST	ENDS
;	COMDAT ??_C@_0BD@ENGICOHL@data?2se?2sas_07?4wav@
CONST	SEGMENT
??_C@_0BD@ENGICOHL@data?2se?2sas_07?4wav@ DB 'data\se\sas_07.wav', 00H ; `string'
CONST	ENDS
;	COMDAT ??_C@_0BD@IGDEPNNO@data?2se?2sas_06?4wav@
CONST	SEGMENT
??_C@_0BD@IGDEPNNO@data?2se?2sas_06?4wav@ DB 'data\se\sas_06.wav', 00H ; `string'
CONST	ENDS
;	COMDAT ??_C@_0BD@KAIPHA@data?2se?2sas_05?4wav@
CONST	SEGMENT
??_C@_0BD@KAIPHA@data?2se?2sas_05?4wav@ DB 'data\se\sas_05.wav', 00H ; `string'
CONST	ENDS
;	COMDAT ??_C@_0BD@MLPMFMNF@data?2se?2sas_04?4wav@
CONST	SEGMENT
??_C@_0BD@MLPMFMNF@data?2se?2sas_04?4wav@ DB 'data\se\sas_04.wav', 00H ; `string'
CONST	ENDS
;	COMDAT ??_C@_0BD@NGPJGMGN@data?2se?2sas_03?4wav@
CONST	SEGMENT
??_C@_0BD@NGPJGMGN@data?2se?2sas_03?4wav@ DB 'data\se\sas_03.wav', 00H ; `string'
CONST	ENDS
;	COMDAT ??_C@_0BD@BNKFLPMI@data?2se?2sas_02?4wav@
CONST	SEGMENT
??_C@_0BD@BNKFLPMI@data?2se?2sas_02?4wav@ DB 'data\se\sas_02.wav', 00H ; `string'
CONST	ENDS
;	COMDAT ??_C@_0BD@JLDBMNGG@data?2se?2sas_01?4wav@
CONST	SEGMENT
??_C@_0BD@JLDBMNGG@data?2se?2sas_01?4wav@ DB 'data\se\sas_01.wav', 00H ; `string'
CONST	ENDS
;	COMDAT ??_C@_0BE@PLDLHOLA@data?2se?2sak_09b?4wav@
CONST	SEGMENT
??_C@_0BE@PLDLHOLA@data?2se?2sak_09b?4wav@ DB 'data\se\sak_09b.wav', 00H ; `string'
CONST	ENDS
;	COMDAT ??_C@_0BD@PMAHMFKG@data?2se?2sak_17?4wav@
CONST	SEGMENT
??_C@_0BD@PMAHMFKG@data?2se?2sak_17?4wav@ DB 'data\se\sak_17.wav', 00H ; `string'
CONST	ENDS
;	COMDAT ??_C@_0BD@DHFLBGAD@data?2se?2sak_16?4wav@
CONST	SEGMENT
??_C@_0BD@DHFLBGAD@data?2se?2sak_16?4wav@ DB 'data\se\sak_16.wav', 00H ; `string'
CONST	ENDS
;	COMDAT ??_C@_0BD@LBMPGEKN@data?2se?2sak_15?4wav@
CONST	SEGMENT
??_C@_0BD@LBMPGEKN@data?2se?2sak_15?4wav@ DB 'data\se\sak_15.wav', 00H ; `string'
CONST	ENDS
;	COMDAT ??_C@_0BD@HKJDLHAI@data?2se?2sak_14?4wav@
CONST	SEGMENT
??_C@_0BD@HKJDLHAI@data?2se?2sak_14?4wav@ DB 'data\se\sak_14.wav', 00H ; `string'
CONST	ENDS
;	COMDAT ??_C@_0BD@GHJGIHLA@data?2se?2sak_13?4wav@
CONST	SEGMENT
??_C@_0BD@GHJGIHLA@data?2se?2sak_13?4wav@ DB 'data\se\sak_13.wav', 00H ; `string'
CONST	ENDS
;	COMDAT ??_C@_0BD@KMMKFEBF@data?2se?2sak_12?4wav@
CONST	SEGMENT
??_C@_0BD@KMMKFEBF@data?2se?2sak_12?4wav@ DB 'data\se\sak_12.wav', 00H ; `string'
CONST	ENDS
;	COMDAT ??_C@_0BD@CKFOCGLL@data?2se?2sak_11?4wav@
CONST	SEGMENT
??_C@_0BD@CKFOCGLL@data?2se?2sak_11?4wav@ DB 'data\se\sak_11.wav', 00H ; `string'
CONST	ENDS
;	COMDAT ??_C@_0BD@OBACPFBO@data?2se?2sak_10?4wav@
CONST	SEGMENT
??_C@_0BD@OBACPFBO@data?2se?2sak_10?4wav@ DB 'data\se\sak_10.wav', 00H ; `string'
CONST	ENDS
;	COMDAT ??_C@_0BE@HNKPAMBO@data?2se?2sak_09a?4wav@
CONST	SEGMENT
??_C@_0BE@HNKPAMBO@data?2se?2sak_09a?4wav@ DB 'data\se\sak_09a.wav', 00H ; `string'
CONST	ENDS
;	COMDAT ??_C@_0BD@KLCGHMMH@data?2se?2sak_08?4wav@
CONST	SEGMENT
??_C@_0BD@KLCGHMMH@data?2se?2sak_08?4wav@ DB 'data\se\sak_08.wav', 00H ; `string'
CONST	ENDS
;	COMDAT ??_C@_0BD@FKHAMOBC@data?2se?2sak_07?4wav@
CONST	SEGMENT
??_C@_0BD@FKHAMOBC@data?2se?2sak_07?4wav@ DB 'data\se\sak_07.wav', 00H ; `string'
CONST	ENDS
;	COMDAT ??_C@_0BD@JBCMBNLH@data?2se?2sak_06?4wav@
CONST	SEGMENT
??_C@_0BD@JBCMBNLH@data?2se?2sak_06?4wav@ DB 'data\se\sak_06.wav', 00H ; `string'
CONST	ENDS
;	COMDAT ??_C@_0BD@BHLIGPBJ@data?2se?2sak_05?4wav@
CONST	SEGMENT
??_C@_0BD@BHLIGPBJ@data?2se?2sak_05?4wav@ DB 'data\se\sak_05.wav', 00H ; `string'
CONST	ENDS
;	COMDAT ??_C@_0BD@NMOELMLM@data?2se?2sak_04?4wav@
CONST	SEGMENT
??_C@_0BD@NMOELMLM@data?2se?2sak_04?4wav@ DB 'data\se\sak_04.wav', 00H ; `string'
CONST	ENDS
;	COMDAT ??_C@_0BD@MBOBIMAE@data?2se?2sak_03?4wav@
CONST	SEGMENT
??_C@_0BD@MBOBIMAE@data?2se?2sak_03?4wav@ DB 'data\se\sak_03.wav', 00H ; `string'
CONST	ENDS
;	COMDAT ??_C@_0BD@KLNFPKB@data?2se?2sak_02?4wav@
CONST	SEGMENT
??_C@_0BD@KLNFPKB@data?2se?2sak_02?4wav@ DB 'data\se\sak_02.wav', 00H ; `string'
CONST	ENDS
;	COMDAT ??_C@_0BD@IMCJCNAP@data?2se?2sak_01?4wav@
CONST	SEGMENT
??_C@_0BD@IMCJCNAP@data?2se?2sak_01?4wav@ DB 'data\se\sak_01.wav', 00H ; `string'
CONST	ENDS
;	COMDAT ??_C@_0BD@DIGBNEBP@data?2se?2sam_24?4wav@
CONST	SEGMENT
??_C@_0BD@DIGBNEBP@data?2se?2sam_24?4wav@ DB 'data\se\sam_24.wav', 00H ; `string'
CONST	ENDS
;	COMDAT ??_C@_0BD@CFGEOEKH@data?2se?2sam_23?4wav@
CONST	SEGMENT
??_C@_0BD@CFGEOEKH@data?2se?2sam_23?4wav@ DB 'data\se\sam_23.wav', 00H ; `string'
CONST	ENDS
;	COMDAT ??_C@_0BD@OODIDHAC@data?2se?2sam_22?4wav@
CONST	SEGMENT
??_C@_0BD@OODIDHAC@data?2se?2sam_22?4wav@ DB 'data\se\sam_22.wav', 00H ; `string'
CONST	ENDS
;	COMDAT ??_C@_0BD@GIKMEFKM@data?2se?2sam_21?4wav@
CONST	SEGMENT
??_C@_0BD@GIKMEFKM@data?2se?2sam_21?4wav@ DB 'data\se\sam_21.wav', 00H ; `string'
CONST	ENDS
;	COMDAT ??_C@_0BD@KDPAJGAJ@data?2se?2sam_20?4wav@
CONST	SEGMENT
??_C@_0BD@KDPAJGAJ@data?2se?2sam_20?4wav@ DB 'data\se\sam_20.wav', 00H ; `string'
CONST	ENDS
;	COMDAT ??_C@_0BD@LFBHNNFM@data?2se?2sam_19?4wav@
CONST	SEGMENT
??_C@_0BD@LFBHNNFM@data?2se?2sam_19?4wav@ DB 'data\se\sam_19.wav', 00H ; `string'
CONST	ENDS
;	COMDAT ??_C@_0BD@HOELAOPJ@data?2se?2sam_18?4wav@
CONST	SEGMENT
??_C@_0BD@HOELAOPJ@data?2se?2sam_18?4wav@ DB 'data\se\sam_18.wav', 00H ; `string'
CONST	ENDS
;	COMDAT ??_C@_0BD@IPBNLMCM@data?2se?2sam_17?4wav@
CONST	SEGMENT
??_C@_0BD@IPBNLMCM@data?2se?2sam_17?4wav@ DB 'data\se\sam_17.wav', 00H ; `string'
CONST	ENDS
;	COMDAT ??_C@_0BD@EEEBGPIJ@data?2se?2sam_16?4wav@
CONST	SEGMENT
??_C@_0BD@EEEBGPIJ@data?2se?2sam_16?4wav@ DB 'data\se\sam_16.wav', 00H ; `string'
CONST	ENDS
;	COMDAT ??_C@_0BD@MCNFBNCH@data?2se?2sam_15?4wav@
CONST	SEGMENT
??_C@_0BD@MCNFBNCH@data?2se?2sam_15?4wav@ DB 'data\se\sam_15.wav', 00H ; `string'
CONST	ENDS
;	COMDAT ??_C@_0BD@JIJMOIC@data?2se?2sam_14?4wav@
CONST	SEGMENT
??_C@_0BD@JIJMOIC@data?2se?2sam_14?4wav@ DB 'data\se\sam_14.wav', 00H ; `string'
CONST	ENDS
;	COMDAT ??_C@_0BD@BEIMPODK@data?2se?2sam_13?4wav@
CONST	SEGMENT
??_C@_0BD@BEIMPODK@data?2se?2sam_13?4wav@ DB 'data\se\sam_13.wav', 00H ; `string'
CONST	ENDS
;	COMDAT ??_C@_0BD@NPNACNJP@data?2se?2sam_12?4wav@
CONST	SEGMENT
??_C@_0BD@NPNACNJP@data?2se?2sam_12?4wav@ DB 'data\se\sam_12.wav', 00H ; `string'
CONST	ENDS
;	COMDAT ??_C@_0BD@FJEEFPDB@data?2se?2sam_11?4wav@
CONST	SEGMENT
??_C@_0BD@FJEEFPDB@data?2se?2sam_11?4wav@ DB 'data\se\sam_11.wav', 00H ; `string'
CONST	ENDS
;	COMDAT ??_C@_0BD@JCBIIMJE@data?2se?2sam_10?4wav@
CONST	SEGMENT
??_C@_0BD@JCBIIMJE@data?2se?2sam_10?4wav@ DB 'data\se\sam_10.wav', 00H ; `string'
CONST	ENDS
;	COMDAT ??_C@_0BD@BDGANGOI@data?2se?2sam_09?4wav@
CONST	SEGMENT
??_C@_0BD@BDGANGOI@data?2se?2sam_09?4wav@ DB 'data\se\sam_09.wav', 00H ; `string'
CONST	ENDS
;	COMDAT ??_C@_0BD@NIDMAFEN@data?2se?2sam_08?4wav@
CONST	SEGMENT
??_C@_0BD@NIDMAFEN@data?2se?2sam_08?4wav@ DB 'data\se\sam_08.wav', 00H ; `string'
CONST	ENDS
;	COMDAT ??_C@_0BD@CJGKLHJI@data?2se?2sam_07?4wav@
CONST	SEGMENT
??_C@_0BD@CJGKLHJI@data?2se?2sam_07?4wav@ DB 'data\se\sam_07.wav', 00H ; `string'
CONST	ENDS
;	COMDAT ??_C@_0BD@OCDGGEDN@data?2se?2sam_06?4wav@
CONST	SEGMENT
??_C@_0BD@OCDGGEDN@data?2se?2sam_06?4wav@ DB 'data\se\sam_06.wav', 00H ; `string'
CONST	ENDS
;	COMDAT ??_C@_0BD@GEKCBGJD@data?2se?2sam_05?4wav@
CONST	SEGMENT
??_C@_0BD@GEKCBGJD@data?2se?2sam_05?4wav@ DB 'data\se\sam_05.wav', 00H ; `string'
CONST	ENDS
;	COMDAT ??_C@_0BD@KPPOMFDG@data?2se?2sam_04?4wav@
CONST	SEGMENT
??_C@_0BD@KPPOMFDG@data?2se?2sam_04?4wav@ DB 'data\se\sam_04.wav', 00H ; `string'
CONST	ENDS
;	COMDAT ??_C@_0BD@LCPLPFIO@data?2se?2sam_03?4wav@
CONST	SEGMENT
??_C@_0BD@LCPLPFIO@data?2se?2sam_03?4wav@ DB 'data\se\sam_03.wav', 00H ; `string'
CONST	ENDS
;	COMDAT ??_C@_0BD@HJKHCGCL@data?2se?2sam_02?4wav@
CONST	SEGMENT
??_C@_0BD@HJKHCGCL@data?2se?2sam_02?4wav@ DB 'data\se\sam_02.wav', 00H ; `string'
CONST	ENDS
;	COMDAT ??_C@_0BD@PPDDFEIF@data?2se?2sam_01?4wav@
CONST	SEGMENT
??_C@_0BD@PPDDFEIF@data?2se?2sam_01?4wav@ DB 'data\se\sam_01.wav', 00H ; `string'
CONST	ENDS
;	COMDAT ??_C@_0BD@PDJHJOKO@data?2se?2sae_32?4wav@
CONST	SEGMENT
??_C@_0BD@PDJHJOKO@data?2se?2sae_32?4wav@ DB 'data\se\sae_32.wav', 00H ; `string'
CONST	ENDS
;	COMDAT ??_C@_0BD@HFADOMAA@data?2se?2sae_31?4wav@
CONST	SEGMENT
??_C@_0BD@HFADOMAA@data?2se?2sae_31?4wav@ DB 'data\se\sae_31.wav', 00H ; `string'
CONST	ENDS
;	COMDAT ??_C@_0BD@LOFPDPKF@data?2se?2sae_30?4wav@
CONST	SEGMENT
??_C@_0BD@LOFPDPKF@data?2se?2sae_30?4wav@ DB 'data\se\sae_30.wav', 00H ; `string'
CONST	ENDS
;	COMDAT ??_C@_0BD@DPCHGFNJ@data?2se?2sae_29?4wav@
CONST	SEGMENT
??_C@_0BD@DPCHGFNJ@data?2se?2sae_29?4wav@ DB 'data\se\sae_29.wav', 00H ; `string'
CONST	ENDS
;	COMDAT ??_C@_0BD@PEHLLGHM@data?2se?2sae_28?4wav@
CONST	SEGMENT
??_C@_0BD@PEHLLGHM@data?2se?2sae_28?4wav@ DB 'data\se\sae_28.wav', 00H ; `string'
CONST	ENDS
;	COMDAT ??_C@_0BD@FCNAEKJ@data?2se?2sae_27?4wav@
CONST	SEGMENT
??_C@_0BD@FCNAEKJ@data?2se?2sae_27?4wav@ DB 'data\se\sae_27.wav', 00H ; `string'
CONST	ENDS
;	COMDAT ??_C@_0BD@MOHBNHAM@data?2se?2sae_26?4wav@
CONST	SEGMENT
??_C@_0BD@MOHBNHAM@data?2se?2sae_26?4wav@ DB 'data\se\sae_26.wav', 00H ; `string'
CONST	ENDS
;	COMDAT ??_C@_0BD@EIOFKFKC@data?2se?2sae_25?4wav@
CONST	SEGMENT
??_C@_0BD@EIOFKFKC@data?2se?2sae_25?4wav@ DB 'data\se\sae_25.wav', 00H ; `string'
CONST	ENDS
;	COMDAT ??_C@_0BD@IDLJHGAH@data?2se?2sae_24?4wav@
CONST	SEGMENT
??_C@_0BD@IDLJHGAH@data?2se?2sae_24?4wav@ DB 'data\se\sae_24.wav', 00H ; `string'
CONST	ENDS
;	COMDAT ??_C@_0BD@JOLMEGLP@data?2se?2sae_23?4wav@
CONST	SEGMENT
??_C@_0BD@JOLMEGLP@data?2se?2sae_23?4wav@ DB 'data\se\sae_23.wav', 00H ; `string'
CONST	ENDS
;	COMDAT ??_C@_0BD@FFOAJFBK@data?2se?2sae_22?4wav@
CONST	SEGMENT
??_C@_0BD@FFOAJFBK@data?2se?2sae_22?4wav@ DB 'data\se\sae_22.wav', 00H ; `string'
CONST	ENDS
;	COMDAT ??_C@_0BD@NDHEOHLE@data?2se?2sae_21?4wav@
CONST	SEGMENT
??_C@_0BD@NDHEOHLE@data?2se?2sae_21?4wav@ DB 'data\se\sae_21.wav', 00H ; `string'
CONST	ENDS
;	COMDAT ??_C@_0BD@BICIDEBB@data?2se?2sae_20?4wav@
CONST	SEGMENT
??_C@_0BD@BICIDEBB@data?2se?2sae_20?4wav@ DB 'data\se\sae_20.wav', 00H ; `string'
CONST	ENDS
;	COMDAT ??_C@_0BD@OMPHPEE@data?2se?2sae_19?4wav@
CONST	SEGMENT
??_C@_0BD@OMPHPEE@data?2se?2sae_19?4wav@ DB 'data\se\sae_19.wav', 00H ; `string'
CONST	ENDS
;	COMDAT ??_C@_0BD@MFJDKMOB@data?2se?2sae_18?4wav@
CONST	SEGMENT
??_C@_0BD@MFJDKMOB@data?2se?2sae_18?4wav@ DB 'data\se\sae_18.wav', 00H ; `string'
CONST	ENDS
;	COMDAT ??_C@_0BD@DEMFBODE@data?2se?2sae_17?4wav@
CONST	SEGMENT
??_C@_0BD@DEMFBODE@data?2se?2sae_17?4wav@ DB 'data\se\sae_17.wav', 00H ; `string'
CONST	ENDS
;	COMDAT ??_C@_0BD@PPJJMNJB@data?2se?2sae_16?4wav@
CONST	SEGMENT
??_C@_0BD@PPJJMNJB@data?2se?2sae_16?4wav@ DB 'data\se\sae_16.wav', 00H ; `string'
CONST	ENDS
;	COMDAT ??_C@_0BD@HJANLPDP@data?2se?2sae_15?4wav@
CONST	SEGMENT
??_C@_0BD@HJANLPDP@data?2se?2sae_15?4wav@ DB 'data\se\sae_15.wav', 00H ; `string'
CONST	ENDS
;	COMDAT ??_C@_0BD@LCFBGMJK@data?2se?2sae_14?4wav@
CONST	SEGMENT
??_C@_0BD@LCFBGMJK@data?2se?2sae_14?4wav@ DB 'data\se\sae_14.wav', 00H ; `string'
CONST	ENDS
;	COMDAT ??_C@_0BD@KPFEFMCC@data?2se?2sae_13?4wav@
CONST	SEGMENT
??_C@_0BD@KPFEFMCC@data?2se?2sae_13?4wav@ DB 'data\se\sae_13.wav', 00H ; `string'
CONST	ENDS
;	COMDAT ??_C@_0BD@GEAIIPIH@data?2se?2sae_12?4wav@
CONST	SEGMENT
??_C@_0BD@GEAIIPIH@data?2se?2sae_12?4wav@ DB 'data\se\sae_12.wav', 00H ; `string'
CONST	ENDS
;	COMDAT ??_C@_0BD@OCJMPNCJ@data?2se?2sae_11?4wav@
CONST	SEGMENT
??_C@_0BD@OCJMPNCJ@data?2se?2sae_11?4wav@ DB 'data\se\sae_11.wav', 00H ; `string'
CONST	ENDS
;	COMDAT ??_C@_0BD@CJMACOIM@data?2se?2sae_10?4wav@
CONST	SEGMENT
??_C@_0BD@CJMACOIM@data?2se?2sae_10?4wav@ DB 'data\se\sae_10.wav', 00H ; `string'
CONST	ENDS
;	COMDAT ??_C@_0BD@KILIHEPA@data?2se?2sae_09?4wav@
CONST	SEGMENT
??_C@_0BD@KILIHEPA@data?2se?2sae_09?4wav@ DB 'data\se\sae_09.wav', 00H ; `string'
CONST	ENDS
;	COMDAT ??_C@_0BD@GDOEKHFF@data?2se?2sae_08?4wav@
CONST	SEGMENT
??_C@_0BD@GDOEKHFF@data?2se?2sae_08?4wav@ DB 'data\se\sae_08.wav', 00H ; `string'
CONST	ENDS
;	COMDAT ??_C@_0BD@JCLCBFIA@data?2se?2sae_07?4wav@
CONST	SEGMENT
??_C@_0BD@JCLCBFIA@data?2se?2sae_07?4wav@ DB 'data\se\sae_07.wav', 00H ; `string'
CONST	ENDS
;	COMDAT ??_C@_0BD@FJOOMGCF@data?2se?2sae_06?4wav@
CONST	SEGMENT
??_C@_0BD@FJOOMGCF@data?2se?2sae_06?4wav@ DB 'data\se\sae_06.wav', 00H ; `string'
CONST	ENDS
;	COMDAT ??_C@_0BD@NPHKLEIL@data?2se?2sae_05?4wav@
CONST	SEGMENT
??_C@_0BD@NPHKLEIL@data?2se?2sae_05?4wav@ DB 'data\se\sae_05.wav', 00H ; `string'
CONST	ENDS
;	COMDAT ??_C@_0BD@BECGGHCO@data?2se?2sae_04?4wav@
CONST	SEGMENT
??_C@_0BD@BECGGHCO@data?2se?2sae_04?4wav@ DB 'data\se\sae_04.wav', 00H ; `string'
CONST	ENDS
;	COMDAT ??_C@_0BD@JCDFHJG@data?2se?2sae_03?4wav@
CONST	SEGMENT
??_C@_0BD@JCDFHJG@data?2se?2sae_03?4wav@ DB 'data\se\sae_03.wav', 00H ; `string'
CONST	ENDS
;	COMDAT ??_C@_0BD@MCHPIEDD@data?2se?2sae_02?4wav@
CONST	SEGMENT
??_C@_0BD@MCHPIEDD@data?2se?2sae_02?4wav@ DB 'data\se\sae_02.wav', 00H ; `string'
CONST	ENDS
;	COMDAT ??_C@_0BD@EEOLPGJN@data?2se?2sae_01?4wav@
CONST	SEGMENT
??_C@_0BD@EEOLPGJN@data?2se?2sae_01?4wav@ DB 'data\se\sae_01.wav', 00H ; `string'
CONST	ENDS
;	COMDAT ??_C@_0BD@EJADFLBM@data?2se?2sap_13?4wav@
CONST	SEGMENT
??_C@_0BD@EJADFLBM@data?2se?2sap_13?4wav@ DB 'data\se\sap_13.wav', 00H ; `string'
CONST	ENDS
;	COMDAT ??_C@_0BD@ICFPIILJ@data?2se?2sap_12?4wav@
CONST	SEGMENT
??_C@_0BD@ICFPIILJ@data?2se?2sap_12?4wav@ DB 'data\se\sap_12.wav', 00H ; `string'
CONST	ENDS
;	COMDAT ??_C@_0BD@FEAGGLKE@data?2se?2sap_14?4wav@
CONST	SEGMENT
??_C@_0BD@FEAGGLKE@data?2se?2sap_14?4wav@ DB 'data\se\sap_14.wav', 00H ; `string'
CONST	ENDS
;	COMDAT ??_C@_0BD@EMLPKBH@data?2se?2sap_11?4wav@
CONST	SEGMENT
??_C@_0BD@EMLPKBH@data?2se?2sap_11?4wav@ DB 'data\se\sap_11.wav', 00H ; `string'
CONST	ENDS
;	COMDAT ??_C@_0BD@MPJHCJLC@data?2se?2sap_10?4wav@
CONST	SEGMENT
??_C@_0BD@MPJHCJLC@data?2se?2sap_10?4wav@ DB 'data\se\sap_10.wav', 00H ; `string'
CONST	ENDS
;	COMDAT ??_C@_0BD@EOOPHDMO@data?2se?2sap_09?4wav@
CONST	SEGMENT
??_C@_0BD@EOOPHDMO@data?2se?2sap_09?4wav@ DB 'data\se\sap_09.wav', 00H ; `string'
CONST	ENDS
;	COMDAT ??_C@_0BD@IFLDKAGL@data?2se?2sap_08?4wav@
CONST	SEGMENT
??_C@_0BD@IFLDKAGL@data?2se?2sap_08?4wav@ DB 'data\se\sap_08.wav', 00H ; `string'
CONST	ENDS
;	COMDAT ??_C@_0BD@HEOFBCLO@data?2se?2sap_07?4wav@
CONST	SEGMENT
??_C@_0BD@HEOFBCLO@data?2se?2sap_07?4wav@ DB 'data\se\sap_07.wav', 00H ; `string'
CONST	ENDS
;	COMDAT ??_C@_0BD@LPLJMBBL@data?2se?2sap_06?4wav@
CONST	SEGMENT
??_C@_0BD@LPLJMBBL@data?2se?2sap_06?4wav@ DB 'data\se\sap_06.wav', 00H ; `string'
CONST	ENDS
;	COMDAT ??_C@_0BD@DJCNLDLF@data?2se?2sap_05?4wav@
CONST	SEGMENT
??_C@_0BD@DJCNLDLF@data?2se?2sap_05?4wav@ DB 'data\se\sap_05.wav', 00H ; `string'
CONST	ENDS
;	COMDAT ??_C@_0BD@PCHBGABA@data?2se?2sap_04?4wav@
CONST	SEGMENT
??_C@_0BD@PCHBGABA@data?2se?2sap_04?4wav@ DB 'data\se\sap_04.wav', 00H ; `string'
CONST	ENDS
;	COMDAT ??_C@_0BD@OPHEFAKI@data?2se?2sap_03?4wav@
CONST	SEGMENT
??_C@_0BD@OPHEFAKI@data?2se?2sap_03?4wav@ DB 'data\se\sap_03.wav', 00H ; `string'
CONST	ENDS
;	COMDAT ??_C@_0BD@CECIIDAN@data?2se?2sap_02?4wav@
CONST	SEGMENT
??_C@_0BD@CECIIDAN@data?2se?2sap_02?4wav@ DB 'data\se\sap_02.wav', 00H ; `string'
CONST	ENDS
;	COMDAT ??_C@_0BD@KCLMPBKD@data?2se?2sap_01?4wav@
CONST	SEGMENT
??_C@_0BD@KCLMPBKD@data?2se?2sap_01?4wav@ DB 'data\se\sap_01.wav', 00H ; `string'
CONST	ENDS
;	COMDAT ??_C@_04HFHJMNCD@WAVE@
CONST	SEGMENT
??_C@_04HFHJMNCD@WAVE@ DB 'WAVE', 00H			; `string'
CONST	ENDS
; Function compile flags: /Ogtp
; File C:\Users\gg862\OneDrive\¹ÙÅÁ È­¸é\¸¾Äí¿Ï·á\Client Source Code1.31ÀÏº»\system\t_music.cpp
;	COMDAT ?cdda_start@@YA_NH@Z
_TEXT	SEGMENT
_play$ = -16						; size = 12
__$ArrayPad$ = -4					; size = 4
_n$ = 8							; size = 4
?cdda_start@@YA_NH@Z PROC				; cdda_start, COMDAT

; 3641 : {

  00000	55		 push	 ebp
  00001	8b ec		 mov	 ebp, esp
  00003	83 ec 10	 sub	 esp, 16			; 00000010H
  00006	a1 00 00 00 00	 mov	 eax, DWORD PTR ___security_cookie
  0000b	33 c5		 xor	 eax, ebp
  0000d	89 45 fc	 mov	 DWORD PTR __$ArrayPad$[ebp], eax

; 3642 : 	// ?î??
; 3643 : 		// ???? n??î
; 3644 : 	MCI_PLAY_PARMS play;
; 3645 : 	play.dwFrom = MCI_MAKE_TMSF(n, 0, 0, 0);

  00010	8a 4d 08	 mov	 cl, BYTE PTR _n$[ebp]
  00013	0f b6 c1	 movzx	 eax, cl

; 3646 : 	play.dwTo = MCI_MAKE_TMSF(n + 1, 0, 0, 0);

  00016	fe c1		 inc	 cl
  00018	89 45 f4	 mov	 DWORD PTR _play$[ebp+4], eax
  0001b	0f b6 c1	 movzx	 eax, cl
  0001e	89 45 f8	 mov	 DWORD PTR _play$[ebp+8], eax

; 3647 : 	dwRes = mciSendCommand(open.wDeviceID,

  00021	8d 45 f0	 lea	 eax, DWORD PTR _play$[ebp]
  00024	50		 push	 eax
  00025	6a 0c		 push	 12			; 0000000cH
  00027	68 06 08 00 00	 push	 2054			; 00000806H
  0002c	ff 35 04 00 00
	00		 push	 DWORD PTR ?open@@3UtagMCI_OPEN_PARMSA@@A+4
  00032	ff 15 00 00 00
	00		 call	 DWORD PTR __imp__mciSendCommandA@16
  00038	a3 00 00 00 00	 mov	 DWORD PTR ?dwRes@@3KA, eax

; 3648 : 		MCI_PLAY, MCI_FROM | MCI_TO,
; 3649 : 		(DWORD)&play);
; 3650 : 	if (dwRes)

  0003d	85 c0		 test	 eax, eax
  0003f	74 1a		 je	 SHORT $LN2@cdda_start

; 3651 : 	{
; 3652 : #ifdef  _STONDEBUG_
; 3653 : 		//		MessageBox(hWnd, "??????????????", "??", MB_OK);
; 3654 : #endif
; 3655 : 		cdda_flg = 2;		//????????î§î²

  00041	c7 05 00 00 00
	00 02 00 00 00	 mov	 DWORD PTR ?cdda_flg@@3HA, 2

; 3656 : 		return FALSE;

  0004b	32 c0		 xor	 al, al

; 3657 : 	}
; 3658 : 	return TRUE;
; 3659 : }

  0004d	8b 4d fc	 mov	 ecx, DWORD PTR __$ArrayPad$[ebp]
  00050	33 cd		 xor	 ecx, ebp
  00052	e8 00 00 00 00	 call	 @__security_check_cookie@4
  00057	8b e5		 mov	 esp, ebp
  00059	5d		 pop	 ebp
  0005a	c3		 ret	 0
$LN2@cdda_start:
  0005b	8b 4d fc	 mov	 ecx, DWORD PTR __$ArrayPad$[ebp]
  0005e	b0 01		 mov	 al, 1
  00060	33 cd		 xor	 ecx, ebp
  00062	e8 00 00 00 00	 call	 @__security_check_cookie@4
  00067	8b e5		 mov	 esp, ebp
  00069	5d		 pop	 ebp
  0006a	c3		 ret	 0
?cdda_start@@YA_NH@Z ENDP				; cdda_start
_TEXT	ENDS
; Function compile flags: /Ogtp
; File C:\Users\gg862\OneDrive\¹ÙÅÁ È­¸é\¸¾Äí¿Ï·á\Client Source Code1.31ÀÏº»\system\t_music.cpp
;	COMDAT ?cdda_open@@YA_NH@Z
_TEXT	SEGMENT
_set$ = -16						; size = 12
__$ArrayPad$ = -4					; size = 4
_n$ = 8							; size = 4
?cdda_open@@YA_NH@Z PROC				; cdda_open, COMDAT

; 3602 : {

  00000	55		 push	 ebp
  00001	8b ec		 mov	 ebp, esp
  00003	83 ec 10	 sub	 esp, 16			; 00000010H
  00006	a1 00 00 00 00	 mov	 eax, DWORD PTR ___security_cookie
  0000b	33 c5		 xor	 eax, ebp
  0000d	89 45 fc	 mov	 DWORD PTR __$ArrayPad$[ebp], eax

; 3603 : 	cdda_flg = 0;
; 3604 : 	// ?????? 2?î¯??????
; 3605 : 	_ASSERT(n > 1);
; 3606 : 
; 3607 : 	//    MCI_OPEN_PARMS open  = {0};
; 3608 : 	//  MCIERROR       dwRes = {0};
; 3609 : 
; 3610 : 	// ???????
; 3611 : 	open.lpstrDeviceType = "cdaudio";
; 3612 : 	dwRes = mciSendCommand(0, MCI_OPEN, MCI_OPEN_TYPE, (DWORD)&open);

  00010	68 00 00 00 00	 push	 OFFSET ?open@@3UtagMCI_OPEN_PARMSA@@A
  00015	68 00 20 00 00	 push	 8192			; 00002000H
  0001a	68 03 08 00 00	 push	 2051			; 00000803H
  0001f	6a 00		 push	 0
  00021	c7 05 00 00 00
	00 00 00 00 00	 mov	 DWORD PTR ?cdda_flg@@3HA, 0
  0002b	c7 05 08 00 00
	00 00 00 00 00	 mov	 DWORD PTR ?open@@3UtagMCI_OPEN_PARMSA@@A+8, OFFSET ??_C@_07FIPNLLOL@cdaudio@
  00035	ff 15 00 00 00
	00		 call	 DWORD PTR __imp__mciSendCommandA@16
  0003b	a3 00 00 00 00	 mov	 DWORD PTR ?dwRes@@3KA, eax

; 3613 : 	if (dwRes)

  00040	85 c0		 test	 eax, eax
  00042	75 3a		 jne	 SHORT $LN5@cdda_open

; 3614 : 	{
; 3615 : #ifdef  _STONDEBUG_
; 3616 : 		//		MessageBox(hWnd, "æå¼CDé³è½¨å¤±è´¥ï¼", "??", MB_OK);
; 3617 : #endif
; 3618 : 		cdda_flg = 1;
; 3619 : 		return FALSE;
; 3620 : 	}
; 3621 : 
; 3622 : 	// ?????????????îî???
; 3623 : 	MCI_SET_PARMS set;
; 3624 : 	set.dwTimeFormat = MCI_FORMAT_TMSF;
; 3625 : 	dwRes = mciSendCommand(open.wDeviceID, MCI_SET,

  00044	8d 45 f0	 lea	 eax, DWORD PTR _set$[ebp]
  00047	c7 45 f4 0a 00
	00 00		 mov	 DWORD PTR _set$[ebp+4], 10 ; 0000000aH
  0004e	50		 push	 eax
  0004f	68 00 04 00 00	 push	 1024			; 00000400H
  00054	68 0d 08 00 00	 push	 2061			; 0000080dH
  00059	ff 35 04 00 00
	00		 push	 DWORD PTR ?open@@3UtagMCI_OPEN_PARMSA@@A+4
  0005f	ff 15 00 00 00
	00		 call	 DWORD PTR __imp__mciSendCommandA@16
  00065	a3 00 00 00 00	 mov	 DWORD PTR ?dwRes@@3KA, eax

; 3626 : 		MCI_SET_TIME_FORMAT, (DWORD)&set);
; 3627 : 	if (dwRes)

  0006a	85 c0		 test	 eax, eax
  0006c	75 10		 jne	 SHORT $LN5@cdda_open

; 3628 : 	{
; 3629 : #ifdef  _STONDEBUG_
; 3630 : 		//		MessageBox(hWnd, "æå¼CDé³è½¨å¤±è´¥ï¼", "??", MB_OK);
; 3631 : #endif
; 3632 : 		cdda_flg = 1;
; 3633 : 		return FALSE;
; 3634 : 	}
; 3635 : 	return TRUE;

  0006e	b0 01		 mov	 al, 1

; 3636 : }

  00070	8b 4d fc	 mov	 ecx, DWORD PTR __$ArrayPad$[ebp]
  00073	33 cd		 xor	 ecx, ebp
  00075	e8 00 00 00 00	 call	 @__security_check_cookie@4
  0007a	8b e5		 mov	 esp, ebp
  0007c	5d		 pop	 ebp
  0007d	c3		 ret	 0
$LN5@cdda_open:
  0007e	8b 4d fc	 mov	 ecx, DWORD PTR __$ArrayPad$[ebp]
  00081	32 c0		 xor	 al, al
  00083	33 cd		 xor	 ecx, ebp
  00085	c7 05 00 00 00
	00 01 00 00 00	 mov	 DWORD PTR ?cdda_flg@@3HA, 1
  0008f	e8 00 00 00 00	 call	 @__security_check_cookie@4
  00094	8b e5		 mov	 esp, ebp
  00096	5d		 pop	 ebp
  00097	c3		 ret	 0
?cdda_open@@YA_NH@Z ENDP				; cdda_open
_TEXT	ENDS
; Function compile flags: /Ogtp
; File C:\Users\gg862\OneDrive\¹ÙÅÁ È­¸é\¸¾Äí¿Ï·á\Client Source Code1.31ÀÏº»\system\t_music.cpp
;	COMDAT ?bgm_fade_check@@YAXXZ
_TEXT	SEGMENT
?bgm_fade_check@@YAXXZ PROC				; bgm_fade_check, COMDAT

; 3534 : 	//?î??????
; 3535 : 	if (t_music_playing_flg == 0) {

  00000	83 3d 00 00 00
	00 00		 cmp	 DWORD PTR ?t_music_playing_flg@@3HA, 0 ; t_music_playing_flg
  00007	75 0b		 jne	 SHORT $LN2@bgm_fade_c

; 3536 : 		t_music_fade_flg = 0;

  00009	c7 05 00 00 00
	00 00 00 00 00	 mov	 DWORD PTR ?t_music_fade_flg@@3HA, 0 ; t_music_fade_flg

; 3551 : 	}
; 3552 : }

  00013	c3		 ret	 0
$LN2@bgm_fade_c:

; 3537 : 		return;
; 3538 : 	}
; 3539 : 	//????????????
; 3540 : 	if (!t_music_fade_flg) {

  00014	83 3d 00 00 00
	00 00		 cmp	 DWORD PTR ?t_music_fade_flg@@3HA, 0 ; t_music_fade_flg
  0001b	74 33		 je	 SHORT $LN5@bgm_fade_c

; 3541 : 		return;
; 3542 : 	}
; 3543 : 	//???????î·???
; 3544 : 	if (!t_music_fade_vol) {

  0001d	8b 15 00 00 00
	00		 mov	 edx, DWORD PTR ?t_music_fade_vol@@3HA ; t_music_fade_vol
  00023	85 d2		 test	 edx, edx
  00025	75 10		 jne	 SHORT $LN4@bgm_fade_c

; 3545 : 		stop_bgm();

  00027	e8 00 00 00 00	 call	 ?stop_bgm@@YAXXZ	; stop_bgm

; 3546 : 		t_music_bgm_no = -1;

  0002c	c7 05 00 00 00
	00 ff ff ff ff	 mov	 DWORD PTR ?t_music_bgm_no@@3HA, -1 ; t_music_bgm_no

; 3551 : 	}
; 3552 : }

  00036	c3		 ret	 0
$LN4@bgm_fade_c:

; 3547 : 	}
; 3548 : 	else {
; 3549 : 		// ????????
; 3550 : 		pDSData_tone[TONE_MAX]->SetVolume(volume_tbl[--t_music_fade_vol]);

  00037	a1 d0 07 00 00	 mov	 eax, DWORD PTR ?pDSData_tone@@3PAPAUIDirectSoundBuffer@@A+2000
  0003c	4a		 dec	 edx
  0003d	89 15 00 00 00
	00		 mov	 DWORD PTR ?t_music_fade_vol@@3HA, edx ; t_music_fade_vol
  00043	ff 34 95 00 00
	00 00		 push	 DWORD PTR ?volume_tbl@@3PAJA[edx*4]
  0004a	8b 08		 mov	 ecx, DWORD PTR [eax]
  0004c	50		 push	 eax
  0004d	ff 51 3c	 call	 DWORD PTR [ecx+60]
$LN5@bgm_fade_c:

; 3551 : 	}
; 3552 : }

  00050	c3		 ret	 0
?bgm_fade_check@@YAXXZ ENDP				; bgm_fade_check
_TEXT	ENDS
; Function compile flags: /Ogtp
; File C:\Users\gg862\OneDrive\¹ÙÅÁ È­¸é\¸¾Äí¿Ï·á\Client Source Code1.31ÀÏº»\system\t_music.cpp
;	COMDAT ?play_environment_check@@YAXXZ
_TEXT	SEGMENT
?play_environment_check@@YAXXZ PROC			; play_environment_check, COMDAT

; 3480 : {

  00000	53		 push	 ebx

; 3481 : 	int d0, d1, d3, d7;
; 3482 : 	for (d7 = 0; d7 < MAX_ENV; d7++) {

  00001	33 db		 xor	 ebx, ebx
  00003	56		 push	 esi
  00004	57		 push	 edi
  00005	be 00 00 00 00	 mov	 esi, OFFSET ?env_tbl@@3PAUENVIRONMENT_EQU@@A ; env_tbl
  0000a	8d 53 fe	 lea	 edx, DWORD PTR [ebx-2]
  0000d	0f 1f 00	 npad	 3
$LL4@play_envir:

; 3483 : 		if (env_tbl[d7].count == 0) {		//?î¡???

  00010	83 7e 08 00	 cmp	 DWORD PTR [esi+8], 0
  00014	8b 06		 mov	 eax, DWORD PTR [esi]
  00016	75 33		 jne	 SHORT $LN5@play_envir

; 3484 : 			if (env_tbl[d7].voice_address != -1) {		//î???

  00018	83 f8 ff	 cmp	 eax, -1
  0001b	0f 84 bd 00 00
	00		 je	 $LN2@play_envir

; 3485 : 				pDSData[env_tbl[d7].voice_address]->Stop();		//????

  00021	8b 04 85 00 00
	00 00		 mov	 eax, DWORD PTR ?pDSData@@3PAPAUIDirectSoundBuffer@@A[eax*4]
  00028	50		 push	 eax
  00029	8b 08		 mov	 ecx, DWORD PTR [eax]
  0002b	ff 51 48	 call	 DWORD PTR [ecx+72]

; 3486 : 				voice[env_tbl[d7].voice_address].loop_flg = 0;		//????îî·?

  0002e	8b 0e		 mov	 ecx, DWORD PTR [esi]
  00030	c1 e1 04	 shl	 ecx, 4
  00033	2b 0e		 sub	 ecx, DWORD PTR [esi]

; 3487 : 				env_tbl[d7].voice_address = -1;

  00035	c7 06 ff ff ff
	ff		 mov	 DWORD PTR [esi], -1
  0003b	c7 04 8d 30 00
	00 00 00 00 00
	00		 mov	 DWORD PTR ?voice@@3PAUVOICE_EQU@@A[ecx*4+48], 0
  00046	e9 8e 00 00 00	 jmp	 $LN24@play_envir
$LN5@play_envir:

; 3488 : 			}
; 3489 : 			continue;
; 3490 : 		}
; 3491 : 		if (env_tbl[d7].voice_address == -1) {		//î¡???

  0004b	83 f8 ff	 cmp	 eax, -1
  0004e	75 1c		 jne	 SHORT $LN7@play_envir

; 3492 : 			env_tbl[d7].voice_address = voice_seek_point;

  00050	a1 00 00 00 00	 mov	 eax, DWORD PTR ?voice_seek_point@@3HA

; 3493 : 			env_tbl[d7].volume_old = -1;
; 3494 : 			env_tbl[d7].panpot_old = -1;
; 3495 : 			d0 = 1;

  00055	bf 01 00 00 00	 mov	 edi, 1
  0005a	89 06		 mov	 DWORD PTR [esi], eax
  0005c	c7 46 14 ff ff
	ff ff		 mov	 DWORD PTR [esi+20], -1
  00063	c7 46 20 ff ff
	ff ff		 mov	 DWORD PTR [esi+32], -1

; 3496 : 		}

  0006a	eb 02		 jmp	 SHORT $LN8@play_envir
$LN7@play_envir:

; 3497 : 		else {
; 3498 : 			d0 = 0;

  0006c	33 ff		 xor	 edi, edi
$LN8@play_envir:

; 3499 : 		}
; 3500 : 
; 3501 : 		if (stereo_flg == T_MUSIC_MONO) {		//??????

  0006e	83 3d 00 00 00
	00 00		 cmp	 DWORD PTR ?stereo_flg@@3HA, 0 ; stereo_flg
  00075	75 0a		 jne	 SHORT $LN9@play_envir

; 3502 : 			env_tbl[d7].panpot = d1 = 64;

  00077	b9 40 00 00 00	 mov	 ecx, 64			; 00000040H
  0007c	89 4e 1c	 mov	 DWORD PTR [esi+28], ecx

; 3503 : 		}

  0007f	eb 29		 jmp	 SHORT $LN12@play_envir
$LN9@play_envir:

; 3504 : 		else {
; 3505 : 			d1 = env_tbl[d7].side / 5;			//?????î±?î?

  00081	b8 67 66 66 66	 mov	 eax, 1717986919		; 66666667H

; 3506 : 			if (d1 < 0)			//
; 3507 : 				d1 = 0;			//
; 3508 : 			if (d1 > 127)		//

  00086	b9 00 00 00 00	 mov	 ecx, 0
  0008b	f7 6e 18	 imul	 DWORD PTR [esi+24]
  0008e	d1 fa		 sar	 edx, 1
  00090	8b c2		 mov	 eax, edx
  00092	c1 e8 1f	 shr	 eax, 31			; 0000001fH
  00095	03 c2		 add	 eax, edx
  00097	ba fe ff ff ff	 mov	 edx, -2			; fffffffeH
  0009c	0f 49 c8	 cmovns	 ecx, eax
  0009f	b8 7f 00 00 00	 mov	 eax, 127		; 0000007fH
  000a4	83 f9 7f	 cmp	 ecx, 127		; 0000007fH
  000a7	0f 4f c8	 cmovg	 ecx, eax
$LN12@play_envir:

; 3509 : 				d1 = 127;		//
; 3510 : 		}
; 3511 : 
; 3512 : 		if (d0) {		//î¡???

  000aa	85 ff		 test	 edi, edi
  000ac	75 17		 jne	 SHORT $LN14@play_envir

; 3513 : 			env_tbl[d7].panpot = d1;
; 3514 : 		}
; 3515 : 		else {
; 3516 : 			d3 = d1 - env_tbl[d7].panpot;

  000ae	8b 46 1c	 mov	 eax, DWORD PTR [esi+28]
  000b1	2b c8		 sub	 ecx, eax

; 3517 : 			if (d3 > 2)

  000b3	83 f9 02	 cmp	 ecx, 2
  000b6	7e 05		 jle	 SHORT $LN15@play_envir

; 3518 : 				d3 = 2;

  000b8	8d 4f 02	 lea	 ecx, DWORD PTR [edi+2]

; 3519 : 			if (d3 < -2)

  000bb	eb 06		 jmp	 SHORT $LN16@play_envir
$LN15@play_envir:
  000bd	83 f9 fe	 cmp	 ecx, -2			; fffffffeH
  000c0	0f 4c ca	 cmovl	 ecx, edx
$LN16@play_envir:

; 3520 : 				d3 = -2;
; 3521 : 			//?????îî
; 3522 : 			env_tbl[d7].panpot += d3;

  000c3	03 c8		 add	 ecx, eax
$LN14@play_envir:

; 3523 : 		}
; 3524 : 		//		play_environment_tone(env_tbl[d7].tone, env_tbl[d7].distance, env_tbl[d7].voice_address, env_tbl[d7].panpot, d0);
; 3525 : 		play_environment_tone(d7, d0);

  000c5	57		 push	 edi
  000c6	53		 push	 ebx
  000c7	89 4e 1c	 mov	 DWORD PTR [esi+28], ecx
  000ca	e8 00 00 00 00	 call	 ?play_environment_tone@@YAHHH@Z ; play_environment_tone
  000cf	83 c4 08	 add	 esp, 8

; 3526 : 
; 3527 : 		env_tbl[d7].count = 0;		//????????

  000d2	c7 46 08 00 00
	00 00		 mov	 DWORD PTR [esi+8], 0
$LN24@play_envir:

; 3481 : 	int d0, d1, d3, d7;
; 3482 : 	for (d7 = 0; d7 < MAX_ENV; d7++) {

  000d9	ba fe ff ff ff	 mov	 edx, -2			; fffffffeH
$LN2@play_envir:
  000de	83 c6 24	 add	 esi, 36			; 00000024H
  000e1	43		 inc	 ebx
  000e2	81 fe d0 02 00
	00		 cmp	 esi, OFFSET ?env_tbl@@3PAUENVIRONMENT_EQU@@A+720
  000e8	0f 8c 22 ff ff
	ff		 jl	 $LL4@play_envir

; 3528 : 	}
; 3529 : }

  000ee	5f		 pop	 edi
  000ef	5e		 pop	 esi
  000f0	5b		 pop	 ebx
  000f1	c3		 ret	 0
?play_environment_check@@YAXXZ ENDP			; play_environment_check
_TEXT	ENDS
; Function compile flags: /Ogtp
; File C:\Users\gg862\OneDrive\¹ÙÅÁ È­¸é\¸¾Äí¿Ï·á\Client Source Code1.31ÀÏº»\system\t_music.cpp
;	COMDAT ?play_map_bgm_check@@YAXXZ
_TEXT	SEGMENT
?play_map_bgm_check@@YAXXZ PROC				; play_map_bgm_check, COMDAT

; 3279 : 	switch (map_bgm_vct_no) {

  00000	8b 0d 00 00 00
	00		 mov	 ecx, DWORD PTR ?map_bgm_vct_no@@3HA
  00006	83 f9 03	 cmp	 ecx, 3
  00009	77 70		 ja	 SHORT $LN2@play_map_b
  0000b	ff 24 8d 00 00
	00 00		 jmp	 DWORD PTR $LN12@play_map_b[ecx*4]
$LN4@play_map_b:

; 3280 : 	case 0:		//???î?????
; 3281 : 		if (draw_map_bgm_flg) {

  00012	83 3d 00 00 00
	00 00		 cmp	 DWORD PTR ?draw_map_bgm_flg@@3HA, 0 ; draw_map_bgm_flg
  00019	74 19		 je	 SHORT $LN6@play_map_b

; 3282 : 			if (t_music_bgm_no != map_bgm_no) {		//???î???

  0001b	a1 00 00 00 00	 mov	 eax, DWORD PTR ?t_music_bgm_no@@3HA ; t_music_bgm_no
  00020	ba 01 00 00 00	 mov	 edx, 1
  00025	3b 05 00 00 00
	00		 cmp	 eax, DWORD PTR ?map_bgm_no@@3HA ; map_bgm_no
  0002b	0f 45 ca	 cmovne	 ecx, edx
  0002e	89 0d 00 00 00
	00		 mov	 DWORD PTR ?map_bgm_vct_no@@3HA, ecx
$LN6@play_map_b:

; 3283 : 				map_bgm_vct_no++;		//????????î¿?
; 3284 : 			}
; 3285 : 		}
; 3286 : 		draw_map_bgm_flg = 0;

  00034	c7 05 00 00 00
	00 00 00 00 00	 mov	 DWORD PTR ?draw_map_bgm_flg@@3HA, 0 ; draw_map_bgm_flg

; 3303 : 		break;
; 3304 : 	}
; 3305 : }

  0003e	c3		 ret	 0
$LN7@play_map_b:

; 3287 : 		break;
; 3288 : 
; 3289 : 	case 1:		//???????????î¿
; 3290 : 		fade_out_bgm();

  0003f	e8 00 00 00 00	 call	 ?fade_out_bgm@@YAXXZ	; fade_out_bgm

; 3291 : 		map_bgm_vct_no++;		//???????î·?î??

  00044	c7 05 00 00 00
	00 02 00 00 00	 mov	 DWORD PTR ?map_bgm_vct_no@@3HA, 2

; 3303 : 		break;
; 3304 : 	}
; 3305 : }

  0004e	c3		 ret	 0
$LN8@play_map_b:

; 3292 : 		break;
; 3293 : 
; 3294 : 	case 2:		//??????????î·?î?
; 3295 : 		if (t_music_fade_flg == 0) {		//???????î·???

  0004f	83 3d 00 00 00
	00 00		 cmp	 DWORD PTR ?t_music_fade_flg@@3HA, 0 ; t_music_fade_flg
  00056	75 23		 jne	 SHORT $LN2@play_map_b

; 3296 : 			map_bgm_vct_no++;		//????î?

  00058	c7 05 00 00 00
	00 03 00 00 00	 mov	 DWORD PTR ?map_bgm_vct_no@@3HA, 3

; 3303 : 		break;
; 3304 : 	}
; 3305 : }

  00062	c3		 ret	 0
$LN10@play_map_b:

; 3297 : 		}
; 3298 : 		break;
; 3299 : 
; 3300 : 	case 3:		//????î
; 3301 : 		play_bgm(map_bgm_no);		//????î

  00063	ff 35 00 00 00
	00		 push	 DWORD PTR ?map_bgm_no@@3HA ; map_bgm_no
  00069	e8 00 00 00 00	 call	 ?play_bgm@@YAHH@Z	; play_bgm
  0006e	83 c4 04	 add	 esp, 4

; 3302 : 		map_bgm_vct_no = 0;		//???î??????

  00071	c7 05 00 00 00
	00 00 00 00 00	 mov	 DWORD PTR ?map_bgm_vct_no@@3HA, 0
$LN2@play_map_b:

; 3303 : 		break;
; 3304 : 	}
; 3305 : }

  0007b	c3		 ret	 0
$LN12@play_map_b:
  0007c	00 00 00 00	 DD	 $LN4@play_map_b
  00080	00 00 00 00	 DD	 $LN7@play_map_b
  00084	00 00 00 00	 DD	 $LN8@play_map_b
  00088	00 00 00 00	 DD	 $LN10@play_map_b
?play_map_bgm_check@@YAXXZ ENDP				; play_map_bgm_check
_TEXT	ENDS
; Function compile flags: /Ogtp
; File C:\Users\gg862\OneDrive\¹ÙÅÁ È­¸é\¸¾Äí¿Ï·á\Client Source Code1.31ÀÏº»\system\t_music.cpp
;	COMDAT ?play_environment_tone@@YAHHH@Z
_TEXT	SEGMENT
_tbl_no$ = 8						; size = 4
_new_flg$ = 12						; size = 4
?play_environment_tone@@YAHHH@Z PROC			; play_environment_tone, COMDAT

; 3174 : {

  00000	55		 push	 ebp
  00001	8b ec		 mov	 ebp, esp

; 3175 : 	int d0;
; 3176 : 	//	int total_level;
; 3177 : 
; 3178 : 	//	t_music_se_no = tone;
; 3179 : #ifdef _NB_CANCEL_BGM
; 3180 : 	if (å£°é³å¼å³) return -1;

  00003	83 3d 00 00 00
	00 00		 cmp	 DWORD PTR ??ëå??@@3HA, 0 ; ?ëå??
  0000a	56		 push	 esi
  0000b	57		 push	 edi
  0000c	0f 85 fe 00 00
	00		 jne	 $LN28@play_envir

; 3181 : #endif
; 3182 : 	if (dsound_flg == -1)

  00012	83 3d 00 00 00
	00 ff		 cmp	 DWORD PTR ?dsound_flg@@3HA, -1 ; dsound_flg
  00019	0f 84 f1 00 00
	00		 je	 $LN28@play_envir

; 3183 : 		return -1;
; 3184 : 
; 3185 : 	if (env_tbl[tbl_no].tone > TONE_MAX) {		//?????î¯??

  0001f	8b 45 08	 mov	 eax, DWORD PTR _tbl_no$[ebp]
  00022	8d 34 c0	 lea	 esi, DWORD PTR [eax+eax*8]
  00025	8b 3c b5 04 00
	00 00		 mov	 edi, DWORD PTR ?env_tbl@@3PAUENVIRONMENT_EQU@@A[esi*4+4]
  0002c	81 ff f4 01 00
	00		 cmp	 edi, 500		; 000001f4H
  00032	0f 8f d8 00 00
	00		 jg	 $LN28@play_envir

; 3186 : 		return -1;
; 3187 : 	}
; 3188 : 
; 3189 : 	if (tone_tbl[env_tbl[tbl_no].tone].voice_place == -1) {		//î ¹î??î??

  00038	8b c7		 mov	 eax, edi
  0003a	c1 e0 05	 shl	 eax, 5
  0003d	83 b8 00 00 00
	00 ff		 cmp	 DWORD PTR ?tone_tbl@@3PAUTONE_EQU@@A[eax], -1
  00044	0f 84 c6 00 00
	00		 je	 $LN28@play_envir

; 3190 : 		return -1;
; 3191 : 	}
; 3192 : 
; 3193 : 	//	if(tone_tbl[ env_tbl[tbl_no].tone ].play_time){		//???î???
; 3194 : 	//		return 0;
; 3195 : 	//	}
; 3196 : 
; 3197 : 	env_tbl[tbl_no].distance = env_tbl[tbl_no].distance << 4;		//?????î±?î?

  0004a	8b 0c b5 0c 00
	00 00		 mov	 ecx, DWORD PTR ?env_tbl@@3PAUENVIRONMENT_EQU@@A[esi*4+12]

; 3198 : 	env_tbl[tbl_no].distance /= 0x6a;				//

  00051	b8 ed 73 48 4d	 mov	 eax, 1296593901		; 4d4873edH
  00056	c1 e1 04	 shl	 ecx, 4
  00059	f7 e9		 imul	 ecx

; 3199 : 
; 3200 : //	if(env_tbl[tbl_no].distance >= 127)				//îª????
; 3201 : //		return 0;					//î¡????
; 3202 : 
; 3203 : 	if (env_tbl[tbl_no].distance >= 127)				//îª????

  0005b	b9 7f 00 00 00	 mov	 ecx, 127		; 0000007fH
  00060	c1 fa 05	 sar	 edx, 5
  00063	8b c2		 mov	 eax, edx
  00065	c1 e8 1f	 shr	 eax, 31			; 0000001fH
  00068	03 c2		 add	 eax, edx
  0006a	3b c1		 cmp	 eax, ecx
  0006c	0f 4d c1	 cmovge	 eax, ecx

; 3204 : 		env_tbl[tbl_no].distance = 127;					//î¡????
; 3205 : 
; 3206 : 	if (new_flg) {		//î¡???

  0006f	83 7d 0c 00	 cmp	 DWORD PTR _new_flg$[ebp], 0
  00073	89 04 b5 0c 00
	00 00		 mov	 DWORD PTR ?env_tbl@@3PAUENVIRONMENT_EQU@@A[esi*4+12], eax
  0007a	0f 84 97 00 00
	00		 je	 $LN13@play_envir

; 3207 : 		//î·???îî±????
; 3208 : 		d0 = voice[env_tbl[tbl_no].voice_address].tone_no;

  00080	8b 04 b5 00 00
	00 00		 mov	 eax, DWORD PTR ?env_tbl@@3PAUENVIRONMENT_EQU@@A[esi*4]
  00087	8b c8		 mov	 ecx, eax
  00089	c1 e1 04	 shl	 ecx, 4
  0008c	2b c8		 sub	 ecx, eax
  0008e	8b 14 8d 04 00
	00 00		 mov	 edx, DWORD PTR ?voice@@3PAUVOICE_EQU@@A[ecx*4+4]

; 3209 : 		if (voice[env_tbl[tbl_no].voice_address].tone_no != env_tbl[tbl_no].tone) {		//î¯??îî±??????

  00095	3b d7		 cmp	 edx, edi
  00097	74 7e		 je	 SHORT $LN13@play_envir

; 3210 : 			voice[env_tbl[tbl_no].voice_address].tone_no = env_tbl[tbl_no].tone;		//?îî±?îî¼

  00099	89 3c 8d 04 00
	00 00		 mov	 DWORD PTR ?voice@@3PAUVOICE_EQU@@A[ecx*4+4], edi

; 3211 : 			//???????????îî¤î§î²?????
; 3212 : 			if (d0 != -2) {

  000a0	83 fa fe	 cmp	 edx, -2			; fffffffeH
  000a3	74 2a		 je	 SHORT $LN12@play_envir

; 3213 : 				RELEASE(pDSData[env_tbl[tbl_no].voice_address]);		//?î´

  000a5	8b 0c 85 00 00
	00 00		 mov	 ecx, DWORD PTR ?pDSData@@3PAPAUIDirectSoundBuffer@@A[eax*4]
  000ac	85 c9		 test	 ecx, ecx
  000ae	74 1f		 je	 SHORT $LN12@play_envir
  000b0	8b 01		 mov	 eax, DWORD PTR [ecx]
  000b2	51		 push	 ecx
  000b3	ff 50 08	 call	 DWORD PTR [eax+8]
  000b6	8b 04 b5 00 00
	00 00		 mov	 eax, DWORD PTR ?env_tbl@@3PAUENVIRONMENT_EQU@@A[esi*4]
  000bd	8b 3c b5 04 00
	00 00		 mov	 edi, DWORD PTR ?env_tbl@@3PAUENVIRONMENT_EQU@@A[esi*4+4]
  000c4	c7 04 85 00 00
	00 00 00 00 00
	00		 mov	 DWORD PTR ?pDSData@@3PAPAUIDirectSoundBuffer@@A[eax*4], 0
$LN12@play_envir:

; 3214 : 			}
; 3215 : 			//?î???
; 3216 : 			if (pDSound->DuplicateSoundBuffer(pDSData_tone[tone_tbl[env_tbl[tbl_no].tone].voice_place], &pDSData[env_tbl[tbl_no].voice_address]) != DS_OK) {

  000cf	8b 0d 00 00 00
	00		 mov	 ecx, DWORD PTR ?pDSound@@3PAUIDirectSound@@A ; pDSound
  000d5	8d 04 85 00 00
	00 00		 lea	 eax, DWORD PTR ?pDSData@@3PAPAUIDirectSoundBuffer@@A[eax*4]
  000dc	c1 e7 05	 shl	 edi, 5
  000df	50		 push	 eax
  000e0	8b 11		 mov	 edx, DWORD PTR [ecx]
  000e2	8b 87 00 00 00
	00		 mov	 eax, DWORD PTR ?tone_tbl@@3PAUTONE_EQU@@A[edi]
  000e8	ff 34 85 00 00
	00 00		 push	 DWORD PTR ?pDSData_tone@@3PAPAUIDirectSoundBuffer@@A[eax*4]
  000ef	51		 push	 ecx
  000f0	ff 52 14	 call	 DWORD PTR [edx+20]
  000f3	85 c0		 test	 eax, eax
  000f5	74 20		 je	 SHORT $LN13@play_envir

; 3217 : #ifdef  _STONDEBUG_
; 3218 : 				MessageBox(hWnd, "å¤å¶å£°é³bufferå¤±è´¥ï¼", "Error", MB_OK);
; 3219 : #endif
; 3220 : 				//???????????îî¤î§î²??????
; 3221 : 				voice[env_tbl[tbl_no].voice_address].tone_no = -2;

  000f7	8b 04 b5 00 00
	00 00		 mov	 eax, DWORD PTR ?env_tbl@@3PAUENVIRONMENT_EQU@@A[esi*4]
  000fe	8b c8		 mov	 ecx, eax
  00100	c1 e1 04	 shl	 ecx, 4
  00103	2b c8		 sub	 ecx, eax
  00105	c7 04 8d 04 00
	00 00 fe ff ff
	ff		 mov	 DWORD PTR ?voice@@3PAUVOICE_EQU@@A[ecx*4+4], -2 ; fffffffeH
$LN28@play_envir:

; 3274 : }

  00110	5f		 pop	 edi
  00111	83 c8 ff	 or	 eax, -1
  00114	5e		 pop	 esi
  00115	5d		 pop	 ebp
  00116	c3		 ret	 0
$LN13@play_envir:

; 3222 : 				return -1;
; 3223 : 			}
; 3224 : 		}
; 3225 : 	}
; 3226 : 
; 3227 : 	//?î?????
; 3228 : //	total_level = (127 - env_tbl[tbl_no].volume) * tone_tbl[ env_tbl[tbl_no].tone ].voice_volume / 127;
; 3229 : 
; 3230 : 	//?????????
; 3231 : //	total_level = total_level * t_music_se_volume / 15;
; 3232 : 
; 3233 : 	//??????î?????
; 3234 : 	if (env_tbl[tbl_no].volume != env_tbl[tbl_no].volume_old) {

  00117	8b 14 b5 10 00
	00 00		 mov	 edx, DWORD PTR ?env_tbl@@3PAUENVIRONMENT_EQU@@A[esi*4+16]
  0011e	3b 14 b5 14 00
	00 00		 cmp	 edx, DWORD PTR ?env_tbl@@3PAUENVIRONMENT_EQU@@A[esi*4+20]
  00125	74 29		 je	 SHORT $LN14@play_envir

; 3235 : 		// ????????
; 3236 : 		pDSData[env_tbl[tbl_no].voice_address]->SetVolume(volume_tbl[env_tbl[tbl_no].volume]);

  00127	8b 04 b5 00 00
	00 00		 mov	 eax, DWORD PTR ?env_tbl@@3PAUENVIRONMENT_EQU@@A[esi*4]
  0012e	ff 34 95 00 00
	00 00		 push	 DWORD PTR ?volume_tbl@@3PAJA[edx*4]
  00135	8b 04 85 00 00
	00 00		 mov	 eax, DWORD PTR ?pDSData@@3PAPAUIDirectSoundBuffer@@A[eax*4]
  0013c	50		 push	 eax
  0013d	8b 08		 mov	 ecx, DWORD PTR [eax]
  0013f	ff 51 3c	 call	 DWORD PTR [ecx+60]

; 3237 : 		env_tbl[tbl_no].volume_old = env_tbl[tbl_no].volume;

  00142	8b 04 b5 10 00
	00 00		 mov	 eax, DWORD PTR ?env_tbl@@3PAUENVIRONMENT_EQU@@A[esi*4+16]
  00149	89 04 b5 14 00
	00 00		 mov	 DWORD PTR ?env_tbl@@3PAUENVIRONMENT_EQU@@A[esi*4+20], eax
$LN14@play_envir:

; 3238 : 	}
; 3239 : 
; 3240 : 	//??????î?????
; 3241 : 	if (env_tbl[tbl_no].panpot != env_tbl[tbl_no].panpot_old) {

  00150	8b 14 b5 1c 00
	00 00		 mov	 edx, DWORD PTR ?env_tbl@@3PAUENVIRONMENT_EQU@@A[esi*4+28]
  00157	3b 14 b5 20 00
	00 00		 cmp	 edx, DWORD PTR ?env_tbl@@3PAUENVIRONMENT_EQU@@A[esi*4+32]
  0015e	74 29		 je	 SHORT $LN15@play_envir

; 3242 : 		// ????????
; 3243 : 		pDSData[env_tbl[tbl_no].voice_address]->SetPan(panpot_tbl[env_tbl[tbl_no].panpot]);

  00160	8b 04 b5 00 00
	00 00		 mov	 eax, DWORD PTR ?env_tbl@@3PAUENVIRONMENT_EQU@@A[esi*4]
  00167	ff 34 95 00 00
	00 00		 push	 DWORD PTR ?panpot_tbl@@3PAJA[edx*4]
  0016e	8b 04 85 00 00
	00 00		 mov	 eax, DWORD PTR ?pDSData@@3PAPAUIDirectSoundBuffer@@A[eax*4]
  00175	50		 push	 eax
  00176	8b 08		 mov	 ecx, DWORD PTR [eax]
  00178	ff 51 40	 call	 DWORD PTR [ecx+64]

; 3244 : 		env_tbl[tbl_no].panpot_old = env_tbl[tbl_no].panpot;

  0017b	8b 04 b5 1c 00
	00 00		 mov	 eax, DWORD PTR ?env_tbl@@3PAUENVIRONMENT_EQU@@A[esi*4+28]
  00182	89 04 b5 20 00
	00 00		 mov	 DWORD PTR ?env_tbl@@3PAUENVIRONMENT_EQU@@A[esi*4+32], eax
$LN15@play_envir:

; 3245 : 	}
; 3246 : 
; 3247 : 	//???î±?îî??
; 3248 : 	if (tone_tbl[env_tbl[tbl_no].tone].voice_note) {

  00189	8b 3c b5 04 00
	00 00		 mov	 edi, DWORD PTR ?env_tbl@@3PAUENVIRONMENT_EQU@@A[esi*4+4]
  00190	c1 e7 05	 shl	 edi, 5
  00193	83 bf 10 00 00
	00 00		 cmp	 DWORD PTR ?tone_tbl@@3PAUTONE_EQU@@A[edi+16], 0
  0019a	74 27		 je	 SHORT $LN16@play_envir

; 3249 : 		pDSData[env_tbl[tbl_no].voice_address]->SetFrequency(

  0019c	8b 04 b5 00 00
	00 00		 mov	 eax, DWORD PTR ?env_tbl@@3PAUENVIRONMENT_EQU@@A[esi*4]
  001a3	8b 0c 85 00 00
	00 00		 mov	 ecx, DWORD PTR ?pDSData@@3PAPAUIDirectSoundBuffer@@A[eax*4]
  001aa	8b 87 18 00 00
	00		 mov	 eax, DWORD PTR ?tone_tbl@@3PAUTONE_EQU@@A[edi+24]
  001b0	03 87 10 00 00
	00		 add	 eax, DWORD PTR ?tone_tbl@@3PAUTONE_EQU@@A[edi+16]
  001b6	8b 11		 mov	 edx, DWORD PTR [ecx]
  001b8	ff 34 85 00 00
	00 00		 push	 DWORD PTR ?freq_tbl@@3PAHA[eax*4]
  001bf	51		 push	 ecx
  001c0	ff 52 44	 call	 DWORD PTR [edx+68]
$LN16@play_envir:

; 3250 : 			(DWORD)freq_tbl[tone_tbl[env_tbl[tbl_no].tone].voice_note + tone_tbl[env_tbl[tbl_no].tone].voice_rate]);
; 3251 : 	}
; 3252 : 
; 3253 : 	if (new_flg) {		//î¡???

  001c3	83 7d 0c 00	 cmp	 DWORD PTR _new_flg$[ebp], 0
  001c7	74 78		 je	 SHORT $LN23@play_envir

; 3254 : 		pDSData[env_tbl[tbl_no].voice_address]->SetCurrentPosition(0);	//

  001c9	8b 04 b5 00 00
	00 00		 mov	 eax, DWORD PTR ?env_tbl@@3PAUENVIRONMENT_EQU@@A[esi*4]
  001d0	6a 00		 push	 0
  001d2	8b 04 85 00 00
	00 00		 mov	 eax, DWORD PTR ?pDSData@@3PAPAUIDirectSoundBuffer@@A[eax*4]
  001d9	50		 push	 eax
  001da	8b 08		 mov	 ecx, DWORD PTR [eax]
  001dc	ff 51 34	 call	 DWORD PTR [ecx+52]

; 3255 : 		if (tone_tbl[env_tbl[tbl_no].tone].voice_loop == 0) {		//???î¡???

  001df	8b 04 b5 04 00
	00 00		 mov	 eax, DWORD PTR ?env_tbl@@3PAUENVIRONMENT_EQU@@A[esi*4+4]
  001e6	8b 0c b5 00 00
	00 00		 mov	 ecx, DWORD PTR ?env_tbl@@3PAUENVIRONMENT_EQU@@A[esi*4]
  001ed	c1 e0 05	 shl	 eax, 5
  001f0	83 b8 08 00 00
	00 00		 cmp	 DWORD PTR ?tone_tbl@@3PAUTONE_EQU@@A[eax+8], 0
  001f7	75 04		 jne	 SHORT $LN18@play_envir

; 3256 : 			pDSData[env_tbl[tbl_no].voice_address]->Play(0, 0, 0);			//????

  001f9	6a 00		 push	 0

; 3257 : 		}

  001fb	eb 14		 jmp	 SHORT $LN33@play_envir
$LN18@play_envir:

; 3258 : 		else {
; 3259 : 			voice[env_tbl[tbl_no].voice_address].loop_flg = 1;		//????î

  001fd	8b c1		 mov	 eax, ecx
  001ff	c1 e0 04	 shl	 eax, 4
  00202	2b c1		 sub	 eax, ecx

; 3260 : 			pDSData[env_tbl[tbl_no].voice_address]->Play(0, 0, DSBPLAY_LOOPING);		//????

  00204	6a 01		 push	 1
  00206	c7 04 85 30 00
	00 00 01 00 00
	00		 mov	 DWORD PTR ?voice@@3PAUVOICE_EQU@@A[eax*4+48], 1
$LN33@play_envir:
  00211	8b 04 8d 00 00
	00 00		 mov	 eax, DWORD PTR ?pDSData@@3PAPAUIDirectSoundBuffer@@A[ecx*4]
  00218	6a 00		 push	 0
  0021a	6a 00		 push	 0
  0021c	50		 push	 eax
  0021d	8b 08		 mov	 ecx, DWORD PTR [eax]
  0021f	ff 51 30	 call	 DWORD PTR [ecx+48]
  00222	a1 00 00 00 00	 mov	 eax, DWORD PTR ?voice_seek_point@@3HA
$LL2@play_envir:

; 3261 : 		}
; 3262 : 
; 3263 : 		while (1) {
; 3264 : 			voice_seek_point++;		//??????î¡

  00227	40		 inc	 eax

; 3265 : 			voice_seek_point &= VOICE_MAX - 1;				//

  00228	83 e0 3f	 and	 eax, 63			; 0000003fH

; 3266 : 			if (voice[voice_seek_point].loop_flg == 0) {		//????î??????

  0022b	8b c8		 mov	 ecx, eax
  0022d	c1 e1 04	 shl	 ecx, 4
  00230	2b c8		 sub	 ecx, eax
  00232	83 3c 8d 30 00
	00 00 00	 cmp	 DWORD PTR ?voice@@3PAUVOICE_EQU@@A[ecx*4+48], 0
  0023a	75 eb		 jne	 SHORT $LL2@play_envir

; 3265 : 			voice_seek_point &= VOICE_MAX - 1;				//

  0023c	a3 00 00 00 00	 mov	 DWORD PTR ?voice_seek_point@@3HA, eax
$LN23@play_envir:
  00241	5f		 pop	 edi

; 3267 : 				break;
; 3268 : 			}
; 3269 : 		}
; 3270 : 	}
; 3271 : 	//	tone_tbl[ env_tbl[tbl_no].tone ].play_time = 8;		//?î??????
; 3272 : 
; 3273 : 	return 0;

  00242	33 c0		 xor	 eax, eax

; 3274 : }

  00244	5e		 pop	 esi
  00245	5d		 pop	 ebp
  00246	c3		 ret	 0
?play_environment_tone@@YAHHH@Z ENDP			; play_environment_tone
_TEXT	ENDS
; Function compile flags: /Ogtp
; File C:\Users\gg862\OneDrive\¹ÙÅÁ È­¸é\¸¾Äí¿Ï·á\Client Source Code1.31ÀÏº»\system\t_music.cpp
;	COMDAT ?dwSoundInit2@@YAHPAUtWAVEFORMATEX@@KPAPAUIDirectSoundBuffer@@PAUHMMIO__@@@Z
_TEXT	SEGMENT
_dsbdesc$ = -120					; size = 36
_dsbufferdesc$ = -84					; size = 36
_pcmwf$ = -48						; size = 18
_pn$ = -28						; size = 24
__$ArrayPad$ = -4					; size = 4
_pWfmtx$ = 8						; size = 4
_DataSize$ = 12						; size = 4
_ppData$ = 16						; size = 4
_hmmio$ = 20						; size = 4
?dwSoundInit2@@YAHPAUtWAVEFORMATEX@@KPAPAUIDirectSoundBuffer@@PAUHMMIO__@@@Z PROC ; dwSoundInit2, COMDAT

; 2675 : {

  00000	55		 push	 ebp
  00001	8b ec		 mov	 ebp, esp
  00003	83 ec 78	 sub	 esp, 120		; 00000078H
  00006	a1 00 00 00 00	 mov	 eax, DWORD PTR ___security_cookie
  0000b	33 c5		 xor	 eax, ebp
  0000d	89 45 fc	 mov	 DWORD PTR __$ArrayPad$[ebp], eax

; 2676 : 	// ?????????????????????
; 2677 : 	WAVEFORMATEX pcmwf = *pWfmtx;
; 2678 : 	DSBUFFERDESC  dsbufferdesc;
; 2679 : 	HRESULT ret;
; 2680 : 
; 2681 : 	//?î´????
; 2682 : 	if (stream_flg == 1) {

  00010	80 3d 00 00 00
	00 01		 cmp	 BYTE PTR ?stream_flg@@3DA, 1
  00017	53		 push	 ebx
  00018	8b 5d 10	 mov	 ebx, DWORD PTR _ppData$[ebp]
  0001b	56		 push	 esi
  0001c	8b 75 08	 mov	 esi, DWORD PTR _pWfmtx$[ebp]
  0001f	57		 push	 edi
  00020	8b 7d 14	 mov	 edi, DWORD PTR _hmmio$[ebp]
  00023	0f 10 06	 movups	 xmm0, XMMWORD PTR [esi]
  00026	66 8b 46 10	 mov	 ax, WORD PTR [esi+16]
  0002a	66 89 45 e0	 mov	 WORD PTR _pcmwf$[ebp+16], ax
  0002e	0f 11 45 d0	 movups	 XMMWORD PTR _pcmwf$[ebp], xmm0
  00032	75 21		 jne	 SHORT $LN4@dwSoundIni

; 2683 : 		RELEASE(pDSNotify);

  00034	8b 0d 00 00 00
	00		 mov	 ecx, DWORD PTR ?pDSNotify@@3PAUIDirectSoundNotify@@A
  0003a	85 c9		 test	 ecx, ecx
  0003c	74 10		 je	 SHORT $LN5@dwSoundIni
  0003e	8b 01		 mov	 eax, DWORD PTR [ecx]
  00040	51		 push	 ecx
  00041	ff 50 08	 call	 DWORD PTR [eax+8]
  00044	c7 05 00 00 00
	00 00 00 00 00	 mov	 DWORD PTR ?pDSNotify@@3PAUIDirectSoundNotify@@A, 0
$LN5@dwSoundIni:

; 2684 : 		stream_flg = 0;

  0004e	c6 05 00 00 00
	00 00		 mov	 BYTE PTR ?stream_flg@@3DA, 0
$LN4@dwSoundIni:

; 2685 : 	}
; 2686 : 	//??????????????
; 2687 : 	memset(&dsbufferdesc, 0, sizeof(DSBUFFERDESC));
; 2688 : 	dsbufferdesc.dwSize = sizeof(DSBUFFERDESC);
; 2689 : 	dsbufferdesc.dwFlags = DSBCAPS_CTRLPOSITIONNOTIFY | /*DSBCAPS_CTRLDEFAULT*/DSBCAPS_CTRLPAN | DSBCAPS_CTRLVOLUME | DSBCAPS_CTRLFREQUENCY | DSBCAPS_GETCURRENTPOSITION2;
; 2690 : 	//	dsbufferdesc.dwFlags = DSBCAPS_CTRLPOSITIONNOTIFY | DSBCAPS_STATIC | DSBCAPS_CTRLDEFAULT | DSBCAPS_GETCURRENTPOSITION2 | DSBCAPS_GLOBALFOCUS; 
; 2691 : 	dsbufferdesc.dwBufferBytes = DataSize;

  00055	8b 45 0c	 mov	 eax, DWORD PTR _DataSize$[ebp]

; 2692 : 	dsbufferdesc.lpwfxFormat = pWfmtx;
; 2693 : 	if (pDSound->CreateSoundBuffer(&dsbufferdesc, ppData, NULL) != DS_OK) {

  00058	8d 55 ac	 lea	 edx, DWORD PTR _dsbufferdesc$[ebp]
  0005b	89 45 b4	 mov	 DWORD PTR _dsbufferdesc$[ebp+8], eax
  0005e	0f 57 c0	 xorps	 xmm0, xmm0
  00061	a1 00 00 00 00	 mov	 eax, DWORD PTR ?pDSound@@3PAUIDirectSound@@A ; pDSound
  00066	6a 00		 push	 0
  00068	53		 push	 ebx
  00069	c7 45 b8 00 00
	00 00		 mov	 DWORD PTR _dsbufferdesc$[ebp+12], 0
  00070	66 0f 13 45 c0	 movlpd	 QWORD PTR _dsbufferdesc$[ebp+20], xmm0
  00075	66 0f 13 45 c8	 movlpd	 QWORD PTR _dsbufferdesc$[ebp+28], xmm0
  0007a	c7 45 ac 24 00
	00 00		 mov	 DWORD PTR _dsbufferdesc$[ebp], 36 ; 00000024H
  00081	c7 45 b0 e0 01
	01 00		 mov	 DWORD PTR _dsbufferdesc$[ebp+4], 66016 ; 000101e0H
  00088	89 75 bc	 mov	 DWORD PTR _dsbufferdesc$[ebp+16], esi
  0008b	8b 08		 mov	 ecx, DWORD PTR [eax]
  0008d	52		 push	 edx
  0008e	50		 push	 eax
  0008f	ff 51 0c	 call	 DWORD PTR [ecx+12]
  00092	85 c0		 test	 eax, eax
  00094	75 7b		 jne	 SHORT $LN27@dwSoundIni

; 2694 : #ifdef  _STONDEBUG_
; 2695 : 		MessageBox(hWnd, "å»ºç«å£°é³çbufferå¤±è´¥ï¼", "Error", MB_OK);
; 2696 : #endif
; 2697 : 		return FALSE;
; 2698 : 	}
; 2699 : 
; 2700 : 
; 2701 : 	//??????????
; 2702 : 	if (WaveDataRead(hmmio, &DataSize, pDSData_stream) == FALSE) {

  00096	ff 35 00 00 00
	00		 push	 DWORD PTR ?pDSData_stream@@3PAUIDirectSoundBuffer@@A ; pDSData_stream
  0009c	8d 45 0c	 lea	 eax, DWORD PTR _DataSize$[ebp]
  0009f	50		 push	 eax
  000a0	57		 push	 edi
  000a1	e8 00 00 00 00	 call	 ?WaveDataRead@@YAHPAUHMMIO__@@PAKPAUIDirectSoundBuffer@@@Z ; WaveDataRead
  000a6	83 c4 0c	 add	 esp, 12			; 0000000cH
  000a9	85 c0		 test	 eax, eax
  000ab	74 64		 je	 SHORT $LN27@dwSoundIni

; 2703 : #ifdef  _STONDEBUG_
; 2704 : 		MessageBox(hWnd, "è¯»åWAVæ¡£å¤±è´¥ï¼", "Error", MB_OK);
; 2705 : #endif
; 2706 : 		return FALSE;
; 2707 : 	}
; 2708 : 
; 2709 : 	// ?????????????????????
; 2710 : //	WAVEFORMATEX pcmwf = *pWaveHeader;
; 2711 : 	DSBUFFERDESC dsbdesc;
; 2712 : 	// DSBUFFERDESC?î¨î?îî
; 2713 : 	ZeroMemory(&dsbdesc, sizeof(DSBUFFERDESC));
; 2714 : 	dsbdesc.dwSize = sizeof(DSBUFFERDESC);
; 2715 : #if ACTIVE
; 2716 : 	dsbdesc.dwFlags = DSBCAPS_CTRLPOSITIONNOTIFY | /*DSBCAPS_CTRLDEFAULT*/DSBCAPS_CTRLPAN | DSBCAPS_CTRLVOLUME | DSBCAPS_CTRLFREQUENCY | DSBCAPS_GETCURRENTPOSITION2 | DSBCAPS_GLOBALFOCUS;
; 2717 : #else
; 2718 : 	dsbdesc.dwFlags = DSBCAPS_CTRLPOSITIONNOTIFY | /*DSBCAPS_CTRLDEFAULT*/DSBCAPS_CTRLPAN | DSBCAPS_CTRLVOLUME | DSBCAPS_CTRLFREQUENCY | DSBCAPS_GETCURRENTPOSITION2;
; 2719 : #endif
; 2720 : 	// î¯?îî??Wave??????????î¾????????
; 2721 : 	dsbdesc.dwBufferBytes = 2 * pcmwf.nAvgBytesPerSec;

  000ad	8b 45 d8	 mov	 eax, DWORD PTR _pcmwf$[ebp+8]

; 2722 : 	dsbdesc.lpwfxFormat = &pcmwf;
; 2723 : 	ret = pDSound->CreateSoundBuffer(&dsbdesc, &pDSData_tone[TONE_MAX], NULL);

  000b0	8d 55 88	 lea	 edx, DWORD PTR _dsbdesc$[ebp]
  000b3	03 c0		 add	 eax, eax
  000b5	c7 45 94 00 00
	00 00		 mov	 DWORD PTR _dsbdesc$[ebp+12], 0
  000bc	89 45 90	 mov	 DWORD PTR _dsbdesc$[ebp+8], eax
  000bf	0f 57 c0	 xorps	 xmm0, xmm0
  000c2	8d 45 d0	 lea	 eax, DWORD PTR _pcmwf$[ebp]
  000c5	66 0f 13 45 9c	 movlpd	 QWORD PTR _dsbdesc$[ebp+20], xmm0
  000ca	89 45 98	 mov	 DWORD PTR _dsbdesc$[ebp+16], eax
  000cd	a1 00 00 00 00	 mov	 eax, DWORD PTR ?pDSound@@3PAUIDirectSound@@A ; pDSound
  000d2	6a 00		 push	 0
  000d4	68 d0 07 00 00	 push	 OFFSET ?pDSData_tone@@3PAPAUIDirectSoundBuffer@@A+2000
  000d9	66 0f 13 45 a4	 movlpd	 QWORD PTR _dsbdesc$[ebp+28], xmm0
  000de	c7 45 88 24 00
	00 00		 mov	 DWORD PTR _dsbdesc$[ebp], 36 ; 00000024H
  000e5	c7 45 8c e0 81
	01 00		 mov	 DWORD PTR _dsbdesc$[ebp+4], 98784 ; 000181e0H
  000ec	8b 08		 mov	 ecx, DWORD PTR [eax]
  000ee	52		 push	 edx
  000ef	50		 push	 eax
  000f0	ff 51 0c	 call	 DWORD PTR [ecx+12]

; 2724 : 	if (ret != DS_OK) {

  000f3	85 c0		 test	 eax, eax
  000f5	74 2d		 je	 SHORT $LN8@dwSoundIni

; 2725 : 		// ??????î?î§î²
; 2726 : //		RELEASE(pDSound);
; 2727 : 		RELEASE(pDSData_stream);

  000f7	8b 0d 00 00 00
	00		 mov	 ecx, DWORD PTR ?pDSData_stream@@3PAUIDirectSoundBuffer@@A ; pDSData_stream
  000fd	85 c9		 test	 ecx, ecx
  000ff	74 10		 je	 SHORT $LN27@dwSoundIni
  00101	8b 01		 mov	 eax, DWORD PTR [ecx]
  00103	51		 push	 ecx
  00104	ff 50 08	 call	 DWORD PTR [eax+8]
  00107	c7 05 00 00 00
	00 00 00 00 00	 mov	 DWORD PTR ?pDSData_stream@@3PAUIDirectSoundBuffer@@A, 0 ; pDSData_stream
$LN27@dwSoundIni:

; 2809 : 			break;
; 2810 : 	}
; 2811 : 
; 2812 : 	//	SetThreadPriority(hThreadHandle,THREAD_PRIORITY_HIGHEST);
; 2813 : 	//	SetThreadPriority(hThreadHandle,THREAD_PRIORITY_ABOVE_NORMAL);
; 2814 : 	//	pDSData_tone[ TONE_MAX ]->Play(0, 0, DSBPLAY_LOOPING);
; 2815 : 	return TRUE;
; 2816 : }

  00111	5f		 pop	 edi
  00112	5e		 pop	 esi
  00113	33 c0		 xor	 eax, eax
  00115	5b		 pop	 ebx
  00116	8b 4d fc	 mov	 ecx, DWORD PTR __$ArrayPad$[ebp]
  00119	33 cd		 xor	 ecx, ebp
  0011b	e8 00 00 00 00	 call	 @__security_check_cookie@4
  00120	8b e5		 mov	 esp, ebp
  00122	5d		 pop	 ebp
  00123	c3		 ret	 0
$LN8@dwSoundIni:

; 2728 : #ifdef  _STONDEBUG_
; 2729 : 		MessageBox(hWnd, "å»ºç«å£°é³çbufferå¤±è´¥ï¼", "Error", MB_OK);
; 2730 : #endif
; 2731 : 		return FALSE;
; 2732 : 	}
; 2733 : 
; 2734 : 	// DirectSoundNotify????????î??
; 2735 : 	ret = pDSData_tone[TONE_MAX]->QueryInterface(IID_IDirectSoundNotify, (LPVOID*)&pDSNotify);

  00124	a1 d0 07 00 00	 mov	 eax, DWORD PTR ?pDSData_tone@@3PAPAUIDirectSoundBuffer@@A+2000
  00129	68 00 00 00 00	 push	 OFFSET ?pDSNotify@@3PAUIDirectSoundNotify@@A
  0012e	68 00 00 00 00	 push	 OFFSET _IID_IDirectSoundNotify
  00133	50		 push	 eax
  00134	8b 08		 mov	 ecx, DWORD PTR [eax]
  00136	ff 11		 call	 DWORD PTR [ecx]

; 2736 : 	if (ret != DS_OK)

  00138	85 c0		 test	 eax, eax
  0013a	0f 85 87 00 00
	00		 jne	 $LN14@dwSoundIni

; 2737 : 	{
; 2738 : 		//		RELEASE(pDSound);
; 2739 : 		RELEASE(pDSData_stream);
; 2740 : 		RELEASE(pDSData_tone[TONE_MAX]);
; 2741 : #ifdef  _STONDEBUG_
; 2742 : 		MessageBox(hWnd, "å»ºç«DirectSoundNotifyå¤±è´¥ï¼", "Error", MB_OK);
; 2743 : #endif
; 2744 : 		return FALSE;
; 2745 : 		//  ?î?î§î²
; 2746 : 	}
; 2747 : 
; 2748 : 	// ?????????????î
; 2749 : 	hEvent[0] = CreateEvent(NULL, FALSE, FALSE, NULL);

  00140	8b 35 00 00 00
	00		 mov	 esi, DWORD PTR __imp__CreateEventA@16
  00146	50		 push	 eax
  00147	50		 push	 eax
  00148	50		 push	 eax
  00149	50		 push	 eax
  0014a	ff d6		 call	 esi

; 2750 : 	hEvent[1] = CreateEvent(NULL, FALSE, FALSE, NULL);

  0014c	6a 00		 push	 0
  0014e	6a 00		 push	 0
  00150	6a 00		 push	 0
  00152	6a 00		 push	 0
  00154	a3 00 00 00 00	 mov	 DWORD PTR ?hEvent@@3PAPAXA, eax
  00159	ff d6		 call	 esi

; 2751 : 	hEvent[2] = CreateEvent(NULL, FALSE, FALSE, NULL);

  0015b	6a 00		 push	 0
  0015d	6a 00		 push	 0
  0015f	6a 00		 push	 0
  00161	6a 00		 push	 0
  00163	a3 04 00 00 00	 mov	 DWORD PTR ?hEvent@@3PAPAXA+4, eax
  00168	ff d6		 call	 esi

; 2752 : 
; 2753 : 	// DirectSoundNotify???????îî??
; 2754 : 	// ?î¨î????
; 2755 : 	DSBPOSITIONNOTIFY  pn[3];
; 2756 : 	pn[0].dwOffset = 0;	// ?î¾?
; 2757 : 	pn[0].hEventNotify = hEvent[0];

  0016a	8b 0d 00 00 00
	00		 mov	 ecx, DWORD PTR ?hEvent@@3PAPAXA

; 2758 : 	pn[1].dwOffset = 1 * pcmwf.nAvgBytesPerSec;	// ?î¾?
; 2759 : 	pn[1].hEventNotify = hEvent[1];
; 2760 : 	pn[2].dwOffset = DSBPN_OFFSETSTOP;	// ?îîî
; 2761 : 	pn[2].hEventNotify = hEvent[2];	// ??????????????îî?????????î¸?
; 2762 : 
; 2763 : 	// îî?îºîî
; 2764 : 	HRESULT hr;
; 2765 : 	hr = pDSNotify->SetNotificationPositions(3, pn);

  00170	8d 55 e4	 lea	 edx, DWORD PTR _pn$[ebp]
  00173	a3 08 00 00 00	 mov	 DWORD PTR ?hEvent@@3PAPAXA+8, eax
  00178	89 4d e8	 mov	 DWORD PTR _pn$[ebp+4], ecx
  0017b	8b 4d d8	 mov	 ecx, DWORD PTR _pcmwf$[ebp+8]
  0017e	89 45 f8	 mov	 DWORD PTR _pn$[ebp+20], eax
  00181	a1 00 00 00 00	 mov	 eax, DWORD PTR ?pDSNotify@@3PAUIDirectSoundNotify@@A
  00186	89 4d ec	 mov	 DWORD PTR _pn$[ebp+8], ecx
  00189	8b 0d 04 00 00
	00		 mov	 ecx, DWORD PTR ?hEvent@@3PAPAXA+4
  0018f	52		 push	 edx
  00190	c7 45 e4 00 00
	00 00		 mov	 DWORD PTR _pn$[ebp], 0
  00197	89 4d f0	 mov	 DWORD PTR _pn$[ebp+12], ecx
  0019a	c7 45 f4 ff ff
	ff ff		 mov	 DWORD PTR _pn$[ebp+16], -1
  001a1	8b 08		 mov	 ecx, DWORD PTR [eax]
  001a3	6a 03		 push	 3
  001a5	50		 push	 eax
  001a6	ff 51 0c	 call	 DWORD PTR [ecx+12]

; 2766 : 	if (hr != DS_OK)

  001a9	85 c0		 test	 eax, eax
  001ab	74 65		 je	 SHORT $LN13@dwSoundIni

; 2767 : 	{
; 2768 : 		// îîî§î²
; 2769 : 		RELEASE(pDSNotify);

  001ad	8b 0d 00 00 00
	00		 mov	 ecx, DWORD PTR ?pDSNotify@@3PAUIDirectSoundNotify@@A
  001b3	85 c9		 test	 ecx, ecx
  001b5	74 10		 je	 SHORT $LN14@dwSoundIni
  001b7	8b 01		 mov	 eax, DWORD PTR [ecx]
  001b9	51		 push	 ecx
  001ba	ff 50 08	 call	 DWORD PTR [eax+8]
  001bd	c7 05 00 00 00
	00 00 00 00 00	 mov	 DWORD PTR ?pDSNotify@@3PAUIDirectSoundNotify@@A, 0
$LN14@dwSoundIni:

; 2796 : 	{
; 2797 : #ifdef  _STONDEBUG_
; 2798 : 		// ?????îî?î§î²
; 2799 : #ifdef  _STONDEBUG_
; 2800 : 		MessageBox(hWnd, "å»ºç«Threadå¤±è´¥ï¼", "Error", MB_OK);
; 2801 : #endif
; 2802 : #endif
; 2803 : 		return FALSE;

  001c7	8b 0d 00 00 00
	00		 mov	 ecx, DWORD PTR ?pDSData_stream@@3PAUIDirectSoundBuffer@@A ; pDSData_stream
  001cd	85 c9		 test	 ecx, ecx
  001cf	74 10		 je	 SHORT $LN15@dwSoundIni
  001d1	8b 01		 mov	 eax, DWORD PTR [ecx]
  001d3	51		 push	 ecx
  001d4	ff 50 08	 call	 DWORD PTR [eax+8]
  001d7	c7 05 00 00 00
	00 00 00 00 00	 mov	 DWORD PTR ?pDSData_stream@@3PAUIDirectSoundBuffer@@A, 0 ; pDSData_stream
$LN15@dwSoundIni:
  001e1	8b 0d d0 07 00
	00		 mov	 ecx, DWORD PTR ?pDSData_tone@@3PAPAUIDirectSoundBuffer@@A+2000
  001e7	85 c9		 test	 ecx, ecx
  001e9	0f 84 22 ff ff
	ff		 je	 $LN27@dwSoundIni
  001ef	8b 01		 mov	 eax, DWORD PTR [ecx]
  001f1	51		 push	 ecx
  001f2	ff 50 08	 call	 DWORD PTR [eax+8]
  001f5	5f		 pop	 edi

; 2809 : 			break;
; 2810 : 	}
; 2811 : 
; 2812 : 	//	SetThreadPriority(hThreadHandle,THREAD_PRIORITY_HIGHEST);
; 2813 : 	//	SetThreadPriority(hThreadHandle,THREAD_PRIORITY_ABOVE_NORMAL);
; 2814 : 	//	pDSData_tone[ TONE_MAX ]->Play(0, 0, DSBPLAY_LOOPING);
; 2815 : 	return TRUE;
; 2816 : }

  001f6	5e		 pop	 esi
  001f7	c7 05 d0 07 00
	00 00 00 00 00	 mov	 DWORD PTR ?pDSData_tone@@3PAPAUIDirectSoundBuffer@@A+2000, 0
  00201	33 c0		 xor	 eax, eax
  00203	5b		 pop	 ebx
  00204	8b 4d fc	 mov	 ecx, DWORD PTR __$ArrayPad$[ebp]
  00207	33 cd		 xor	 ecx, ebp
  00209	e8 00 00 00 00	 call	 @__security_check_cookie@4
  0020e	8b e5		 mov	 esp, ebp
  00210	5d		 pop	 ebp
  00211	c3		 ret	 0
$LN13@dwSoundIni:

; 2770 : 		//		RELEASE(pDSound);
; 2771 : 		RELEASE(pDSData_stream);
; 2772 : 		RELEASE(pDSData_tone[TONE_MAX]);
; 2773 : #ifdef  _STONDEBUG_
; 2774 : 		MessageBox(hWnd, "è®¾å®DirectSoundNotifyå¤±è´¥ï¼", "Error", MB_OK);
; 2775 : #endif
; 2776 : 		return FALSE;
; 2777 : 	}
; 2778 : 
; 2779 : 	stream_flg = 1;		//?î??????
; 2780 : 
; 2781 : 	// ??????????????
; 2782 : 	thread_start_flg = 0;
; 2783 : 
; 2784 : 	// ?î????????
; 2785 : 	sd.pDSBuffer = pDSData_tone[TONE_MAX];	// ????????î??DirectSoundBuffer??????

  00212	a1 d0 07 00 00	 mov	 eax, DWORD PTR ?pDSData_tone@@3PAPAUIDirectSoundBuffer@@A+2000

; 2786 : 	sd.phEvent = hEvent;	// 4.4.??????????????î¹?
; 2787 : 	sd.dwEventNum = 3;	// ????????????
; 2788 : 	sd.dwStopEventNum = 2;	// ??????????????îî?????
; 2789 : 	sd.lpWaveData = pDSbuffData;	// ?î??Wave?????????îî?
; 2790 : 	sd.dwWaveSize = DataSize;	// ?î??Wave????î«???îî?
; 2791 : 	sd.dwBlock_size = pcmwf.nAvgBytesPerSec;	// 44.1kHz???????????
; 2792 : 
; 2793 : 	// ??????????
; 2794 : 	hThreadHandle = CreateThread(NULL, 0, MyThreadFunc, &sd, 0, &dwThreadID);

  00217	68 00 00 00 00	 push	 OFFSET ?dwThreadID@@3KA	; dwThreadID
  0021c	6a 00		 push	 0
  0021e	68 00 00 00 00	 push	 OFFSET ?sd@@3USoundData@@A ; sd
  00223	a3 00 00 00 00	 mov	 DWORD PTR ?sd@@3USoundData@@A, eax
  00228	a1 00 00 00 00	 mov	 eax, DWORD PTR ?pDSbuffData@@3PAEA
  0022d	68 00 00 00 00	 push	 OFFSET ?MyThreadFunc@@YGKPAX@Z ; MyThreadFunc
  00232	a3 10 00 00 00	 mov	 DWORD PTR ?sd@@3USoundData@@A+16, eax
  00237	8b 45 0c	 mov	 eax, DWORD PTR _DataSize$[ebp]
  0023a	6a 00		 push	 0
  0023c	a3 14 00 00 00	 mov	 DWORD PTR ?sd@@3USoundData@@A+20, eax
  00241	8b 45 d8	 mov	 eax, DWORD PTR _pcmwf$[ebp+8]
  00244	c6 05 00 00 00
	00 01		 mov	 BYTE PTR ?stream_flg@@3DA, 1
  0024b	6a 00		 push	 0
  0024d	c7 05 00 00 00
	00 00 00 00 00	 mov	 DWORD PTR ?thread_start_flg@@3HC, 0
  00257	c7 05 04 00 00
	00 00 00 00 00	 mov	 DWORD PTR ?sd@@3USoundData@@A+4, OFFSET ?hEvent@@3PAPAXA ; hEvent
  00261	c7 05 08 00 00
	00 03 00 00 00	 mov	 DWORD PTR ?sd@@3USoundData@@A+8, 3
  0026b	c7 05 0c 00 00
	00 02 00 00 00	 mov	 DWORD PTR ?sd@@3USoundData@@A+12, 2
  00275	a3 18 00 00 00	 mov	 DWORD PTR ?sd@@3USoundData@@A+24, eax
  0027a	ff 15 00 00 00
	00		 call	 DWORD PTR __imp__CreateThread@24
  00280	a3 00 00 00 00	 mov	 DWORD PTR ?hThreadHandle@@3PAXA, eax ; hThreadHandle

; 2795 : 	if (hThreadHandle == NULL)

  00285	85 c0		 test	 eax, eax
  00287	0f 84 84 fe ff
	ff		 je	 $LN27@dwSoundIni
  0028d	0f 1f 00	 npad	 3
$LL2@dwSoundIni:

; 2804 : 	}
; 2805 : 
; 2806 : 	// ??????????î?
; 2807 : 	while (1) {
; 2808 : 		if (thread_start_flg)

  00290	83 3d 00 00 00
	00 00		 cmp	 DWORD PTR ?thread_start_flg@@3HC, 0
  00297	74 f7		 je	 SHORT $LL2@dwSoundIni

; 2809 : 			break;
; 2810 : 	}
; 2811 : 
; 2812 : 	//	SetThreadPriority(hThreadHandle,THREAD_PRIORITY_HIGHEST);
; 2813 : 	//	SetThreadPriority(hThreadHandle,THREAD_PRIORITY_ABOVE_NORMAL);
; 2814 : 	//	pDSData_tone[ TONE_MAX ]->Play(0, 0, DSBPLAY_LOOPING);
; 2815 : 	return TRUE;
; 2816 : }

  00299	8b 4d fc	 mov	 ecx, DWORD PTR __$ArrayPad$[ebp]
  0029c	b8 01 00 00 00	 mov	 eax, 1
  002a1	5f		 pop	 edi
  002a2	5e		 pop	 esi
  002a3	33 cd		 xor	 ecx, ebp
  002a5	5b		 pop	 ebx
  002a6	e8 00 00 00 00	 call	 @__security_check_cookie@4
  002ab	8b e5		 mov	 esp, ebp
  002ad	5d		 pop	 ebp
  002ae	c3		 ret	 0
?dwSoundInit2@@YAHPAUtWAVEFORMATEX@@KPAPAUIDirectSoundBuffer@@PAUHMMIO__@@@Z ENDP ; dwSoundInit2
_TEXT	ENDS
; Function compile flags: /Ogtp
; File C:\Users\gg862\OneDrive\¹ÙÅÁ È­¸é\¸¾Äí¿Ï·á\Client Source Code1.31ÀÏº»\system\t_music.cpp
;	COMDAT ?MyThreadFunc@@YGKPAX@Z
_TEXT	SEGMENT
_waveAdd$ = -4						; size = 4
_param$ = 8						; size = 4
?MyThreadFunc@@YGKPAX@Z PROC				; MyThreadFunc, COMDAT

; 2628 : {

  00000	55		 push	 ebp
  00001	8b ec		 mov	 ebp, esp
  00003	51		 push	 ecx
  00004	56		 push	 esi

; 2629 : 	LONG waveAdd = 0;
; 2630 : 	// ??????????????????????
; 2631 : 	Block_Copy(sd.pDSBuffer, 0, sd.dwBlock_size, sd.lpWaveData, waveAdd, sd.dwWaveSize);

  00005	ff 35 14 00 00
	00		 push	 DWORD PTR ?sd@@3USoundData@@A+20
  0000b	8d 45 fc	 lea	 eax, DWORD PTR _waveAdd$[ebp]
  0000e	c7 45 fc 00 00
	00 00		 mov	 DWORD PTR _waveAdd$[ebp], 0
  00015	50		 push	 eax
  00016	ff 35 10 00 00
	00		 push	 DWORD PTR ?sd@@3USoundData@@A+16
  0001c	ff 35 18 00 00
	00		 push	 DWORD PTR ?sd@@3USoundData@@A+24
  00022	6a 00		 push	 0
  00024	ff 35 00 00 00
	00		 push	 DWORD PTR ?sd@@3USoundData@@A
  0002a	e8 00 00 00 00	 call	 ?Block_Copy@@YAXPAUIDirectSoundBuffer@@KKPAEAAJJ@Z ; Block_Copy

; 2632 : 	thread_start_flg = 1;

  0002f	8b 35 00 00 00
	00		 mov	 esi, DWORD PTR __imp__WaitForMultipleObjects@16
  00035	c7 05 00 00 00
	00 01 00 00 00	 mov	 DWORD PTR ?thread_start_flg@@3HC, 1
$LN20@MyThreadFu:

; 2633 : 	// ????????î¡?????î¼??
; 2634 : 	while (TRUE)
; 2635 : 	{
; 2636 : 		// DirectSoundBuffer????????î?
; 2637 : 		DWORD i = WaitForMultipleObjects(sd.dwEventNum, sd.phEvent, FALSE, INFINITE);

  0003f	83 c4 18	 add	 esp, 24			; 00000018H
  00042	6a ff		 push	 -1
  00044	6a 00		 push	 0
  00046	ff 35 04 00 00
	00		 push	 DWORD PTR ?sd@@3USoundData@@A+4
  0004c	ff 35 08 00 00
	00		 push	 DWORD PTR ?sd@@3USoundData@@A+8
  00052	ff d6		 call	 esi

; 2638 : 		// ??????????????î???????????????????
; 2639 : 		wave_count++;

  00054	ff 05 00 00 00
	00		 inc	 DWORD PTR ?wave_count@@3JA

; 2640 : 		switch (i)

  0005a	83 e8 00	 sub	 eax, 0
  0005d	74 37		 je	 SHORT $LN7@MyThreadFu
  0005f	83 e8 01	 sub	 eax, 1
  00062	75 68		 jne	 SHORT $LN17@MyThreadFu

; 2641 : 		{
; 2642 : 		case WAIT_OBJECT_0 + 1:
; 2643 : 			// ?î±???????????
; 2644 : 			buffer_address = 0; wave_address = waveAdd;
; 2645 : 			Block_Copy(sd.pDSBuffer, 0, sd.dwBlock_size, sd.lpWaveData, waveAdd, sd.dwWaveSize);

  00064	ff 35 14 00 00
	00		 push	 DWORD PTR ?sd@@3USoundData@@A+20
  0006a	a3 00 00 00 00	 mov	 DWORD PTR ?buffer_address@@3JA, eax
  0006f	8b 45 fc	 mov	 eax, DWORD PTR _waveAdd$[ebp]
  00072	a3 00 00 00 00	 mov	 DWORD PTR ?wave_address@@3JA, eax
  00077	8d 45 fc	 lea	 eax, DWORD PTR _waveAdd$[ebp]
  0007a	50		 push	 eax
  0007b	ff 35 10 00 00
	00		 push	 DWORD PTR ?sd@@3USoundData@@A+16
  00081	ff 35 18 00 00
	00		 push	 DWORD PTR ?sd@@3USoundData@@A+24
  00087	6a 00		 push	 0
  00089	ff 35 00 00 00
	00		 push	 DWORD PTR ?sd@@3USoundData@@A
  0008f	e8 00 00 00 00	 call	 ?Block_Copy@@YAXPAUIDirectSoundBuffer@@KKPAEAAJJ@Z ; Block_Copy

; 2646 : 			break;

  00094	eb a9		 jmp	 SHORT $LN20@MyThreadFu
$LN7@MyThreadFu:

; 2647 : 		case WAIT_OBJECT_0:
; 2648 : 			// ?î±???????????
; 2649 : 			buffer_address = sd.dwBlock_size; wave_address = waveAdd;
; 2650 : 			Block_Copy(sd.pDSBuffer, sd.dwBlock_size, sd.dwBlock_size, sd.lpWaveData, waveAdd, sd.dwWaveSize);

  00096	ff 35 14 00 00
	00		 push	 DWORD PTR ?sd@@3USoundData@@A+20
  0009c	8b 45 fc	 mov	 eax, DWORD PTR _waveAdd$[ebp]
  0009f	8b 0d 18 00 00
	00		 mov	 ecx, DWORD PTR ?sd@@3USoundData@@A+24
  000a5	a3 00 00 00 00	 mov	 DWORD PTR ?wave_address@@3JA, eax
  000aa	8d 45 fc	 lea	 eax, DWORD PTR _waveAdd$[ebp]
  000ad	50		 push	 eax
  000ae	ff 35 10 00 00
	00		 push	 DWORD PTR ?sd@@3USoundData@@A+16
  000b4	89 0d 00 00 00
	00		 mov	 DWORD PTR ?buffer_address@@3JA, ecx
  000ba	51		 push	 ecx
  000bb	51		 push	 ecx
  000bc	ff 35 00 00 00
	00		 push	 DWORD PTR ?sd@@3USoundData@@A
  000c2	e8 00 00 00 00	 call	 ?Block_Copy@@YAXPAUIDirectSoundBuffer@@KKPAEAAJJ@Z ; Block_Copy

; 2651 : 			break;
; 2652 : 		case WAIT_OBJECT_0 + 2:
; 2653 : 			// ?îî·?????????î·???
; 2654 : 			exit_thread_flg = 1;
; 2655 : 			ExitThread(TRUE);
; 2656 : 		default:
; 2657 : 			// ?îî·?????????î·???
; 2658 : 			exit_thread_flg = 1;
; 2659 : 			ExitThread(TRUE);
; 2660 : 		}
; 2661 : 		//		InvalidateRect(hwndApp, NULL, TRUE);
; 2662 : 	}

  000c7	e9 73 ff ff ff	 jmp	 $LN20@MyThreadFu
$LN17@MyThreadFu:

; 2640 : 		switch (i)

  000cc	83 e8 01	 sub	 eax, 1
  000cf	c6 05 00 00 00
	00 01		 mov	 BYTE PTR ?exit_thread_flg@@3DC, 1
  000d6	6a 01		 push	 1

; 2663 : 	return 0L;
; 2664 : }

  000d8	ff 15 00 00 00
	00		 call	 DWORD PTR __imp__ExitThread@4
$LN19@MyThreadFu:
  000de	cc		 int	 3
?MyThreadFunc@@YGKPAX@Z ENDP				; MyThreadFunc
_TEXT	ENDS
; Function compile flags: /Ogtp
; File C:\Users\gg862\OneDrive\¹ÙÅÁ È­¸é\¸¾Äí¿Ï·á\Client Source Code1.31ÀÏº»\system\t_music.cpp
;	COMDAT ?Block_Copy@@YAXPAUIDirectSoundBuffer@@KKPAEAAJJ@Z
_TEXT	SEGMENT
_lpBlockAdd2$ = -8					; size = 4
_blockSize1$ = -4					; size = 4
_lpBuffer$ = 8						; size = 4
_blockadd$ = 12						; size = 4
_blocksize$ = 16					; size = 4
_lpWave$ = 20						; size = 4
_blockSize2$ = 24					; size = 4
_waveAdd$ = 24						; size = 4
_lpBlockAdd1$ = 28					; size = 4
_waveSize$ = 28						; size = 4
?Block_Copy@@YAXPAUIDirectSoundBuffer@@KKPAEAAJJ@Z PROC	; Block_Copy, COMDAT

; 2580 : {

  00000	55		 push	 ebp
  00001	8b ec		 mov	 ebp, esp

; 2581 : 	LPBYTE lpBlockAdd1, lpBlockAdd2;
; 2582 : 	DWORD blockSize1, blockSize2;
; 2583 : 	LONG ws = waveSize - waveAdd;
; 2584 : 
; 2585 : 	// ????????
; 2586 : 	HRESULT hr = lpBuffer->Lock(blockadd, blocksize, (LPVOID*)&lpBlockAdd1, &blockSize1, (LPVOID*)&lpBlockAdd2, &blockSize2, 0);

  00003	8b 4d 08	 mov	 ecx, DWORD PTR _lpBuffer$[ebp]
  00006	8d 55 18	 lea	 edx, DWORD PTR _blockSize2$[ebp]
  00009	83 ec 08	 sub	 esp, 8
  0000c	8b 01		 mov	 eax, DWORD PTR [ecx]
  0000e	53		 push	 ebx
  0000f	56		 push	 esi
  00010	8b 75 18	 mov	 esi, DWORD PTR _waveAdd$[ebp]
  00013	57		 push	 edi
  00014	8b 7d 1c	 mov	 edi, DWORD PTR _waveSize$[ebp]
  00017	8b df		 mov	 ebx, edi
  00019	6a 00		 push	 0
  0001b	2b 1e		 sub	 ebx, DWORD PTR [esi]
  0001d	52		 push	 edx
  0001e	8d 55 f8	 lea	 edx, DWORD PTR _lpBlockAdd2$[ebp]
  00021	52		 push	 edx
  00022	8d 55 fc	 lea	 edx, DWORD PTR _blockSize1$[ebp]
  00025	52		 push	 edx
  00026	8d 55 1c	 lea	 edx, DWORD PTR _lpBlockAdd1$[ebp]
  00029	52		 push	 edx
  0002a	ff 75 10	 push	 DWORD PTR _blocksize$[ebp]
  0002d	ff 75 0c	 push	 DWORD PTR _blockadd$[ebp]
  00030	51		 push	 ecx
  00031	ff 50 2c	 call	 DWORD PTR [eax+44]

; 2587 : 	if (hr == DS_OK)

  00034	85 c0		 test	 eax, eax
  00036	0f 85 be 00 00
	00		 jne	 $LN2@Block_Copy

; 2588 : 	{
; 2589 : 		if (ws < (long)blockSize1)

  0003c	8b 06		 mov	 eax, DWORD PTR [esi]
  0003e	03 45 14	 add	 eax, DWORD PTR _lpWave$[ebp]
  00041	8b 4d fc	 mov	 ecx, DWORD PTR _blockSize1$[ebp]
  00044	3b d9		 cmp	 ebx, ecx
  00046	7d 33		 jge	 SHORT $LN3@Block_Copy

; 2590 : 		{
; 2591 : 			CopyMemory(lpBlockAdd1, lpWave + waveAdd, ws);

  00048	53		 push	 ebx
  00049	50		 push	 eax
  0004a	ff 75 1c	 push	 DWORD PTR _lpBlockAdd1$[ebp]
  0004d	e8 00 00 00 00	 call	 _memcpy

; 2592 : 			waveAdd = blockSize1 - ws;

  00052	8b 45 fc	 mov	 eax, DWORD PTR _blockSize1$[ebp]
  00055	2b c3		 sub	 eax, ebx

; 2593 : 			CopyMemory(lpBlockAdd1 + ws, lpWave + thread_loop_start, waveAdd);

  00057	50		 push	 eax
  00058	89 06		 mov	 DWORD PTR [esi], eax
  0005a	a1 00 00 00 00	 mov	 eax, DWORD PTR ?thread_loop_start@@3HA
  0005f	03 45 14	 add	 eax, DWORD PTR _lpWave$[ebp]
  00062	50		 push	 eax
  00063	8b 45 1c	 mov	 eax, DWORD PTR _lpBlockAdd1$[ebp]
  00066	03 c3		 add	 eax, ebx
  00068	50		 push	 eax
  00069	e8 00 00 00 00	 call	 _memcpy

; 2594 : 			waveAdd += thread_loop_start;

  0006e	8b 1d 00 00 00
	00		 mov	 ebx, DWORD PTR ?thread_loop_start@@3HA
  00074	83 c4 18	 add	 esp, 24			; 00000018H
  00077	01 1e		 add	 DWORD PTR [esi], ebx

; 2595 : 		}

  00079	eb 18		 jmp	 SHORT $LN10@Block_Copy
$LN3@Block_Copy:

; 2596 : 		else
; 2597 : 		{
; 2598 : 			CopyMemory(lpBlockAdd1, lpWave + waveAdd, blockSize1);

  0007b	51		 push	 ecx
  0007c	50		 push	 eax
  0007d	ff 75 1c	 push	 DWORD PTR _lpBlockAdd1$[ebp]
  00080	e8 00 00 00 00	 call	 _memcpy

; 2599 : 			waveAdd += blockSize1;

  00085	8b 45 fc	 mov	 eax, DWORD PTR _blockSize1$[ebp]
  00088	83 c4 0c	 add	 esp, 12			; 0000000cH
  0008b	01 06		 add	 DWORD PTR [esi], eax
  0008d	8b 1d 00 00 00
	00		 mov	 ebx, DWORD PTR ?thread_loop_start@@3HA
$LN10@Block_Copy:

; 2600 : 		}
; 2601 : 		if (lpBlockAdd2)

  00093	8b 4d f8	 mov	 ecx, DWORD PTR _lpBlockAdd2$[ebp]
  00096	8b 16		 mov	 edx, DWORD PTR [esi]
  00098	85 c9		 test	 ecx, ecx
  0009a	74 4b		 je	 SHORT $LN9@Block_Copy

; 2602 : 		{
; 2603 : 			ws = waveSize - waveAdd;

  0009c	8b 45 14	 mov	 eax, DWORD PTR _lpWave$[ebp]
  0009f	2b fa		 sub	 edi, edx
  000a1	03 c2		 add	 eax, edx

; 2604 : 			if (ws < (long)blockSize2)

  000a3	8b 55 18	 mov	 edx, DWORD PTR _blockSize2$[ebp]
  000a6	3b fa		 cmp	 edi, edx
  000a8	7d 2a		 jge	 SHORT $LN6@Block_Copy

; 2605 : 			{
; 2606 : 				CopyMemory(lpBlockAdd1, lpWave + waveAdd, ws);

  000aa	57		 push	 edi
  000ab	50		 push	 eax
  000ac	ff 75 1c	 push	 DWORD PTR _lpBlockAdd1$[ebp]
  000af	e8 00 00 00 00	 call	 _memcpy

; 2607 : 				waveAdd = blockSize2 - ws;

  000b4	8b 45 18	 mov	 eax, DWORD PTR _blockSize2$[ebp]
  000b7	2b c7		 sub	 eax, edi

; 2608 : 				CopyMemory(lpBlockAdd1 + ws, lpWave + thread_loop_start, waveAdd);

  000b9	50		 push	 eax
  000ba	89 06		 mov	 DWORD PTR [esi], eax
  000bc	8b 45 14	 mov	 eax, DWORD PTR _lpWave$[ebp]
  000bf	03 c3		 add	 eax, ebx
  000c1	50		 push	 eax
  000c2	8b 45 1c	 mov	 eax, DWORD PTR _lpBlockAdd1$[ebp]
  000c5	03 c7		 add	 eax, edi
  000c7	50		 push	 eax
  000c8	e8 00 00 00 00	 call	 _memcpy
  000cd	83 c4 18	 add	 esp, 24			; 00000018H

; 2609 : 				waveAdd += thread_loop_start;

  000d0	01 1e		 add	 DWORD PTR [esi], ebx

; 2610 : 			}

  000d2	eb 10		 jmp	 SHORT $LN11@Block_Copy
$LN6@Block_Copy:

; 2611 : 			else
; 2612 : 			{
; 2613 : 				CopyMemory(lpBlockAdd2, lpWave + waveAdd, blockSize2);

  000d4	52		 push	 edx
  000d5	50		 push	 eax
  000d6	51		 push	 ecx
  000d7	e8 00 00 00 00	 call	 _memcpy

; 2614 : 				waveAdd += blockSize2;

  000dc	8b 45 18	 mov	 eax, DWORD PTR _blockSize2$[ebp]
  000df	83 c4 0c	 add	 esp, 12			; 0000000cH
  000e2	01 06		 add	 DWORD PTR [esi], eax
$LN11@Block_Copy:

; 2615 : 			}
; 2616 : 		}
; 2617 : 		lpBuffer->Unlock(lpBlockAdd1, blockSize1, lpBlockAdd2, blockSize2);

  000e4	8b 4d f8	 mov	 ecx, DWORD PTR _lpBlockAdd2$[ebp]
$LN9@Block_Copy:
  000e7	ff 75 18	 push	 DWORD PTR _blockSize2$[ebp]
  000ea	8b 55 08	 mov	 edx, DWORD PTR _lpBuffer$[ebp]
  000ed	51		 push	 ecx
  000ee	ff 75 fc	 push	 DWORD PTR _blockSize1$[ebp]
  000f1	ff 75 1c	 push	 DWORD PTR _lpBlockAdd1$[ebp]
  000f4	8b 02		 mov	 eax, DWORD PTR [edx]
  000f6	52		 push	 edx
  000f7	ff 50 4c	 call	 DWORD PTR [eax+76]
$LN2@Block_Copy:

; 2618 : 	}
; 2619 : }

  000fa	5f		 pop	 edi
  000fb	5e		 pop	 esi
  000fc	5b		 pop	 ebx
  000fd	8b e5		 mov	 esp, ebp
  000ff	5d		 pop	 ebp
  00100	c3		 ret	 0
?Block_Copy@@YAXPAUIDirectSoundBuffer@@KKPAEAAJJ@Z ENDP	; Block_Copy
_TEXT	ENDS
; Function compile flags: /Ogtp
; File C:\Users\gg862\OneDrive\¹ÙÅÁ È­¸é\¸¾Äí¿Ï·á\Client Source Code1.31ÀÏº»\system\t_music.cpp
;	COMDAT ?music@@YAXXZ
_TEXT	SEGMENT
_d0$1 = -8						; size = 8
?music@@YAXXZ PROC					; music, COMDAT

; 2347 : {

  00000	55		 push	 ebp
  00001	8b ec		 mov	 ebp, esp
  00003	83 ec 08	 sub	 esp, 8

; 2348 : 	int d7;
; 2349 : #if 1
; 2350 : #if THREAD_ON
; 2351 : 	while (!thread_flg) {

  00006	83 3d 00 00 00
	00 00		 cmp	 DWORD PTR ?thread_flg@@3HA, 0 ; thread_flg
  0000d	53		 push	 ebx
  0000e	56		 push	 esi
  0000f	57		 push	 edi
  00010	0f 85 9b 00 00
	00		 jne	 $LN3@music
  00016	8b 1d 00 00 00
	00		 mov	 ebx, DWORD PTR __imp__Sleep@4
  0001c	8b 35 00 00 00
	00		 mov	 esi, DWORD PTR __imp__QueryPerformanceCounter@4
$LL2@music:

; 2352 : #if CLASS_UP
; 2353 : 		Sleep(1);		//?î?

  00022	6a 01		 push	 1
  00024	ff d3		 call	 ebx

; 2354 : #endif
; 2355 : #endif
; 2356 : 		LARGE_INTEGER d0;
; 2357 : 		QueryPerformanceCounter(&d0);

  00026	8d 45 f8	 lea	 eax, DWORD PTR _d0$1[ebp]
  00029	50		 push	 eax
  0002a	ff d6		 call	 esi

; 2358 : 		if ((d_cnt.LowPart + tempo.LowPart) > d0.LowPart)

  0002c	a1 00 00 00 00	 mov	 eax, DWORD PTR ?tempo@@3T_LARGE_INTEGER@@A
  00031	03 05 00 00 00
	00		 add	 eax, DWORD PTR ?d_cnt@@3T_LARGE_INTEGER@@A
  00037	3b 45 f8	 cmp	 eax, DWORD PTR _d0$1[ebp]
  0003a	77 68		 ja	 SHORT $LN12@music

; 2359 : #if THREAD_ON
; 2360 : 		{
; 2361 : 			continue;
; 2362 : 		}
; 2363 : #else
; 2364 : 			return;
; 2365 : #endif
; 2366 : #if !DEBUG_ON
; 2367 : 		if (abs(d0.LowPart - d_cnt.LowPart) > 3333333)
; 2368 : #if THREAD_ON
; 2369 : 			continue;
; 2370 : #else
; 2371 : 			return;
; 2372 : #endif
; 2373 : #endif
; 2374 : 		d_cnt.LowPart += tempo.LowPart;
; 2375 : #endif
; 2376 : 		if (!pause_flg) {

  0003c	83 3d 00 00 00
	00 00		 cmp	 DWORD PTR ?pause_flg@@3HA, 0
  00043	a3 00 00 00 00	 mov	 DWORD PTR ?d_cnt@@3T_LARGE_INTEGER@@A, eax
  00048	75 4f		 jne	 SHORT $LN11@music

; 2377 : #if VOICE_KILL_ON
; 2378 : 			for (d7 = 0; d7 < voice_kill_point; d7++) {
; 2379 : 				voice[voice_kill_buf[d7]].name = 0;			//??????î
; 2380 : 				pDSData[voice_kill_buf[d7]]->Stop();		//????
; 2381 : 				pDSData[voice_kill_buf[d7]]->SetCurrentPosition(0);	//
; 2382 : 			}
; 2383 : 			voice_kill_point = 0;
; 2384 : #endif
; 2385 : 			for (d7 = 0; d7 < VOICE_MAX; d7++) {

  0004a	33 ff		 xor	 edi, edi
  0004c	be 00 00 00 00	 mov	 esi, OFFSET ?voice@@3PAUVOICE_EQU@@A ; voice
$LL6@music:

; 2386 : 				if (voice[d7].name) {

  00051	83 3e 00	 cmp	 DWORD PTR [esi], 0
  00054	74 09		 je	 SHORT $LN4@music

; 2387 : 					voice_action(d7);

  00056	57		 push	 edi
  00057	e8 00 00 00 00	 call	 ?voice_action@@YAXH@Z	; voice_action
  0005c	83 c4 04	 add	 esp, 4
$LN4@music:

; 2377 : #if VOICE_KILL_ON
; 2378 : 			for (d7 = 0; d7 < voice_kill_point; d7++) {
; 2379 : 				voice[voice_kill_buf[d7]].name = 0;			//??????î
; 2380 : 				pDSData[voice_kill_buf[d7]]->Stop();		//????
; 2381 : 				pDSData[voice_kill_buf[d7]]->SetCurrentPosition(0);	//
; 2382 : 			}
; 2383 : 			voice_kill_point = 0;
; 2384 : #endif
; 2385 : 			for (d7 = 0; d7 < VOICE_MAX; d7++) {

  0005f	83 c6 3c	 add	 esi, 60			; 0000003cH
  00062	47		 inc	 edi
  00063	81 fe 00 0f 00
	00		 cmp	 esi, OFFSET ?voice@@3PAUVOICE_EQU@@A+3840
  00069	7c e6		 jl	 SHORT $LL6@music

; 2388 : 				}
; 2389 : 			}
; 2390 : 			for (ch = 0; ch < TRACK_MAX; ch++) {

  0006b	33 c0		 xor	 eax, eax
  0006d	a3 00 00 00 00	 mov	 DWORD PTR ?ch@@3HA, eax
$LL9@music:

; 2391 : 				if (play_track_flg[ch])

  00072	83 3c 85 00 00
	00 00 00	 cmp	 DWORD PTR ?play_track_flg@@3PAHA[eax*4], 0
  0007a	74 0a		 je	 SHORT $LN7@music

; 2392 : 					gate();

  0007c	e8 00 00 00 00	 call	 ?gate@@YAXXZ		; gate
  00081	a1 00 00 00 00	 mov	 eax, DWORD PTR ?ch@@3HA
$LN7@music:

; 2388 : 				}
; 2389 : 			}
; 2390 : 			for (ch = 0; ch < TRACK_MAX; ch++) {

  00086	40		 inc	 eax
  00087	a3 00 00 00 00	 mov	 DWORD PTR ?ch@@3HA, eax
  0008c	83 f8 20	 cmp	 eax, 32			; 00000020H
  0008f	7c e1		 jl	 SHORT $LL9@music

; 2393 : 			}
; 2394 : 		}

  00091	8b 35 00 00 00
	00		 mov	 esi, DWORD PTR __imp__QueryPerformanceCounter@4
  00097	eb 0b		 jmp	 SHORT $LN12@music
$LN11@music:

; 2395 : 		else {
; 2396 : 
; 2397 : #if CLASS_UP
; 2398 : 			Sleep(8);		//????

  00099	6a 08		 push	 8
  0009b	ff d3		 call	 ebx

; 2399 : #endif
; 2400 : 			QueryPerformanceCounter(&d_cnt);

  0009d	68 00 00 00 00	 push	 OFFSET ?d_cnt@@3T_LARGE_INTEGER@@A
  000a2	ff d6		 call	 esi
$LN12@music:

; 2348 : 	int d7;
; 2349 : #if 1
; 2350 : #if THREAD_ON
; 2351 : 	while (!thread_flg) {

  000a4	83 3d 00 00 00
	00 00		 cmp	 DWORD PTR ?thread_flg@@3HA, 0 ; thread_flg
  000ab	0f 84 71 ff ff
	ff		 je	 $LL2@music
$LN3@music:

; 2401 : 		}
; 2402 : 
; 2403 : #if 0		//--------------
; 2404 : 
; 2405 : #if CLASS_UP
; 2406 : #if MODE98
; 2407 : 		if (tempo.LowPart > 10080 * 2)		//??????î ¹???
; 2408 : #else
; 2409 : 		if (tempo.LowPart > 10080)		//??????î ¹???
; 2410 : #endif
; 2411 : 			Sleep(2);		//?î?
; 2412 : 		else
; 2413 : 			Sleep(1);		//?î?
; 2414 : #endif
; 2415 : 
; 2416 : #endif		//--------------
; 2417 : 
; 2418 : #if THREAD_ON
; 2419 : 	}
; 2420 : 	thread_flg = 2;
; 2421 : 	ExitThread(TRUE);

  000b1	6a 01		 push	 1
  000b3	c7 05 00 00 00
	00 02 00 00 00	 mov	 DWORD PTR ?thread_flg@@3HA, 2 ; thread_flg
  000bd	ff 15 00 00 00
	00		 call	 DWORD PTR __imp__ExitThread@4
$LN28@music:
  000c3	cc		 int	 3
?music@@YAXXZ ENDP					; music
_TEXT	ENDS
; Function compile flags: /Ogtp
; File C:\Users\gg862\OneDrive\¹ÙÅÁ È­¸é\¸¾Äí¿Ï·á\Client Source Code1.31ÀÏº»\system\t_music.cpp
;	COMDAT ?gate@@YAXXZ
_TEXT	SEGMENT
tv2164 = -36						; size = 4
$T1 = -36						; size = 4
_waon_delay$1$ = -32					; size = 4
tv2203 = -28						; size = 4
$T2 = -28						; size = 4
$T3 = -28						; size = 4
tv2200 = -24						; size = 4
tv2207 = -20						; size = 4
_waon_cnt$1$ = -20					; size = 4
tv2190 = -16						; size = 4
_waon_delay_total$1$ = -12				; size = 4
tv2198 = -8						; size = 4
_cnt$1$ = -8						; size = 4
tv2218 = -4						; size = 4
?gate@@YAXXZ PROC					; gate, COMDAT

; 2131 : {

  00000	55		 push	 ebp
  00001	8b ec		 mov	 ebp, esp
  00003	83 ec 24	 sub	 esp, 36			; 00000024H
  00006	56		 push	 esi

; 2132 : 	int next_command;
; 2133 : 	DWORD	Status = 0;
; 2134 : 	if (!play_flg[ch])		//îî??

  00007	8b 35 00 00 00
	00		 mov	 esi, DWORD PTR ?ch@@3HA
  0000d	83 3c b5 00 00
	00 00 00	 cmp	 DWORD PTR ?play_flg@@3PAHA[esi*4], 0
  00015	0f 84 3d 06 00
	00		 je	 $LN68@gate

; 2135 : 		return;				//????î??
; 2136 : 
; 2137 : 	gate_time[ch]--;		//???????î¡

  0001b	83 04 b5 00 00
	00 00 ff	 add	 DWORD PTR ?gate_time@@3PAHA[esi*4], -1
  00023	8d 04 b5 00 00
	00 00		 lea	 eax, DWORD PTR ?gate_time@@3PAHA[esi*4]
  0002a	57		 push	 edi
  0002b	89 45 ec	 mov	 DWORD PTR tv2207[ebp], eax

; 2138 : 	if (!gate_time[ch]) {		//??????

  0002e	75 52		 jne	 SHORT $LN3@gate

; 2139 : 		if (!d_pedal[ch]) {		//????????

  00030	83 3c b5 00 00
	00 00 00	 cmp	 DWORD PTR ?d_pedal@@3PAHA[esi*4], 0
  00038	75 48		 jne	 SHORT $LN3@gate

; 2140 : 			if (!wave[ch]) {	//???????

  0003a	83 3c b5 00 00
	00 00 00	 cmp	 DWORD PTR ?wave@@3PAHA[esi*4], 0
  00042	75 07		 jne	 SHORT $LN23@gate

; 2141 : 				stop_voice();		//???????

  00044	e8 00 00 00 00	 call	 ?stop_voice@@YAXXZ	; stop_voice

; 2142 : 			}

  00049	eb 37		 jmp	 SHORT $LN3@gate
$LN23@gate:

; 2143 : 			else {
; 2144 : 				for (int cnt = 0; cnt < play_use_task_cnt[ch]; cnt++) {

  0004b	8b 3c b5 00 00
	00 00		 mov	 edi, DWORD PTR ?play_use_task_cnt@@3PAHA[esi*4]
  00052	85 ff		 test	 edi, edi
  00054	7e 2c		 jle	 SHORT $LN3@gate
  00056	8b ce		 mov	 ecx, esi
  00058	c1 e1 05	 shl	 ecx, 5
  0005b	81 c1 00 00 00
	00		 add	 ecx, OFFSET ?play_use_task@@3PAY07HA
$LL101@gate:

; 2145 : 					if (play_use_task[ch][cnt] != -1) {					//???î¸???

  00061	8b 11		 mov	 edx, DWORD PTR [ecx]
  00063	83 fa ff	 cmp	 edx, -1
  00066	74 12		 je	 SHORT $LN114@gate

; 2146 : 						voice[play_use_task[ch][cnt]].name = VOICE_KEY_OFF;	//????????

  00068	8b c2		 mov	 eax, edx
  0006a	c1 e0 04	 shl	 eax, 4
  0006d	2b c2		 sub	 eax, edx
  0006f	c7 04 85 00 00
	00 00 64 00 00
	00		 mov	 DWORD PTR ?voice@@3PAUVOICE_EQU@@A[eax*4], 100 ; 00000064H
$LN114@gate:

; 2143 : 			else {
; 2144 : 				for (int cnt = 0; cnt < play_use_task_cnt[ch]; cnt++) {

  0007a	83 c1 04	 add	 ecx, 4
  0007d	83 ef 01	 sub	 edi, 1
  00080	75 df		 jne	 SHORT $LL101@gate
$LN3@gate:

; 2147 : 					}
; 2148 : 				}
; 2149 : 			}
; 2150 : 		}
; 2151 : 	}
; 2152 : 
; 2153 : 	step_time[ch]--;			//?????

  00082	ff 0c b5 00 00
	00 00		 dec	 DWORD PTR ?step_time@@3PAHA[esi*4]
  00089	8d 04 b5 00 00
	00 00		 lea	 eax, DWORD PTR ?step_time@@3PAHA[esi*4]

; 2154 : 	if (step_time[ch] > 0) {		//

  00090	83 38 00	 cmp	 DWORD PTR [eax], 0
  00093	89 45 e4	 mov	 DWORD PTR tv2203[ebp], eax
  00096	0f 8f bb 05 00
	00		 jg	 $LN127@gate

; 2155 : 		return;				//???????î??
; 2156 : 	}
; 2157 : 	else {
; 2158 : 		if (!tie_flg[ch]) {		//???????

  0009c	8d 04 b5 00 00
	00 00		 lea	 eax, DWORD PTR ?tie_flg@@3PAHA[esi*4]
  000a3	89 45 fc	 mov	 DWORD PTR tv2218[ebp], eax
  000a6	8b 00		 mov	 eax, DWORD PTR [eax]
  000a8	89 45 e8	 mov	 DWORD PTR tv2200[ebp], eax
  000ab	85 c0		 test	 eax, eax
  000ad	75 52		 jne	 SHORT $LN86@gate

; 2159 : 			if (!d_pedal[ch]) {		//????????

  000af	39 04 b5 00 00
	00 00		 cmp	 DWORD PTR ?d_pedal@@3PAHA[esi*4], eax
  000b6	75 49		 jne	 SHORT $LN86@gate

; 2160 : 				if (!wave[ch]) {	//???????

  000b8	39 04 b5 00 00
	00 00		 cmp	 DWORD PTR ?wave@@3PAHA[esi*4], eax
  000bf	75 07		 jne	 SHORT $LN30@gate

; 2161 : 					stop_voice();		//???????

  000c1	e8 00 00 00 00	 call	 ?stop_voice@@YAXXZ	; stop_voice

; 2162 : 				}

  000c6	eb 39		 jmp	 SHORT $LN86@gate
$LN30@gate:

; 2163 : 				else {
; 2164 : 					for (int cnt = 0; cnt < play_use_task_cnt[ch]; cnt++) {

  000c8	8b 3c b5 00 00
	00 00		 mov	 edi, DWORD PTR ?play_use_task_cnt@@3PAHA[esi*4]
  000cf	85 ff		 test	 edi, edi
  000d1	7e 2e		 jle	 SHORT $LN86@gate
  000d3	8b ce		 mov	 ecx, esi
  000d5	c1 e1 05	 shl	 ecx, 5
  000d8	81 c1 00 00 00
	00		 add	 ecx, OFFSET ?play_use_task@@3PAY07HA
  000de	66 90		 npad	 2
$LL104@gate:

; 2165 : 						if (play_use_task[ch][cnt] != -1) {					//???î¸???

  000e0	8b 11		 mov	 edx, DWORD PTR [ecx]
  000e2	83 fa ff	 cmp	 edx, -1
  000e5	74 12		 je	 SHORT $LN115@gate

; 2166 : 							voice[play_use_task[ch][cnt]].name = VOICE_KEY_OFF;	//????????

  000e7	8b c2		 mov	 eax, edx
  000e9	c1 e0 04	 shl	 eax, 4
  000ec	2b c2		 sub	 eax, edx
  000ee	c7 04 85 00 00
	00 00 64 00 00
	00		 mov	 DWORD PTR ?voice@@3PAUVOICE_EQU@@A[eax*4], 100 ; 00000064H
$LN115@gate:

; 2163 : 				else {
; 2164 : 					for (int cnt = 0; cnt < play_use_task_cnt[ch]; cnt++) {

  000f9	83 c1 04	 add	 ecx, 4
  000fc	83 ef 01	 sub	 edi, 1
  000ff	75 df		 jne	 SHORT $LL104@gate
$LN86@gate:

; 2167 : 						}
; 2168 : 					}
; 2169 : 				}
; 2170 : 			}
; 2171 : 		}
; 2172 : 
; 2173 : 	gate_100:
; 2174 : 		next_command = step[ch][step_point[ch]++];		//????î?î?

  00101	8b 0c b5 00 00
	00 00		 mov	 ecx, DWORD PTR ?step_point@@3PAHA[esi*4]
  00108	8d 04 b5 00 00
	00 00		 lea	 eax, DWORD PTR ?step_point@@3PAHA[esi*4]
  0010f	8b d6		 mov	 edx, esi
  00111	89 45 f8	 mov	 DWORD PTR tv2198[ebp], eax
  00114	c1 e2 0e	 shl	 edx, 14			; 0000000eH
  00117	53		 push	 ebx
  00118	8d 79 01	 lea	 edi, DWORD PTR [ecx+1]
  0011b	89 55 f0	 mov	 DWORD PTR tv2190[ebp], edx
  0011e	8d 04 0a	 lea	 eax, DWORD PTR [edx+ecx]
  00121	8b 1c 85 00 00
	00 00		 mov	 ebx, DWORD PTR ?step@@3PAY0EAAA@HA[eax*4]
  00128	8b 45 f8	 mov	 eax, DWORD PTR tv2198[ebp]
  0012b	89 38		 mov	 DWORD PTR [eax], edi

; 2175 : 
; 2176 : 		if (next_command >= 0) {		//???î±???

  0012d	85 db		 test	 ebx, ebx
  0012f	0f 89 00 02 00
	00		 jns	 $LN91@gate
$gate_100$131:

; 2203 : 			return;
; 2204 : 		}
; 2205 : 		if (next_command == MUSIC_WAON) {		//????

  00135	83 fb f2	 cmp	 ebx, -14		; fffffff2H
  00138	0f 84 f2 02 00
	00		 je	 $LN92@gate

; 2239 : 			return;
; 2240 : 		}
; 2241 : 		if (next_command == MUSIC_TEMPO) {		//????

  0013e	83 fb f9	 cmp	 ebx, -7			; fffffff9H
  00141	75 14		 jne	 SHORT $LN45@gate

; 2242 : 			tempo.LowPart = step[ch][step_point[ch]++];

  00143	8d 04 17	 lea	 eax, DWORD PTR [edi+edx]
  00146	8b 04 85 00 00
	00 00		 mov	 eax, DWORD PTR ?step@@3PAY0EAAA@HA[eax*4]
  0014d	a3 00 00 00 00	 mov	 DWORD PTR ?tempo@@3T_LARGE_INTEGER@@A, eax

; 2243 : 			goto gate_100;

  00152	e9 c5 01 00 00	 jmp	 $LN129@gate
$LN45@gate:

; 2244 : 		}
; 2245 : 		if (next_command == MUSIC_NEIRO_NO) {		//?îî?î??

  00157	83 fb f7	 cmp	 ebx, -9			; fffffff7H
  0015a	75 16		 jne	 SHORT $LN46@gate

; 2246 : //			change_neiro( ch, step[ch][step_point[ch]++] );
; 2247 : 			dataToneNo[ch] = step[ch][step_point[ch]++];

  0015c	8d 04 17	 lea	 eax, DWORD PTR [edi+edx]
  0015f	8b 04 85 00 00
	00 00		 mov	 eax, DWORD PTR ?step@@3PAY0EAAA@HA[eax*4]
  00166	89 04 b5 00 00
	00 00		 mov	 DWORD PTR ?dataToneNo@@3PAHA[esi*4], eax

; 2248 : 			goto gate_100;

  0016d	e9 aa 01 00 00	 jmp	 $LN129@gate
$LN46@gate:

; 2249 : 		}
; 2250 : 		if (next_command == MUSIC_LOOP) {		//????

  00172	83 fb fd	 cmp	 ebx, -3			; fffffffdH
  00175	75 0f		 jne	 SHORT $LN47@gate

; 2251 : 			step_point[ch] = step[ch][step_point[ch]];

  00177	8d 04 17	 lea	 eax, DWORD PTR [edi+edx]
  0017a	8b 3c 85 00 00
	00 00		 mov	 edi, DWORD PTR ?step@@3PAY0EAAA@HA[eax*4]

; 2252 : 			goto gate_100;

  00181	e9 97 01 00 00	 jmp	 $LN96@gate
$LN47@gate:

; 2253 : 		}
; 2254 : 		if (next_command == MUSIC_KURI_START) {		//??î??î¿?

  00186	83 fb f4	 cmp	 ebx, -12		; fffffff4H
  00189	75 29		 jne	 SHORT $LN48@gate

; 2255 : 			play_kuri_lv[ch]++;		//?î??????

  0018b	ff 04 b5 00 00
	00 00		 inc	 DWORD PTR ?play_kuri_lv@@3PAHA[esi*4]

; 2256 : 			play_kuri_num[play_kuri_lv[ch]][ch] = step[ch][step_point[ch]++];

  00192	8d 04 17	 lea	 eax, DWORD PTR [edi+edx]
  00195	8b 0c b5 00 00
	00 00		 mov	 ecx, DWORD PTR ?play_kuri_lv@@3PAHA[esi*4]
  0019c	8b 04 85 00 00
	00 00		 mov	 eax, DWORD PTR ?step@@3PAY0EAAA@HA[eax*4]
  001a3	c1 e1 05	 shl	 ecx, 5
  001a6	03 ce		 add	 ecx, esi
  001a8	89 04 8d 00 00
	00 00		 mov	 DWORD PTR ?play_kuri_num@@3PAY0CA@HA[ecx*4], eax

; 2257 : 			goto gate_100;

  001af	e9 68 01 00 00	 jmp	 $LN129@gate
$LN48@gate:

; 2258 : 		}
; 2259 : 		if (next_command == MUSIC_KURI_SKIP) {		//??î?îî?

  001b4	83 fb f5	 cmp	 ebx, -11		; fffffff5H
  001b7	75 35		 jne	 SHORT $LN49@gate

; 2260 : 			if (play_kuri_num[play_kuri_lv[ch]][ch] == 1) {

  001b9	8b 0c b5 00 00
	00 00		 mov	 ecx, DWORD PTR ?play_kuri_lv@@3PAHA[esi*4]
  001c0	8b c1		 mov	 eax, ecx
  001c2	c1 e0 05	 shl	 eax, 5
  001c5	03 c6		 add	 eax, esi
  001c7	83 3c 85 00 00
	00 00 01	 cmp	 DWORD PTR ?play_kuri_num@@3PAY0CA@HA[eax*4], 1
  001cf	0f 85 47 01 00
	00		 jne	 $LN129@gate

; 2261 : 				step_point[ch] = step[ch][step_point[ch]];

  001d5	8d 04 17	 lea	 eax, DWORD PTR [edi+edx]
  001d8	8b 3c 85 00 00
	00 00		 mov	 edi, DWORD PTR ?step@@3PAY0EAAA@HA[eax*4]

; 2262 : 				play_kuri_lv[ch]--;		//?î??????

  001df	8d 41 ff	 lea	 eax, DWORD PTR [ecx-1]
  001e2	89 04 b5 00 00
	00 00		 mov	 DWORD PTR ?play_kuri_lv@@3PAHA[esi*4], eax

; 2263 : 			}

  001e9	e9 2f 01 00 00	 jmp	 $LN96@gate
$LN49@gate:

; 2264 : 			else {
; 2265 : 				step_point[ch]++;
; 2266 : 			}
; 2267 : 			goto gate_100;
; 2268 : 		}
; 2269 : 		if (next_command == MUSIC_KURI_RET) {		//??î?î·??

  001ee	83 fb f6	 cmp	 ebx, -10		; fffffff6H
  001f1	75 3d		 jne	 SHORT $LN52@gate

; 2270 : 			play_kuri_num[play_kuri_lv[ch]][ch]--;

  001f3	8b 0c b5 00 00
	00 00		 mov	 ecx, DWORD PTR ?play_kuri_lv@@3PAHA[esi*4]
  001fa	8b c1		 mov	 eax, ecx
  001fc	c1 e0 05	 shl	 eax, 5
  001ff	03 c6		 add	 eax, esi
  00201	ff 0c 85 00 00
	00 00		 dec	 DWORD PTR ?play_kuri_num@@3PAY0CA@HA[eax*4]

; 2271 : 			if (play_kuri_num[play_kuri_lv[ch]][ch] > 0) {

  00208	83 3c 85 00 00
	00 00 00	 cmp	 DWORD PTR ?play_kuri_num@@3PAY0CA@HA[eax*4], 0
  00210	7e 0f		 jle	 SHORT $LN53@gate

; 2272 : 				step_point[ch] = step[ch][step_point[ch]];

  00212	8d 04 17	 lea	 eax, DWORD PTR [edi+edx]
  00215	8b 3c 85 00 00
	00 00		 mov	 edi, DWORD PTR ?step@@3PAY0EAAA@HA[eax*4]

; 2273 : 			}

  0021c	e9 fc 00 00 00	 jmp	 $LN96@gate
$LN53@gate:

; 2274 : 			else {
; 2275 : 				step_point[ch]++;
; 2276 : 				play_kuri_lv[ch]--;		//?î??????

  00221	8d 41 ff	 lea	 eax, DWORD PTR [ecx-1]
  00224	89 04 b5 00 00
	00 00		 mov	 DWORD PTR ?play_kuri_lv@@3PAHA[esi*4], eax

; 2277 : 			}
; 2278 : 			goto gate_100;

  0022b	e9 ec 00 00 00	 jmp	 $LN129@gate
$LN52@gate:

; 2279 : 		}
; 2280 : 		if (next_command == MUSIC_R) {		//??

  00230	83 fb fe	 cmp	 ebx, -2			; fffffffeH
  00233	0f 84 6d 01 00
	00		 je	 $LN93@gate

; 2298 : 		}
; 2299 : 		if (next_command == MUSIC_LFO_H) {		//??????

  00239	83 fb f0	 cmp	 ebx, -16		; fffffff0H
  0023c	75 16		 jne	 SHORT $LN59@gate

; 2300 : 			play_lfo_h[ch] = step[ch][step_point[ch]++];

  0023e	8d 04 17	 lea	 eax, DWORD PTR [edi+edx]
  00241	8b 04 85 00 00
	00 00		 mov	 eax, DWORD PTR ?step@@3PAY0EAAA@HA[eax*4]
  00248	89 04 b5 00 00
	00 00		 mov	 DWORD PTR ?play_lfo_h@@3PAHA[esi*4], eax

; 2301 : 			goto gate_100;

  0024f	e9 c8 00 00 00	 jmp	 $LN129@gate
$LN59@gate:

; 2302 : 		}
; 2303 : 		if (next_command == MUSIC_LFO_M) {		//??????

  00254	83 fb ef	 cmp	 ebx, -17		; ffffffefH
  00257	75 16		 jne	 SHORT $LN60@gate

; 2304 : 			play_lfo_m[ch] = step[ch][step_point[ch]++];

  00259	8d 04 17	 lea	 eax, DWORD PTR [edi+edx]
  0025c	8b 04 85 00 00
	00 00		 mov	 eax, DWORD PTR ?step@@3PAY0EAAA@HA[eax*4]
  00263	89 04 b5 00 00
	00 00		 mov	 DWORD PTR ?play_lfo_m@@3PAHA[esi*4], eax

; 2305 : 			goto gate_100;

  0026a	e9 ad 00 00 00	 jmp	 $LN129@gate
$LN60@gate:

; 2306 : 		}
; 2307 : 		if (next_command == MUSIC_LFO_S) {		//??????

  0026f	83 fb ee	 cmp	 ebx, -18		; ffffffeeH
  00272	75 16		 jne	 SHORT $LN61@gate

; 2308 : 			play_lfo_s[ch] = step[ch][step_point[ch]++];

  00274	8d 04 17	 lea	 eax, DWORD PTR [edi+edx]
  00277	8b 04 85 00 00
	00 00		 mov	 eax, DWORD PTR ?step@@3PAY0EAAA@HA[eax*4]
  0027e	89 04 b5 00 00
	00 00		 mov	 DWORD PTR ?play_lfo_s@@3PAHA[esi*4], eax

; 2309 : 			goto gate_100;

  00285	e9 92 00 00 00	 jmp	 $LN129@gate
$LN61@gate:

; 2310 : 		}
; 2311 : 		if (next_command == MUSIC_PEDAL) {		//????????

  0028a	83 fb f8	 cmp	 ebx, -8			; fffffff8H
  0028d	75 13		 jne	 SHORT $LN62@gate

; 2312 : 			d_pedal[ch] = step[ch][step_point[ch]++];

  0028f	8d 04 17	 lea	 eax, DWORD PTR [edi+edx]
  00292	8b 04 85 00 00
	00 00		 mov	 eax, DWORD PTR ?step@@3PAY0EAAA@HA[eax*4]
  00299	89 04 b5 00 00
	00 00		 mov	 DWORD PTR ?d_pedal@@3PAHA[esi*4], eax

; 2313 : 			goto gate_100;

  002a0	eb 7a		 jmp	 SHORT $LN129@gate
$LN62@gate:

; 2314 : 		}
; 2315 : 		if (next_command == MUSIC_WAVE) {		//???????

  002a2	83 fb f3	 cmp	 ebx, -13		; fffffff3H
  002a5	75 13		 jne	 SHORT $LN63@gate

; 2316 : 			wave[ch] = step[ch][step_point[ch]++];

  002a7	8d 04 17	 lea	 eax, DWORD PTR [edi+edx]
  002aa	8b 04 85 00 00
	00 00		 mov	 eax, DWORD PTR ?step@@3PAY0EAAA@HA[eax*4]
  002b1	89 04 b5 00 00
	00 00		 mov	 DWORD PTR ?wave@@3PAHA[esi*4], eax

; 2317 : 			goto gate_100;

  002b8	eb 62		 jmp	 SHORT $LN129@gate
$LN63@gate:

; 2318 : 		}
; 2319 : 		if (next_command == MUSIC_VOL) {		//????

  002ba	83 fb fb	 cmp	 ebx, -5			; fffffffbH
  002bd	75 13		 jne	 SHORT $LN64@gate

; 2320 : 			dataVolume[ch] = step[ch][step_point[ch]++];

  002bf	8d 04 17	 lea	 eax, DWORD PTR [edi+edx]
  002c2	8b 04 85 00 00
	00 00		 mov	 eax, DWORD PTR ?step@@3PAY0EAAA@HA[eax*4]
  002c9	89 04 b5 00 00
	00 00		 mov	 DWORD PTR ?dataVolume@@3PAHA[esi*4], eax

; 2321 : 			//			pDSData[play_use_task[ch]]->SetVolume(dataVolume[ch]);
; 2322 : 			goto gate_100;

  002d0	eb 4a		 jmp	 SHORT $LN129@gate
$LN64@gate:

; 2323 : 		}
; 2324 : 		if (next_command == MUSIC_DETUNE) {		//??????

  002d2	83 fb f1	 cmp	 ebx, -15		; fffffff1H
  002d5	75 13		 jne	 SHORT $LN65@gate

; 2325 : 			play_detune[ch] = step[ch][step_point[ch]++];

  002d7	8d 04 17	 lea	 eax, DWORD PTR [edi+edx]
  002da	8b 04 85 00 00
	00 00		 mov	 eax, DWORD PTR ?step@@3PAY0EAAA@HA[eax*4]
  002e1	89 04 b5 00 00
	00 00		 mov	 DWORD PTR ?play_detune@@3PAHA[esi*4], eax

; 2326 : 			goto gate_100;

  002e8	eb 32		 jmp	 SHORT $LN129@gate
$LN65@gate:

; 2327 : 		}
; 2328 : 		if (next_command == MUSIC_FREQ) {		//î«î¦??

  002ea	83 fb fc	 cmp	 ebx, -4			; fffffffcH
  002ed	75 13		 jne	 SHORT $LN66@gate

; 2329 : 			dataFrequency[ch] = step[ch][step_point[ch]++];

  002ef	8d 04 17	 lea	 eax, DWORD PTR [edi+edx]
  002f2	8b 04 85 00 00
	00 00		 mov	 eax, DWORD PTR ?step@@3PAY0EAAA@HA[eax*4]
  002f9	89 04 b5 00 00
	00 00		 mov	 DWORD PTR ?dataFrequency@@3PAJA[esi*4], eax

; 2330 : 			//			pDSData[play_use_task[ch]]->SetFrequency((DWORD)dataFrequency[ch]);
; 2331 : 			goto gate_100;

  00300	eb 1a		 jmp	 SHORT $LN129@gate
$LN66@gate:

; 2332 : 		}
; 2333 : 		if (next_command == MUSIC_PAN) {		//??????

  00302	83 fb fa	 cmp	 ebx, -6			; fffffffaH
  00305	0f 85 80 00 00
	00		 jne	 $LN67@gate

; 2334 : 			dataPan[ch] = step[ch][step_point[ch]++];

  0030b	8d 04 17	 lea	 eax, DWORD PTR [edi+edx]
  0030e	8b 04 85 00 00
	00 00		 mov	 eax, DWORD PTR ?step@@3PAY0EAAA@HA[eax*4]
  00315	89 04 b5 00 00
	00 00		 mov	 DWORD PTR ?dataPan@@3PAHA[esi*4], eax
$LN129@gate:

; 2167 : 						}
; 2168 : 					}
; 2169 : 				}
; 2170 : 			}
; 2171 : 		}
; 2172 : 
; 2173 : 	gate_100:
; 2174 : 		next_command = step[ch][step_point[ch]++];		//????î?î?

  0031c	47		 inc	 edi
$LN96@gate:
  0031d	8d 04 3a	 lea	 eax, DWORD PTR [edx+edi]
  00320	47		 inc	 edi
  00321	8b 1c 85 00 00
	00 00		 mov	 ebx, DWORD PTR ?step@@3PAY0EAAA@HA[eax*4]
  00328	8b 45 f8	 mov	 eax, DWORD PTR tv2198[ebp]
  0032b	89 38		 mov	 DWORD PTR [eax], edi

; 2175 : 
; 2176 : 		if (next_command >= 0) {		//???î±???

  0032d	85 db		 test	 ebx, ebx
  0032f	0f 88 00 fe ff
	ff		 js	 $gate_100$131
$LN91@gate:

; 2177 : 			if (play_use_task_cnt[ch] != 1 && tie_flg[ch] == 1) {		//???î¸???????

  00335	8b 0c b5 00 00
	00 00		 mov	 ecx, DWORD PTR ?play_use_task_cnt@@3PAHA[esi*4]
  0033c	8b 7d fc	 mov	 edi, DWORD PTR tv2218[ebp]
  0033f	89 4d e4	 mov	 DWORD PTR $T3[ebp], ecx
  00342	83 f9 01	 cmp	 ecx, 1
  00345	74 0c		 je	 SHORT $LN34@gate
  00347	83 7d e8 01	 cmp	 DWORD PTR tv2200[ebp], 1
  0034b	75 06		 jne	 SHORT $LN34@gate

; 2178 : 				tie_flg[ch] = 0;		//???î

  0034d	c7 07 00 00 00
	00		 mov	 DWORD PTR [edi], 0
$LN34@gate:

; 2179 : 			}
; 2180 : 			if (!tie_flg[ch]) {		//???????

  00353	83 3f 00	 cmp	 DWORD PTR [edi], 0
  00356	0f 85 59 02 00
	00		 jne	 $LN35@gate

; 2181 : 				stop_voice();		//î¸??????îî

  0035c	e8 00 00 00 00	 call	 ?stop_voice@@YAXXZ	; stop_voice

; 2182 : 				set_tone(dataToneNo[ch], next_command, 0, 0);	//î?????

  00361	6a 00		 push	 0
  00363	6a 00		 push	 0
  00365	53		 push	 ebx
  00366	ff 34 b5 00 00
	00 00		 push	 DWORD PTR ?dataToneNo@@3PAHA[esi*4]
  0036d	e8 00 00 00 00	 call	 ?set_tone@@YAHHJHH@Z	; set_tone

; 2183 : 				note_old[ch][0] = next_command;		//??????î±?îî¼

  00372	8b 35 00 00 00
	00		 mov	 esi, DWORD PTR ?ch@@3HA
  00378	83 c4 10	 add	 esp, 16			; 00000010H
  0037b	8b c6		 mov	 eax, esi
  0037d	c1 e0 05	 shl	 eax, 5
  00380	89 98 00 00 00
	00		 mov	 DWORD PTR ?note_old@@3PAY07HA[eax], ebx

; 2184 : 			}

  00386	e9 7a 02 00 00	 jmp	 $LN9@gate
$LN67@gate:

; 2335 : 			//			pDSData[play_use_task[ch]]->SetPan(dataPan[ch]);
; 2336 : 			goto gate_100;
; 2337 : 		}
; 2338 : 		if (next_command == MUSIC_END) {		//î·??

  0038b	83 fb ff	 cmp	 ebx, -1
  0038e	0f 85 c2 02 00
	00		 jne	 $LN128@gate

; 2339 : 			play_flg[ch] = 0;

  00394	5b		 pop	 ebx
  00395	5f		 pop	 edi
  00396	c7 04 b5 00 00
	00 00 00 00 00
	00		 mov	 DWORD PTR ?play_flg@@3PAHA[esi*4], 0
  003a1	5e		 pop	 esi

; 2340 : 			return;
; 2341 : 		}
; 2342 : 	}
; 2343 : }

  003a2	8b e5		 mov	 esp, ebp
  003a4	5d		 pop	 ebp
  003a5	c3		 ret	 0
$LN93@gate:

; 2281 : 			if (tie_flg[ch]) {		//????

  003a6	83 7d e8 00	 cmp	 DWORD PTR tv2200[ebp], 0
  003aa	74 4a		 je	 SHORT $LN18@gate

; 2282 : 				for (int cnt = 0; cnt < play_use_task_cnt[ch]; cnt++) {

  003ac	8b 1c b5 00 00
	00 00		 mov	 ebx, DWORD PTR ?play_use_task_cnt@@3PAHA[esi*4]
  003b3	85 db		 test	 ebx, ebx
  003b5	7e 3f		 jle	 SHORT $LN18@gate
  003b7	c1 e6 05	 shl	 esi, 5
  003ba	66 0f 1f 44 00
	00		 npad	 6
$LL19@gate:

; 2283 : 					//???????
; 2284 : 					voice[play_use_task[ch][cnt]].name = VOICE_TIE_SET;

  003c0	8b 8e 00 00 00
	00		 mov	 ecx, DWORD PTR ?play_use_task@@3PAY07HA[esi]
  003c6	8b c1		 mov	 eax, ecx

; 2285 : 					//???????????
; 2286 : 					set_voice_param(play_use_task[ch][cnt], note_old[ch][cnt], -1, 0);

  003c8	6a 00		 push	 0
  003ca	c1 e0 04	 shl	 eax, 4
  003cd	6a ff		 push	 -1
  003cf	ff b6 00 00 00
	00		 push	 DWORD PTR ?note_old@@3PAY07HA[esi]
  003d5	2b c1		 sub	 eax, ecx
  003d7	51		 push	 ecx
  003d8	c7 04 85 00 00
	00 00 0a 00 00
	00		 mov	 DWORD PTR ?voice@@3PAUVOICE_EQU@@A[eax*4], 10 ; 0000000aH
  003e3	e8 00 00 00 00	 call	 ?set_voice_param@@YAXHJHH@Z ; set_voice_param
  003e8	83 c4 10	 add	 esp, 16			; 00000010H
  003eb	8d 76 04	 lea	 esi, DWORD PTR [esi+4]
  003ee	83 eb 01	 sub	 ebx, 1
  003f1	75 cd		 jne	 SHORT $LL19@gate
  003f3	8b 55 f0	 mov	 edx, DWORD PTR tv2190[ebp]
$LN18@gate:

; 2287 : 				}
; 2288 : 			}
; 2289 : 			step_time[ch] = step[ch][step_point[ch]++];		//???????

  003f6	8b 4d e4	 mov	 ecx, DWORD PTR tv2203[ebp]
  003f9	8d 04 17	 lea	 eax, DWORD PTR [edi+edx]
  003fc	8b 04 85 00 00
	00 00		 mov	 eax, DWORD PTR ?step@@3PAY0EAAA@HA[eax*4]
  00403	5b		 pop	 ebx
  00404	89 01		 mov	 DWORD PTR [ecx], eax

; 2290 : 			gate_time[ch] = step[ch][step_point[ch]++];		//??????

  00406	8d 04 17	 lea	 eax, DWORD PTR [edi+edx]
  00409	8b 0c 85 04 00
	00 00		 mov	 ecx, DWORD PTR ?step@@3PAY0EAAA@HA[eax*4+4]
  00410	8b 45 ec	 mov	 eax, DWORD PTR tv2207[ebp]
  00413	8b 55 f8	 mov	 edx, DWORD PTR tv2198[ebp]
  00416	89 08		 mov	 DWORD PTR [eax], ecx
  00418	8d 47 02	 lea	 eax, DWORD PTR [edi+2]

; 2291 : 			if (gate_time[ch] == -1) {		//????
; 2292 : 				tie_flg[ch] = 1;
; 2293 : 			}
; 2294 : 			else {
; 2295 : 				tie_flg[ch] = 0;
; 2296 : 			}
; 2297 : 			return;

  0041b	8b 7d fc	 mov	 edi, DWORD PTR tv2218[ebp]
  0041e	89 02		 mov	 DWORD PTR [edx], eax
  00420	33 c0		 xor	 eax, eax
  00422	83 f9 ff	 cmp	 ecx, -1
  00425	0f 94 c0	 sete	 al
  00428	89 07		 mov	 DWORD PTR [edi], eax
  0042a	5f		 pop	 edi
  0042b	5e		 pop	 esi

; 2340 : 			return;
; 2341 : 		}
; 2342 : 	}
; 2343 : }

  0042c	8b e5		 mov	 esp, ebp
  0042e	5d		 pop	 ebp
  0042f	c3		 ret	 0
$LN92@gate:

; 2206 : 			int waon_cnt, waon_delay, waon_delay_total = 0;
; 2207 : 			waon_cnt = step[ch][step_point[ch]++];		//???î?î?

  00430	8d 04 17	 lea	 eax, DWORD PTR [edi+edx]
  00433	c7 45 f4 00 00
	00 00		 mov	 DWORD PTR _waon_delay_total$1$[ebp], 0
  0043a	8b 0c 85 00 00
	00 00		 mov	 ecx, DWORD PTR ?step@@3PAY0EAAA@HA[eax*4]
  00441	8d 5f 01	 lea	 ebx, DWORD PTR [edi+1]

; 2208 : 			waon_delay = step[ch][step_point[ch]++];		//??????î?î?
; 2209 : 			if (waon_cnt != play_use_task_cnt[ch] && tie_flg[ch] == 1) {		//???î¸???????

  00444	8b 7d fc	 mov	 edi, DWORD PTR tv2218[ebp]
  00447	8d 04 13	 lea	 eax, DWORD PTR [ebx+edx]
  0044a	8b 04 85 00 00
	00 00		 mov	 eax, DWORD PTR ?step@@3PAY0EAAA@HA[eax*4]
  00451	43		 inc	 ebx
  00452	89 45 e0	 mov	 DWORD PTR _waon_delay$1$[ebp], eax
  00455	8b 45 f8	 mov	 eax, DWORD PTR tv2198[ebp]
  00458	89 4d ec	 mov	 DWORD PTR _waon_cnt$1$[ebp], ecx
  0045b	89 5d dc	 mov	 DWORD PTR $T1[ebp], ebx
  0045e	89 18		 mov	 DWORD PTR [eax], ebx
  00460	8b 04 b5 00 00
	00 00		 mov	 eax, DWORD PTR ?play_use_task_cnt@@3PAHA[esi*4]
  00467	89 45 e4	 mov	 DWORD PTR $T2[ebp], eax
  0046a	3b c8		 cmp	 ecx, eax
  0046c	74 0c		 je	 SHORT $LN40@gate
  0046e	83 7d e8 01	 cmp	 DWORD PTR tv2200[ebp], 1
  00472	75 06		 jne	 SHORT $LN40@gate

; 2210 : 				tie_flg[ch] = 0;		//???î

  00474	c7 07 00 00 00
	00		 mov	 DWORD PTR [edi], 0
$LN40@gate:

; 2211 : 			}
; 2212 : 			if (!tie_flg[ch]) {		//???????

  0047a	83 3f 00	 cmp	 DWORD PTR [edi], 0
  0047d	0f 85 81 00 00
	00		 jne	 $LN41@gate

; 2213 : 				stop_voice();		//î¸??????îî

  00483	e8 00 00 00 00	 call	 ?stop_voice@@YAXXZ	; stop_voice
  00488	33 c0		 xor	 eax, eax
  0048a	89 45 f8	 mov	 DWORD PTR _cnt$1$[ebp], eax

; 2214 : 				for (int cnt = 0; cnt < waon_cnt; cnt++) {

  0048d	39 45 ec	 cmp	 DWORD PTR _waon_cnt$1$[ebp], eax
  00490	0f 8e c8 00 00
	00		 jle	 $LN15@gate
  00496	8b 7d f0	 mov	 edi, DWORD PTR tv2190[ebp]
  00499	0f 1f 80 00 00
	00 00		 npad	 7
$LL13@gate:

; 2215 : 					//??????
; 2216 : 					set_tone(dataToneNo[ch], step[ch][step_point[ch]], cnt, waon_delay_total);

  004a0	ff 75 f4	 push	 DWORD PTR _waon_delay_total$1$[ebp]
  004a3	50		 push	 eax
  004a4	8d 04 3b	 lea	 eax, DWORD PTR [ebx+edi]
  004a7	ff 34 85 00 00
	00 00		 push	 DWORD PTR ?step@@3PAY0EAAA@HA[eax*4]
  004ae	ff 34 b5 00 00
	00 00		 push	 DWORD PTR ?dataToneNo@@3PAHA[esi*4]
  004b5	e8 00 00 00 00	 call	 ?set_tone@@YAHHJHH@Z	; set_tone

; 2217 : 					note_old[ch][cnt] = step[ch][step_point[ch]++];		//??????î±?îî¼

  004ba	8b 35 00 00 00
	00		 mov	 esi, DWORD PTR ?ch@@3HA
  004c0	83 c4 10	 add	 esp, 16			; 00000010H
  004c3	8b 4d f8	 mov	 ecx, DWORD PTR _cnt$1$[ebp]
  004c6	8b fe		 mov	 edi, esi
  004c8	c1 e7 0e	 shl	 edi, 14			; 0000000eH
  004cb	8b 14 b5 00 00
	00 00		 mov	 edx, DWORD PTR ?step_point@@3PAHA[esi*4]
  004d2	8d 0c f1	 lea	 ecx, DWORD PTR [ecx+esi*8]
  004d5	8d 04 17	 lea	 eax, DWORD PTR [edi+edx]
  004d8	8b 04 85 00 00
	00 00		 mov	 eax, DWORD PTR ?step@@3PAY0EAAA@HA[eax*4]
  004df	8d 5a 01	 lea	 ebx, DWORD PTR [edx+1]
  004e2	89 04 8d 00 00
	00 00		 mov	 DWORD PTR ?note_old@@3PAY07HA[ecx*4], eax

; 2218 : 					waon_delay_total += waon_delay;

  004e9	8b 45 e0	 mov	 eax, DWORD PTR _waon_delay$1$[ebp]
  004ec	01 45 f4	 add	 DWORD PTR _waon_delay_total$1$[ebp], eax
  004ef	8b 45 f8	 mov	 eax, DWORD PTR _cnt$1$[ebp]
  004f2	40		 inc	 eax
  004f3	89 1c b5 00 00
	00 00		 mov	 DWORD PTR ?step_point@@3PAHA[esi*4], ebx
  004fa	89 45 f8	 mov	 DWORD PTR _cnt$1$[ebp], eax
  004fd	3b 45 ec	 cmp	 eax, DWORD PTR _waon_cnt$1$[ebp]
  00500	7c 9e		 jl	 SHORT $LL13@gate

; 2219 : 				}
; 2220 : 			}

  00502	eb 5a		 jmp	 SHORT $LN15@gate
$LN41@gate:

; 2221 : 			else {
; 2222 : 				for (int cnt = 0; cnt < play_use_task_cnt[ch]; cnt++) {

  00504	85 c0		 test	 eax, eax
  00506	7e 56		 jle	 SHORT $LN15@gate
  00508	8b de		 mov	 ebx, esi
  0050a	8b 75 dc	 mov	 esi, DWORD PTR $T1[ebp]
  0050d	c1 e3 05	 shl	 ebx, 5
$LL16@gate:

; 2223 : 					//???????
; 2224 : 					voice[play_use_task[ch][cnt]].name = VOICE_TIE_SET;

  00510	8b 8b 00 00 00
	00		 mov	 ecx, DWORD PTR ?play_use_task@@3PAY07HA[ebx]
  00516	8b c1		 mov	 eax, ecx
  00518	c1 e0 04	 shl	 eax, 4
  0051b	2b c1		 sub	 eax, ecx

; 2225 : 					//???????????
; 2226 : 					set_voice_param(play_use_task[ch][cnt], step[ch][step_point[ch]], -1, 0);

  0051d	6a 00		 push	 0
  0051f	6a ff		 push	 -1
  00521	c7 04 85 00 00
	00 00 0a 00 00
	00		 mov	 DWORD PTR ?voice@@3PAUVOICE_EQU@@A[eax*4], 10 ; 0000000aH
  0052c	8d 04 16	 lea	 eax, DWORD PTR [esi+edx]
  0052f	8b 3c 85 00 00
	00 00		 mov	 edi, DWORD PTR ?step@@3PAY0EAAA@HA[eax*4]
  00536	57		 push	 edi
  00537	51		 push	 ecx
  00538	e8 00 00 00 00	 call	 ?set_voice_param@@YAXHJHH@Z ; set_voice_param
  0053d	8b 55 f0	 mov	 edx, DWORD PTR tv2190[ebp]
  00540	8d 5b 04	 lea	 ebx, DWORD PTR [ebx+4]
  00543	83 c4 10	 add	 esp, 16			; 00000010H

; 2227 : 					note_old[ch][cnt] = step[ch][step_point[ch]++];		//??????î±?îî¼

  00546	89 bb fc ff ff
	ff		 mov	 DWORD PTR ?note_old@@3PAY07HA[ebx-4], edi
  0054c	46		 inc	 esi
  0054d	83 6d e4 01	 sub	 DWORD PTR $T2[ebp], 1
  00551	75 bd		 jne	 SHORT $LL16@gate
  00553	8b 45 f8	 mov	 eax, DWORD PTR tv2198[ebp]
  00556	89 30		 mov	 DWORD PTR [eax], esi
  00558	8b 35 00 00 00
	00		 mov	 esi, DWORD PTR ?ch@@3HA
$LN15@gate:

; 2228 : 				}
; 2229 : 			}
; 2230 : 			step_time[ch] = step[ch][step_point[ch]++];		//???????

  0055e	8d 3c b5 00 00
	00 00		 lea	 edi, DWORD PTR [esi*4]
  00565	c1 e6 0e	 shl	 esi, 14			; 0000000eH
  00568	8b 97 00 00 00
	00		 mov	 edx, DWORD PTR ?step_point@@3PAHA[edi]
  0056e	5b		 pop	 ebx
  0056f	8d 04 16	 lea	 eax, DWORD PTR [esi+edx]
  00572	8b 04 85 00 00
	00 00		 mov	 eax, DWORD PTR ?step@@3PAY0EAAA@HA[eax*4]
  00579	89 87 00 00 00
	00		 mov	 DWORD PTR ?step_time@@3PAHA[edi], eax

; 2231 : 			gate_time[ch] = step[ch][step_point[ch]++];		//??????

  0057f	8d 04 32	 lea	 eax, DWORD PTR [edx+esi]
  00582	8b 0c 85 04 00
	00 00		 mov	 ecx, DWORD PTR ?step@@3PAY0EAAA@HA[eax*4+4]
  00589	8d 42 02	 lea	 eax, DWORD PTR [edx+2]
  0058c	89 87 00 00 00
	00		 mov	 DWORD PTR ?step_point@@3PAHA[edi], eax

; 2232 : 			if (gate_time[ch] == -1) {		//????
; 2233 : 				tie_flg[ch] = 1;
; 2234 : 			}
; 2235 : 			else {
; 2236 : 				tie_flg[ch] = 0;
; 2237 : 			}
; 2238 : 			play_use_task_cnt[ch] = waon_cnt;		//î?????

  00592	33 c0		 xor	 eax, eax
  00594	83 f9 ff	 cmp	 ecx, -1
  00597	89 8f 00 00 00
	00		 mov	 DWORD PTR ?gate_time@@3PAHA[edi], ecx
  0059d	0f 94 c0	 sete	 al
  005a0	89 87 00 00 00
	00		 mov	 DWORD PTR ?tie_flg@@3PAHA[edi], eax
  005a6	8b 45 ec	 mov	 eax, DWORD PTR _waon_cnt$1$[ebp]
  005a9	89 87 00 00 00
	00		 mov	 DWORD PTR ?play_use_task_cnt@@3PAHA[edi], eax
  005af	5f		 pop	 edi
  005b0	5e		 pop	 esi

; 2340 : 			return;
; 2341 : 		}
; 2342 : 	}
; 2343 : }

  005b1	8b e5		 mov	 esp, ebp
  005b3	5d		 pop	 ebp
  005b4	c3		 ret	 0
$LN35@gate:

; 2185 : 			else {
; 2186 : 				for (int cnt = 0; cnt < play_use_task_cnt[ch]; cnt++) {

  005b5	85 c9		 test	 ecx, ecx
  005b7	7e 4c		 jle	 SHORT $LN9@gate
  005b9	8b 35 00 00 00
	00		 mov	 esi, DWORD PTR ?ch@@3HA
  005bf	8b c3		 mov	 eax, ebx
  005c1	c1 e6 05	 shl	 esi, 5
  005c4	8d be 00 00 00
	00		 lea	 edi, DWORD PTR ?note_old@@3PAY07HA[esi]
  005ca	f3 ab		 rep stosd
  005cc	0f 1f 40 00	 npad	 4
$LL10@gate:

; 2187 : 					//???????
; 2188 : 					voice[play_use_task[ch][cnt]].name = VOICE_TIE_SET;

  005d0	8b 8e 00 00 00
	00		 mov	 ecx, DWORD PTR ?play_use_task@@3PAY07HA[esi]
  005d6	8b c1		 mov	 eax, ecx

; 2189 : 					//???????????
; 2190 : 					set_voice_param(play_use_task[ch][cnt], next_command, -1, 0);

  005d8	6a 00		 push	 0
  005da	c1 e0 04	 shl	 eax, 4
  005dd	2b c1		 sub	 eax, ecx
  005df	6a ff		 push	 -1
  005e1	53		 push	 ebx
  005e2	51		 push	 ecx
  005e3	c7 04 85 00 00
	00 00 0a 00 00
	00		 mov	 DWORD PTR ?voice@@3PAUVOICE_EQU@@A[eax*4], 10 ; 0000000aH
  005ee	e8 00 00 00 00	 call	 ?set_voice_param@@YAXHJHH@Z ; set_voice_param
  005f3	83 c4 10	 add	 esp, 16			; 00000010H
  005f6	8d 76 04	 lea	 esi, DWORD PTR [esi+4]
  005f9	83 6d e4 01	 sub	 DWORD PTR $T3[ebp], 1
  005fd	75 d1		 jne	 SHORT $LL10@gate
  005ff	8b 35 00 00 00
	00		 mov	 esi, DWORD PTR ?ch@@3HA
$LN9@gate:

; 2191 : 					note_old[ch][cnt] = next_command;		//??????î±?îî¼
; 2192 : 				}
; 2193 : 			}
; 2194 : 			step_time[ch] = step[ch][step_point[ch]++];		//???????

  00605	8d 3c b5 00 00
	00 00		 lea	 edi, DWORD PTR [esi*4]
  0060c	c1 e6 0e	 shl	 esi, 14			; 0000000eH
  0060f	8b 97 00 00 00
	00		 mov	 edx, DWORD PTR ?step_point@@3PAHA[edi]
  00615	8d 04 16	 lea	 eax, DWORD PTR [esi+edx]
  00618	8b 04 85 00 00
	00 00		 mov	 eax, DWORD PTR ?step@@3PAY0EAAA@HA[eax*4]
  0061f	89 87 00 00 00
	00		 mov	 DWORD PTR ?step_time@@3PAHA[edi], eax

; 2195 : 			gate_time[ch] = step[ch][step_point[ch]++];		//??????

  00625	8d 04 32	 lea	 eax, DWORD PTR [edx+esi]
  00628	8b 0c 85 04 00
	00 00		 mov	 ecx, DWORD PTR ?step@@3PAY0EAAA@HA[eax*4+4]
  0062f	8d 42 02	 lea	 eax, DWORD PTR [edx+2]
  00632	89 87 00 00 00
	00		 mov	 DWORD PTR ?step_point@@3PAHA[edi], eax

; 2196 : 			if (gate_time[ch] == -1) {		//????
; 2197 : 				tie_flg[ch] = 1;
; 2198 : 			}
; 2199 : 			else {
; 2200 : 				tie_flg[ch] = 0;
; 2201 : 			}
; 2202 : 			play_use_task_cnt[ch] = 1;		//î?????

  00638	33 c0		 xor	 eax, eax
  0063a	83 f9 ff	 cmp	 ecx, -1
  0063d	89 8f 00 00 00
	00		 mov	 DWORD PTR ?gate_time@@3PAHA[edi], ecx
  00643	0f 94 c0	 sete	 al
  00646	89 87 00 00 00
	00		 mov	 DWORD PTR ?tie_flg@@3PAHA[edi], eax
  0064c	c7 87 00 00 00
	00 01 00 00 00	 mov	 DWORD PTR ?play_use_task_cnt@@3PAHA[edi], 1
$LN128@gate:
  00656	5b		 pop	 ebx
$LN127@gate:
  00657	5f		 pop	 edi
$LN68@gate:
  00658	5e		 pop	 esi

; 2340 : 			return;
; 2341 : 		}
; 2342 : 	}
; 2343 : }

  00659	8b e5		 mov	 esp, ebp
  0065b	5d		 pop	 ebp
  0065c	c3		 ret	 0
?gate@@YAXXZ ENDP					; gate
_TEXT	ENDS
; Function compile flags: /Ogtp
; File C:\Users\gg862\OneDrive\¹ÙÅÁ È­¸é\¸¾Äí¿Ï·á\Client Source Code1.31ÀÏº»\system\t_music.cpp
;	COMDAT ?stop_voice@@YAXXZ
_TEXT	SEGMENT
?stop_voice@@YAXXZ PROC					; stop_voice, COMDAT

; 2117 : 	for (int cnt = 0; cnt < play_use_task_cnt[ch]; cnt++) {

  00000	a1 00 00 00 00	 mov	 eax, DWORD PTR ?ch@@3HA
  00005	56		 push	 esi
  00006	8b 34 85 00 00
	00 00		 mov	 esi, DWORD PTR ?play_use_task_cnt@@3PAHA[eax*4]
  0000d	85 f6		 test	 esi, esi
  0000f	7e 36		 jle	 SHORT $LN3@stop_voice
  00011	c1 e0 05	 shl	 eax, 5
  00014	05 00 00 00 00	 add	 eax, OFFSET ?play_use_task@@3PAY07HA
  00019	0f 1f 80 00 00
	00 00		 npad	 7
$LL9@stop_voice:

; 2118 : 		if (play_use_task[ch][cnt] != -1) {					//???î¸???

  00020	8b 10		 mov	 edx, DWORD PTR [eax]
  00022	83 fa ff	 cmp	 edx, -1
  00025	74 18		 je	 SHORT $LN15@stop_voice

; 2119 : #if VOICE_KILL_ON
; 2120 : 			voice_kill_buf[voice_kill_point++] = play_use_task[ch][cnt];
; 2121 : #else
; 2122 : 			voice[play_use_task[ch][cnt]].name = VOICE_KEY_OFF_FAST;		//????î²?????

  00027	8b ca		 mov	 ecx, edx

; 2123 : #endif
; 2124 : 			play_use_task[ch][cnt] = -1;					//???î ¹î¸?

  00029	c7 00 ff ff ff
	ff		 mov	 DWORD PTR [eax], -1
  0002f	c1 e1 04	 shl	 ecx, 4
  00032	2b ca		 sub	 ecx, edx
  00034	c7 04 8d 00 00
	00 00 6e 00 00
	00		 mov	 DWORD PTR ?voice@@3PAUVOICE_EQU@@A[ecx*4], 110 ; 0000006eH
$LN15@stop_voice:

; 2117 : 	for (int cnt = 0; cnt < play_use_task_cnt[ch]; cnt++) {

  0003f	83 c0 04	 add	 eax, 4
  00042	83 ee 01	 sub	 esi, 1
  00045	75 d9		 jne	 SHORT $LL9@stop_voice
$LN3@stop_voice:
  00047	5e		 pop	 esi

; 2125 : 		}
; 2126 : 	}
; 2127 : }

  00048	c3		 ret	 0
?stop_voice@@YAXXZ ENDP					; stop_voice
_TEXT	ENDS
; Function compile flags: /Ogtp
; File C:\Users\gg862\OneDrive\¹ÙÅÁ È­¸é\¸¾Äí¿Ï·á\Client Source Code1.31ÀÏº»\system\t_music.cpp
;	COMDAT ?set_tone@@YAHHJHH@Z
_TEXT	SEGMENT
_tone$ = 8						; size = 4
_note$ = 12						; size = 4
_use_task_cnt$ = 16					; size = 4
_delay$ = 20						; size = 4
?set_tone@@YAHHJHH@Z PROC				; set_tone, COMDAT

; 2068 : {

  00000	55		 push	 ebp
  00001	8b ec		 mov	 ebp, esp
  00003	56		 push	 esi

; 2069 : 	int d7, d1 = 0;
; 2070 : 
; 2071 : 	for (d7 = 0; d7 < VOICE_MAX; d7++) {		//???????î?

  00004	8b 35 00 00 00
	00		 mov	 esi, DWORD PTR ?voice_seek_point@@3HA
  0000a	33 c9		 xor	 ecx, ecx
  0000c	0f 1f 40 00	 npad	 4
$LL4@set_tone:

; 2072 : //		if( voice[ d7 ].name == 0){		//???
; 2073 : 		if (voice[voice_seek_point].name == 0) {		//???

  00010	8b c6		 mov	 eax, esi
  00012	c1 e0 04	 shl	 eax, 4
  00015	2b c6		 sub	 eax, esi
  00017	83 3c 85 00 00
	00 00 00	 cmp	 DWORD PTR ?voice@@3PAUVOICE_EQU@@A[eax*4], 0
  0001f	74 2c		 je	 SHORT $LN6@set_tone

; 2074 : 			d1 = 1;										//??????
; 2075 : 			break;
; 2076 : 		}
; 2077 : 		voice_seek_point++;

  00021	46		 inc	 esi
  00022	41		 inc	 ecx

; 2078 : 		voice_seek_point &= VOICE_MAX - 1;

  00023	83 e6 3f	 and	 esi, 63			; 0000003fH
  00026	89 35 00 00 00
	00		 mov	 DWORD PTR ?voice_seek_point@@3HA, esi
  0002c	83 f9 40	 cmp	 ecx, 64			; 00000040H
  0002f	7c df		 jl	 SHORT $LL4@set_tone

; 2079 : 	}
; 2080 : 	if (!d1) {		//????????
; 2081 : #ifdef  _STONDEBUG_
; 2082 : 		MessageBox(hWnd, "???î?", "Error", MB_OK);		//????î??
; 2083 : #endif
; 2084 : 		play_use_task[ch][use_task_cnt] = -1;		//î¸??????

  00031	8b 4d 10	 mov	 ecx, DWORD PTR _use_task_cnt$[ebp]
  00034	a1 00 00 00 00	 mov	 eax, DWORD PTR ?ch@@3HA
  00039	5e		 pop	 esi
  0003a	8d 04 c1	 lea	 eax, DWORD PTR [ecx+eax*8]
  0003d	c7 04 85 00 00
	00 00 ff ff ff
	ff		 mov	 DWORD PTR ?play_use_task@@3PAY07HA[eax*4], -1

; 2085 : 		return -1;

  00048	83 c8 ff	 or	 eax, -1

; 2112 : }

  0004b	5d		 pop	 ebp
  0004c	c3		 ret	 0
$LN6@set_tone:

; 2086 : 	}
; 2087 : 	d7 = voice_seek_point;
; 2088 : 
; 2089 : 	play_use_task[ch][use_task_cnt] = d7;		//î¸????î±?îî¼

  0004d	a1 00 00 00 00	 mov	 eax, DWORD PTR ?ch@@3HA
  00052	53		 push	 ebx
  00053	8b 5d 10	 mov	 ebx, DWORD PTR _use_task_cnt$[ebp]
  00056	57		 push	 edi

; 2090 : 
; 2091 : 	voice[d7].name = VOICE_KEY_ON;			//î­î¹?î???
; 2092 : 
; 2093 : 	if (voice[d7].tone_no == tone)		//î¯??îî±??

  00057	8b 7d 08	 mov	 edi, DWORD PTR _tone$[ebp]
  0005a	8d 04 c3	 lea	 eax, DWORD PTR [ebx+eax*8]
  0005d	89 34 85 00 00
	00 00		 mov	 DWORD PTR ?play_use_task@@3PAY07HA[eax*4], esi
  00064	8b c6		 mov	 eax, esi
  00066	c1 e0 04	 shl	 eax, 4
  00069	2b c6		 sub	 eax, esi
  0006b	c7 04 85 00 00
	00 00 01 00 00
	00		 mov	 DWORD PTR ?voice@@3PAUVOICE_EQU@@A[eax*4], 1
  00076	39 3c 85 04 00
	00 00		 cmp	 DWORD PTR ?voice@@3PAUVOICE_EQU@@A[eax*4+4], edi
  0007d	74 63		 je	 SHORT $set_tone_500$21

; 2094 : 		goto set_tone_500;				//??????
; 2095 : 
; 2096 : 	voice[d7].tone_no = tone;		//?îî±?îî¼
; 2097 : 
; 2098 : 	RELEASE(pDSData[d7]);

  0007f	8b 0c b5 00 00
	00 00		 mov	 ecx, DWORD PTR ?pDSData@@3PAPAUIDirectSoundBuffer@@A[esi*4]
  00086	89 3c 85 04 00
	00 00		 mov	 DWORD PTR ?voice@@3PAUVOICE_EQU@@A[eax*4+4], edi
  0008d	8d 04 b5 00 00
	00 00		 lea	 eax, DWORD PTR ?pDSData@@3PAPAUIDirectSoundBuffer@@A[esi*4]
  00094	85 c9		 test	 ecx, ecx
  00096	74 11		 je	 SHORT $LN9@set_tone
  00098	8b 01		 mov	 eax, DWORD PTR [ecx]
  0009a	51		 push	 ecx
  0009b	ff 50 08	 call	 DWORD PTR [eax+8]
  0009e	c7 04 b5 00 00
	00 00 00 00 00
	00		 mov	 DWORD PTR ?pDSData@@3PAPAUIDirectSoundBuffer@@A[esi*4], 0
$LN9@set_tone:

; 2099 : 
; 2100 : 	if (pDSound->DuplicateSoundBuffer(pDSData_tone[tone], &pDSData[d7]) != DS_OK) {		//?î???

  000a9	a1 00 00 00 00	 mov	 eax, DWORD PTR ?pDSound@@3PAUIDirectSound@@A ; pDSound
  000ae	8d 14 b5 00 00
	00 00		 lea	 edx, DWORD PTR ?pDSData@@3PAPAUIDirectSoundBuffer@@A[esi*4]
  000b5	52		 push	 edx
  000b6	ff 34 bd 00 00
	00 00		 push	 DWORD PTR ?pDSData_tone@@3PAPAUIDirectSoundBuffer@@A[edi*4]
  000bd	8b 08		 mov	 ecx, DWORD PTR [eax]
  000bf	50		 push	 eax
  000c0	ff 51 14	 call	 DWORD PTR [ecx+20]
  000c3	85 c0		 test	 eax, eax
  000c5	74 1b		 je	 SHORT $set_tone_500$21

; 2101 : #ifdef  _STONDEBUG_
; 2102 : 		MessageBox(hWnd, "å¤å¶å£°é³bufferå¤±è´¥ï¼", "Error", MB_OK);
; 2103 : #endif
; 2104 : 		play_use_task[ch][use_task_cnt] = -1;		//î¸??????

  000c7	a1 00 00 00 00	 mov	 eax, DWORD PTR ?ch@@3HA
  000cc	5f		 pop	 edi
  000cd	8d 04 c3	 lea	 eax, DWORD PTR [ebx+eax*8]
  000d0	5b		 pop	 ebx
  000d1	c7 04 85 00 00
	00 00 ff ff ff
	ff		 mov	 DWORD PTR ?play_use_task@@3PAY07HA[eax*4], -1

; 2105 : 		return -1;

  000dc	83 c8 ff	 or	 eax, -1
  000df	5e		 pop	 esi

; 2112 : }

  000e0	5d		 pop	 ebp
  000e1	c3		 ret	 0
$set_tone_500$21:

; 2106 : 	}
; 2107 : 
; 2108 : set_tone_500:
; 2109 : 	set_voice_param(d7, note, delay, 1);		//???????????

  000e2	6a 01		 push	 1
  000e4	ff 75 14	 push	 DWORD PTR _delay$[ebp]
  000e7	ff 75 0c	 push	 DWORD PTR _note$[ebp]
  000ea	56		 push	 esi
  000eb	e8 00 00 00 00	 call	 ?set_voice_param@@YAXHJHH@Z ; set_voice_param
  000f0	83 c4 10	 add	 esp, 16			; 00000010H

; 2110 : 
; 2111 : 	return 0;

  000f3	33 c0		 xor	 eax, eax
  000f5	5f		 pop	 edi
  000f6	5b		 pop	 ebx
  000f7	5e		 pop	 esi

; 2112 : }

  000f8	5d		 pop	 ebp
  000f9	c3		 ret	 0
?set_tone@@YAHHJHH@Z ENDP				; set_tone
_TEXT	ENDS
; Function compile flags: /Ogtp
; File C:\Users\gg862\OneDrive\¹ÙÅÁ È­¸é\¸¾Äí¿Ï·á\Client Source Code1.31ÀÏº»\system\t_music.cpp
;	COMDAT ?set_voice_param@@YAXHJHH@Z
_TEXT	SEGMENT
_task_no$ = 8						; size = 4
_note$ = 12						; size = 4
_delay$ = 16						; size = 4
_lfo_flg$ = 20						; size = 4
?set_voice_param@@YAXHJHH@Z PROC			; set_voice_param, COMDAT

; 2026 : {

  00000	55		 push	 ebp
  00001	8b ec		 mov	 ebp, esp

; 2027 : 	voice[task_no].volume = dataVolume[ch];			// ????????

  00003	8b 4d 08	 mov	 ecx, DWORD PTR _task_no$[ebp]
  00006	56		 push	 esi
  00007	8b 35 00 00 00
	00		 mov	 esi, DWORD PTR ?ch@@3HA
  0000d	c1 e1 04	 shl	 ecx, 4
  00010	2b 4d 08	 sub	 ecx, DWORD PTR _task_no$[ebp]
  00013	57		 push	 edi

; 2028 : //	voice[ task_no ].freq = freq + dataFrequency[ch];	// î«î¦????
; 2029 : 	// î«î¦????
; 2030 : 	if (play_detune[ch] > 0) {		//???????????

  00014	8b 14 b5 00 00
	00 00		 mov	 edx, DWORD PTR ?play_detune@@3PAHA[esi*4]
  0001b	8b 04 b5 00 00
	00 00		 mov	 eax, DWORD PTR ?dataVolume@@3PAHA[esi*4]
  00022	8b 7d 0c	 mov	 edi, DWORD PTR _note$[ebp]
  00025	89 04 8d 08 00
	00 00		 mov	 DWORD PTR ?voice@@3PAUVOICE_EQU@@A[ecx*4+8], eax
  0002c	85 d2		 test	 edx, edx
  0002e	7e 23		 jle	 SHORT $LN2@set_voice_

; 2031 : 		voice[task_no].freq = freq_tbl[note] + detune_tbl[note] * play_detune[ch] / 64 + dataFrequency[ch];

  00030	8b 04 bd 00 00
	00 00		 mov	 eax, DWORD PTR ?detune_tbl@@3PAHA[edi*4]
  00037	0f af c2	 imul	 eax, edx
  0003a	99		 cdq
  0003b	83 e2 3f	 and	 edx, 63			; 0000003fH
  0003e	03 c2		 add	 eax, edx
  00040	c1 f8 06	 sar	 eax, 6
  00043	03 04 b5 00 00
	00 00		 add	 eax, DWORD PTR ?dataFrequency@@3PAJA[esi*4]
  0004a	03 04 bd 00 00
	00 00		 add	 eax, DWORD PTR ?freq_tbl@@3PAHA[edi*4]

; 2032 : 	}

  00051	eb 34		 jmp	 SHORT $LN5@set_voice_
$LN2@set_voice_:

; 2033 : 	else if (play_detune[ch] < 0) {		//????????????

  00053	8b 04 bd 00 00
	00 00		 mov	 eax, DWORD PTR ?freq_tbl@@3PAHA[edi*4]
  0005a	53		 push	 ebx
  0005b	8b 1c b5 00 00
	00 00		 mov	 ebx, DWORD PTR ?dataFrequency@@3PAJA[esi*4]
  00062	85 d2		 test	 edx, edx
  00064	79 1e		 jns	 SHORT $LN4@set_voice_

; 2034 : 		voice[task_no].freq = freq_tbl[note] + detune_tbl[note - 1] * play_detune[ch] / 64 + dataFrequency[ch];

  00066	8b 04 bd fc ff
	ff ff		 mov	 eax, DWORD PTR ?detune_tbl@@3PAHA[edi*4-4]
  0006d	0f af c2	 imul	 eax, edx
  00070	99		 cdq
  00071	83 e2 3f	 and	 edx, 63			; 0000003fH
  00074	03 c2		 add	 eax, edx
  00076	c1 f8 06	 sar	 eax, 6
  00079	03 c3		 add	 eax, ebx
  0007b	03 04 bd 00 00
	00 00		 add	 eax, DWORD PTR ?freq_tbl@@3PAHA[edi*4]

; 2035 : 	}

  00082	eb 02		 jmp	 SHORT $LN13@set_voice_
$LN4@set_voice_:

; 2036 : 	else {					//?????îî?????
; 2037 : 		voice[task_no].freq = freq_tbl[note] + dataFrequency[ch];

  00084	03 c3		 add	 eax, ebx
$LN13@set_voice_:
  00086	5b		 pop	 ebx
$LN5@set_voice_:

; 2038 : 	}
; 2039 : 	voice[task_no].note_no = note;				// ???î±????

  00087	89 04 8d 38 00
	00 00		 mov	 DWORD PTR ?voice@@3PAUVOICE_EQU@@A[ecx*4+56], eax

; 2040 : 	voice[task_no].pan = dataPan[ch];				// ????????

  0008e	8b 04 b5 00 00
	00 00		 mov	 eax, DWORD PTR ?dataPan@@3PAHA[esi*4]
  00095	89 04 8d 2c 00
	00 00		 mov	 DWORD PTR ?voice@@3PAUVOICE_EQU@@A[ecx*4+44], eax

; 2041 : 	voice[task_no].release_spd = wave[ch];		// ?????????

  0009c	8b 04 b5 00 00
	00 00		 mov	 eax, DWORD PTR ?wave@@3PAHA[esi*4]
  000a3	89 04 8d 14 00
	00 00		 mov	 DWORD PTR ?voice@@3PAUVOICE_EQU@@A[ecx*4+20], eax

; 2042 : 	voice[task_no].release_cnt = 0;				//
; 2043 : 	if (voice[task_no].tone_no == 12 - 1) {				//????î??
; 2044 : 		voice[task_no].loop_flg = DSBPLAY_LOOPING;	//
; 2045 : 	}
; 2046 : 	else {
; 2047 : 		voice[task_no].loop_flg = 0;					//
; 2048 : 	}
; 2049 : 	if (delay >= 0) {								//?????????????

  000aa	33 c0		 xor	 eax, eax
  000ac	83 3c 8d 04 00
	00 00 0b	 cmp	 DWORD PTR ?voice@@3PAUVOICE_EQU@@A[ecx*4+4], 11 ; 0000000bH
  000b4	89 3c 8d 0c 00
	00 00		 mov	 DWORD PTR ?voice@@3PAUVOICE_EQU@@A[ecx*4+12], edi
  000bb	0f 94 c0	 sete	 al
  000be	c7 04 8d 10 00
	00 00 00 00 00
	00		 mov	 DWORD PTR ?voice@@3PAUVOICE_EQU@@A[ecx*4+16], 0
  000c9	89 04 8d 30 00
	00 00		 mov	 DWORD PTR ?voice@@3PAUVOICE_EQU@@A[ecx*4+48], eax
  000d0	8b 45 10	 mov	 eax, DWORD PTR _delay$[ebp]
  000d3	85 c0		 test	 eax, eax
  000d5	78 07		 js	 SHORT $LN8@set_voice_

; 2050 : 		voice[task_no].delay_cnt = delay;		//

  000d7	89 04 8d 34 00
	00 00		 mov	 DWORD PTR ?voice@@3PAUVOICE_EQU@@A[ecx*4+52], eax
$LN8@set_voice_:

; 2051 : 	}
; 2052 : 	if (lfo_flg) {		//??????????

  000de	83 7d 14 00	 cmp	 DWORD PTR _lfo_flg$[ebp], 0
  000e2	74 43		 je	 SHORT $LN9@set_voice_

; 2053 : 		voice[task_no].lfo_h = play_lfo_h[ch];					//??????

  000e4	8b 04 b5 00 00
	00 00		 mov	 eax, DWORD PTR ?play_lfo_h@@3PAHA[esi*4]
  000eb	89 04 8d 18 00
	00 00		 mov	 DWORD PTR ?voice@@3PAUVOICE_EQU@@A[ecx*4+24], eax

; 2054 : 		voice[task_no].lfo_m = play_lfo_m[ch];					//

  000f2	8b 04 b5 00 00
	00 00		 mov	 eax, DWORD PTR ?play_lfo_m@@3PAHA[esi*4]
  000f9	89 04 8d 1c 00
	00 00		 mov	 DWORD PTR ?voice@@3PAUVOICE_EQU@@A[ecx*4+28], eax

; 2055 : 		if ((voice[task_no].lfo_s = play_lfo_s[ch]) >= 0) {		//

  00100	8b 04 b5 00 00
	00 00		 mov	 eax, DWORD PTR ?play_lfo_s@@3PAHA[esi*4]
  00107	89 04 8d 20 00
	00 00		 mov	 DWORD PTR ?voice@@3PAUVOICE_EQU@@A[ecx*4+32], eax

; 2056 : 			voice[task_no].lfo_s_ang = 1;							//
; 2057 : 		}
; 2058 : 		else {
; 2059 : 			voice[task_no].lfo_s_ang = -1;						//
; 2060 : 		}
; 2061 : 		voice[task_no].lfo_s_cnt = 0;								//

  0010e	c1 f8 1f	 sar	 eax, 31			; 0000001fH
  00111	83 e0 fe	 and	 eax, -2			; fffffffeH
  00114	40		 inc	 eax
  00115	89 04 8d 28 00
	00 00		 mov	 DWORD PTR ?voice@@3PAUVOICE_EQU@@A[ecx*4+40], eax
  0011c	c7 04 8d 24 00
	00 00 00 00 00
	00		 mov	 DWORD PTR ?voice@@3PAUVOICE_EQU@@A[ecx*4+36], 0
$LN9@set_voice_:

; 2062 : 	}
; 2063 : }

  00127	5f		 pop	 edi
  00128	5e		 pop	 esi
  00129	5d		 pop	 ebp
  0012a	c3		 ret	 0
?set_voice_param@@YAXHJHH@Z ENDP			; set_voice_param
_TEXT	ENDS
; Function compile flags: /Ogtp
; File C:\Users\gg862\OneDrive\¹ÙÅÁ È­¸é\¸¾Äí¿Ï·á\Client Source Code1.31ÀÏº»\system\t_music.cpp
;	COMDAT ?voice_action@@YAXH@Z
_TEXT	SEGMENT
_a0$ = 8						; size = 4
?voice_action@@YAXH@Z PROC				; voice_action, COMDAT

; 1965 : {

  00000	55		 push	 ebp
  00001	8b ec		 mov	 ebp, esp
  00003	56		 push	 esi
  00004	57		 push	 edi

; 1966 : 	DWORD	Status = 0;
; 1967 : 
; 1968 : 	switch (voice[a0].name) {

  00005	8b 7d 08	 mov	 edi, DWORD PTR _a0$[ebp]
  00008	8b f7		 mov	 esi, edi
  0000a	c1 e6 04	 shl	 esi, 4
  0000d	2b f7		 sub	 esi, edi
  0000f	8b 04 b5 00 00
	00 00		 mov	 eax, DWORD PTR ?voice@@3PAUVOICE_EQU@@A[esi*4]
  00016	48		 dec	 eax
  00017	83 f8 6d	 cmp	 eax, 109		; 0000006dH
  0001a	0f 87 a6 01 00
	00		 ja	 $LN2@voice_acti
  00020	0f b6 80 00 00
	00 00		 movzx	 eax, BYTE PTR $LN14@voice_acti[eax]
  00027	ff 24 85 00 00
	00 00		 jmp	 DWORD PTR $LN15@voice_acti[eax*4]
$LN4@voice_acti:

; 1969 : 	case VOICE_KEY_ON:		//î­î¹????
; 1970 : 		if (voice[a0].delay_cnt) {		//?????????

  0002e	8b 04 b5 34 00
	00 00		 mov	 eax, DWORD PTR ?voice@@3PAUVOICE_EQU@@A[esi*4+52]
  00035	85 c0		 test	 eax, eax
  00037	74 0c		 je	 SHORT $LN5@voice_acti

; 1971 : 			voice[a0].delay_cnt--;

  00039	48		 dec	 eax
  0003a	5f		 pop	 edi
  0003b	89 04 b5 34 00
	00 00		 mov	 DWORD PTR ?voice@@3PAUVOICE_EQU@@A[esi*4+52], eax

; 2020 : 		break;
; 2021 : #endif
; 2022 : 	}
; 2023 : }

  00042	5e		 pop	 esi
  00043	5d		 pop	 ebp
  00044	c3		 ret	 0
$LN5@voice_acti:

; 1972 : 			return;
; 1973 : 		}
; 1974 : 		pDSData[a0]->SetVolume(volume_tbl[voice[a0].volume]);		// ????????

  00045	8b 0c bd 00 00
	00 00		 mov	 ecx, DWORD PTR ?pDSData@@3PAPAUIDirectSoundBuffer@@A[edi*4]
  0004c	8b 04 b5 08 00
	00 00		 mov	 eax, DWORD PTR ?voice@@3PAUVOICE_EQU@@A[esi*4+8]
  00053	8b 11		 mov	 edx, DWORD PTR [ecx]
  00055	ff 34 85 00 00
	00 00		 push	 DWORD PTR ?volume_tbl@@3PAJA[eax*4]
  0005c	51		 push	 ecx
  0005d	ff 52 3c	 call	 DWORD PTR [edx+60]

; 1975 : 		pDSData[a0]->SetFrequency((DWORD)voice[a0].freq);			// î«î¦????

  00060	8b 04 bd 00 00
	00 00		 mov	 eax, DWORD PTR ?pDSData@@3PAPAUIDirectSoundBuffer@@A[edi*4]
  00067	ff 34 b5 38 00
	00 00		 push	 DWORD PTR ?voice@@3PAUVOICE_EQU@@A[esi*4+56]
  0006e	50		 push	 eax
  0006f	8b 08		 mov	 ecx, DWORD PTR [eax]
  00071	ff 51 44	 call	 DWORD PTR [ecx+68]

; 1976 : 		pDSData[a0]->SetPan(panpot_tbl[voice[a0].pan]);			// ????????

  00074	8b 0c bd 00 00
	00 00		 mov	 ecx, DWORD PTR ?pDSData@@3PAPAUIDirectSoundBuffer@@A[edi*4]
  0007b	8b 04 b5 2c 00
	00 00		 mov	 eax, DWORD PTR ?voice@@3PAUVOICE_EQU@@A[esi*4+44]
  00082	8b 11		 mov	 edx, DWORD PTR [ecx]
  00084	ff 34 85 00 00
	00 00		 push	 DWORD PTR ?panpot_tbl@@3PAJA[eax*4]
  0008b	51		 push	 ecx
  0008c	ff 52 40	 call	 DWORD PTR [edx+64]

; 1977 : 		pDSData[a0]->Play(0, 0, voice[a0].loop_flg);				//????

  0008f	8b 04 bd 00 00
	00 00		 mov	 eax, DWORD PTR ?pDSData@@3PAPAUIDirectSoundBuffer@@A[edi*4]
  00096	ff 34 b5 30 00
	00 00		 push	 DWORD PTR ?voice@@3PAUVOICE_EQU@@A[esi*4+48]
  0009d	6a 00		 push	 0
  0009f	8b 08		 mov	 ecx, DWORD PTR [eax]
  000a1	6a 00		 push	 0
  000a3	50		 push	 eax
  000a4	ff 51 30	 call	 DWORD PTR [ecx+48]

; 1978 : 		voice[a0].name = VOICE_NORMAL;

  000a7	c7 04 b5 00 00
	00 00 02 00 00
	00		 mov	 DWORD PTR ?voice@@3PAUVOICE_EQU@@A[esi*4], 2
$LN13@voice_acti:

; 2020 : 		break;
; 2021 : #endif
; 2022 : 	}
; 2023 : }

  000b2	57		 push	 edi
  000b3	e8 00 00 00 00	 call	 ?voice_lfo@@YAXH@Z	; voice_lfo
  000b8	83 c4 04	 add	 esp, 4
  000bb	5f		 pop	 edi
  000bc	5e		 pop	 esi
  000bd	5d		 pop	 ebp
  000be	c3		 ret	 0
$LN7@voice_acti:

; 1979 : 		voice_lfo(a0);		//??????
; 1980 : 		break;
; 1981 : 	case VOICE_NORMAL:		//î­î¹?????
; 1982 : 		voice_lfo(a0);		//??????
; 1983 : 		break;
; 1984 : 	case VOICE_TIE_SET:		//???????
; 1985 : 		pDSData[a0]->SetVolume(volume_tbl[voice[a0].volume]);		// ????????

  000bf	8b 0c bd 00 00
	00 00		 mov	 ecx, DWORD PTR ?pDSData@@3PAPAUIDirectSoundBuffer@@A[edi*4]
  000c6	8b 04 b5 08 00
	00 00		 mov	 eax, DWORD PTR ?voice@@3PAUVOICE_EQU@@A[esi*4+8]
  000cd	8b 11		 mov	 edx, DWORD PTR [ecx]
  000cf	ff 34 85 00 00
	00 00		 push	 DWORD PTR ?volume_tbl@@3PAJA[eax*4]
  000d6	51		 push	 ecx
  000d7	ff 52 3c	 call	 DWORD PTR [edx+60]

; 1986 : 		pDSData[a0]->SetFrequency((DWORD)voice[a0].freq);		// î«î¦????

  000da	8b 04 bd 00 00
	00 00		 mov	 eax, DWORD PTR ?pDSData@@3PAPAUIDirectSoundBuffer@@A[edi*4]
  000e1	ff 34 b5 38 00
	00 00		 push	 DWORD PTR ?voice@@3PAUVOICE_EQU@@A[esi*4+56]
  000e8	50		 push	 eax
  000e9	8b 08		 mov	 ecx, DWORD PTR [eax]
  000eb	ff 51 44	 call	 DWORD PTR [ecx+68]

; 1987 : 		pDSData[a0]->SetPan(panpot_tbl[voice[a0].pan]);			// ????????

  000ee	8b 0c bd 00 00
	00 00		 mov	 ecx, DWORD PTR ?pDSData@@3PAPAUIDirectSoundBuffer@@A[edi*4]
  000f5	8b 04 b5 2c 00
	00 00		 mov	 eax, DWORD PTR ?voice@@3PAUVOICE_EQU@@A[esi*4+44]
  000fc	8b 11		 mov	 edx, DWORD PTR [ecx]
  000fe	ff 34 85 00 00
	00 00		 push	 DWORD PTR ?panpot_tbl@@3PAJA[eax*4]
  00105	51		 push	 ecx
  00106	ff 52 40	 call	 DWORD PTR [edx+64]
  00109	5f		 pop	 edi

; 1988 : 		voice[a0].name = VOICE_NORMAL;

  0010a	c7 04 b5 00 00
	00 00 02 00 00
	00		 mov	 DWORD PTR ?voice@@3PAUVOICE_EQU@@A[esi*4], 2

; 2020 : 		break;
; 2021 : #endif
; 2022 : 	}
; 2023 : }

  00115	5e		 pop	 esi
  00116	5d		 pop	 ebp
  00117	c3		 ret	 0
$LN8@voice_acti:

; 1989 : 		break;
; 1990 : 	case VOICE_KEY_OFF:		//î­î¹????
; 1991 : //		if( pDSData[ a0 ]->GetStatus( &Status ) == DS_OK ){
; 1992 : ///		pDSData[ a0 ]->GetStatus( &Status );		//????????î?î?
; 1993 : ///		if( Status & DSBSTATUS_PLAYING || Status & DSBSTATUS_LOOPING ){		//?î???
; 1994 : 		if (voice[a0].volume) {		//??????????

  00118	8b 0c b5 08 00
	00 00		 mov	 ecx, DWORD PTR ?voice@@3PAUVOICE_EQU@@A[esi*4+8]
  0011f	85 c9		 test	 ecx, ecx
  00121	74 51		 je	 SHORT $LN9@voice_acti

; 1995 : 			voice[a0].release_cnt++;		//?????î?????

  00123	ff 04 b5 10 00
	00 00		 inc	 DWORD PTR ?voice@@3PAUVOICE_EQU@@A[esi*4+16]
  0012a	8b 04 b5 10 00
	00 00		 mov	 eax, DWORD PTR ?voice@@3PAUVOICE_EQU@@A[esi*4+16]

; 1996 : 			if (voice[a0].release_spd != voice[a0].release_cnt) {

  00131	39 04 b5 14 00
	00 00		 cmp	 DWORD PTR ?voice@@3PAUVOICE_EQU@@A[esi*4+20], eax
  00138	0f 85 74 ff ff
	ff		 jne	 $LN13@voice_acti

; 1997 : 				voice_lfo(a0);		//??????
; 1998 : 				break;		//???????î??
; 1999 : 			}
; 2000 : 			voice[a0].release_cnt = 0;		//?????î??
; 2001 : 			voice[a0].volume--;		//????????

  0013e	8d 41 ff	 lea	 eax, DWORD PTR [ecx-1]
  00141	c7 04 b5 10 00
	00 00 00 00 00
	00		 mov	 DWORD PTR ?voice@@3PAUVOICE_EQU@@A[esi*4+16], 0

; 2002 : //				if(voice[ a0 ].volume < 0){		//??????????
; 2003 : //					voice[ a0 ].volume=0;		//?????????
; 2004 : //				}
; 2005 : 			pDSData[a0]->SetVolume(volume_tbl[voice[a0].volume]);		// ?????î?

  0014c	8b 0c bd 00 00
	00 00		 mov	 ecx, DWORD PTR ?pDSData@@3PAPAUIDirectSoundBuffer@@A[edi*4]
  00153	ff 34 85 00 00
	00 00		 push	 DWORD PTR ?volume_tbl@@3PAJA[eax*4]
  0015a	89 04 b5 08 00
	00 00		 mov	 DWORD PTR ?voice@@3PAUVOICE_EQU@@A[esi*4+8], eax
  00161	51		 push	 ecx
  00162	8b 11		 mov	 edx, DWORD PTR [ecx]
  00164	ff 52 3c	 call	 DWORD PTR [edx+60]

; 2006 : 			voice_lfo(a0);		//??????

  00167	57		 push	 edi
  00168	e8 00 00 00 00	 call	 ?voice_lfo@@YAXH@Z	; voice_lfo
  0016d	83 c4 04	 add	 esp, 4
  00170	5f		 pop	 edi

; 2020 : 		break;
; 2021 : #endif
; 2022 : 	}
; 2023 : }

  00171	5e		 pop	 esi
  00172	5d		 pop	 ebp
  00173	c3		 ret	 0
$LN9@voice_acti:

; 2007 : 			break;		//????î??
; 2008 : 		}
; 2009 : 		///		}
; 2010 : 		pDSData[a0]->Stop();							//????

  00174	8b 04 bd 00 00
	00 00		 mov	 eax, DWORD PTR ?pDSData@@3PAPAUIDirectSoundBuffer@@A[edi*4]
  0017b	50		 push	 eax
  0017c	8b 08		 mov	 ecx, DWORD PTR [eax]
  0017e	ff 51 48	 call	 DWORD PTR [ecx+72]

; 2011 : 		pDSData[a0]->SetCurrentPosition(0);			//

  00181	8b 04 bd 00 00
	00 00		 mov	 eax, DWORD PTR ?pDSData@@3PAPAUIDirectSoundBuffer@@A[edi*4]
  00188	6a 00		 push	 0
  0018a	50		 push	 eax
  0018b	8b 08		 mov	 ecx, DWORD PTR [eax]
  0018d	ff 51 34	 call	 DWORD PTR [ecx+52]
  00190	5f		 pop	 edi

; 2012 : 		voice[a0].name = VOICE_KEY_OFF_WAIT;			//î?????î?

  00191	c7 04 b5 00 00
	00 00 c8 00 00
	00		 mov	 DWORD PTR ?voice@@3PAUVOICE_EQU@@A[esi*4], 200 ; 000000c8H

; 2020 : 		break;
; 2021 : #endif
; 2022 : 	}
; 2023 : }

  0019c	5e		 pop	 esi
  0019d	5d		 pop	 ebp
  0019e	c3		 ret	 0
$LN11@voice_acti:

; 2013 : //		play_use_task[ voice[ a0 ].track_no	] = -1;		//
; 2014 : 		break;
; 2015 : #if !VOICE_KILL_ON
; 2016 : 	case VOICE_KEY_OFF_FAST:		//î²?????
; 2017 : 		pDSData[a0]->Stop();					//????

  0019f	8b 04 bd 00 00
	00 00		 mov	 eax, DWORD PTR ?pDSData@@3PAPAUIDirectSoundBuffer@@A[edi*4]
  001a6	50		 push	 eax
  001a7	8b 08		 mov	 ecx, DWORD PTR [eax]
  001a9	ff 51 48	 call	 DWORD PTR [ecx+72]

; 2018 : 		pDSData[a0]->SetCurrentPosition(0);			//

  001ac	8b 04 bd 00 00
	00 00		 mov	 eax, DWORD PTR ?pDSData@@3PAPAUIDirectSoundBuffer@@A[edi*4]
  001b3	6a 00		 push	 0
  001b5	50		 push	 eax
  001b6	8b 08		 mov	 ecx, DWORD PTR [eax]
  001b8	ff 51 34	 call	 DWORD PTR [ecx+52]

; 2019 : 		voice[a0].name = 0;					//

  001bb	c7 04 b5 00 00
	00 00 00 00 00
	00		 mov	 DWORD PTR ?voice@@3PAUVOICE_EQU@@A[esi*4], 0
$LN2@voice_acti:

; 2020 : 		break;
; 2021 : #endif
; 2022 : 	}
; 2023 : }

  001c6	5f		 pop	 edi
  001c7	5e		 pop	 esi
  001c8	5d		 pop	 ebp
  001c9	c3		 ret	 0
  001ca	66 90		 npad	 2
$LN15@voice_acti:
  001cc	00 00 00 00	 DD	 $LN4@voice_acti
  001d0	00 00 00 00	 DD	 $LN13@voice_acti
  001d4	00 00 00 00	 DD	 $LN7@voice_acti
  001d8	00 00 00 00	 DD	 $LN8@voice_acti
  001dc	00 00 00 00	 DD	 $LN11@voice_acti
  001e0	00 00 00 00	 DD	 $LN2@voice_acti
$LN14@voice_acti:
  001e4	00		 DB	 0
  001e5	01		 DB	 1
  001e6	05		 DB	 5
  001e7	05		 DB	 5
  001e8	05		 DB	 5
  001e9	05		 DB	 5
  001ea	05		 DB	 5
  001eb	05		 DB	 5
  001ec	05		 DB	 5
  001ed	02		 DB	 2
  001ee	05		 DB	 5
  001ef	05		 DB	 5
  001f0	05		 DB	 5
  001f1	05		 DB	 5
  001f2	05		 DB	 5
  001f3	05		 DB	 5
  001f4	05		 DB	 5
  001f5	05		 DB	 5
  001f6	05		 DB	 5
  001f7	05		 DB	 5
  001f8	05		 DB	 5
  001f9	05		 DB	 5
  001fa	05		 DB	 5
  001fb	05		 DB	 5
  001fc	05		 DB	 5
  001fd	05		 DB	 5
  001fe	05		 DB	 5
  001ff	05		 DB	 5
  00200	05		 DB	 5
  00201	05		 DB	 5
  00202	05		 DB	 5
  00203	05		 DB	 5
  00204	05		 DB	 5
  00205	05		 DB	 5
  00206	05		 DB	 5
  00207	05		 DB	 5
  00208	05		 DB	 5
  00209	05		 DB	 5
  0020a	05		 DB	 5
  0020b	05		 DB	 5
  0020c	05		 DB	 5
  0020d	05		 DB	 5
  0020e	05		 DB	 5
  0020f	05		 DB	 5
  00210	05		 DB	 5
  00211	05		 DB	 5
  00212	05		 DB	 5
  00213	05		 DB	 5
  00214	05		 DB	 5
  00215	05		 DB	 5
  00216	05		 DB	 5
  00217	05		 DB	 5
  00218	05		 DB	 5
  00219	05		 DB	 5
  0021a	05		 DB	 5
  0021b	05		 DB	 5
  0021c	05		 DB	 5
  0021d	05		 DB	 5
  0021e	05		 DB	 5
  0021f	05		 DB	 5
  00220	05		 DB	 5
  00221	05		 DB	 5
  00222	05		 DB	 5
  00223	05		 DB	 5
  00224	05		 DB	 5
  00225	05		 DB	 5
  00226	05		 DB	 5
  00227	05		 DB	 5
  00228	05		 DB	 5
  00229	05		 DB	 5
  0022a	05		 DB	 5
  0022b	05		 DB	 5
  0022c	05		 DB	 5
  0022d	05		 DB	 5
  0022e	05		 DB	 5
  0022f	05		 DB	 5
  00230	05		 DB	 5
  00231	05		 DB	 5
  00232	05		 DB	 5
  00233	05		 DB	 5
  00234	05		 DB	 5
  00235	05		 DB	 5
  00236	05		 DB	 5
  00237	05		 DB	 5
  00238	05		 DB	 5
  00239	05		 DB	 5
  0023a	05		 DB	 5
  0023b	05		 DB	 5
  0023c	05		 DB	 5
  0023d	05		 DB	 5
  0023e	05		 DB	 5
  0023f	05		 DB	 5
  00240	05		 DB	 5
  00241	05		 DB	 5
  00242	05		 DB	 5
  00243	05		 DB	 5
  00244	05		 DB	 5
  00245	05		 DB	 5
  00246	05		 DB	 5
  00247	03		 DB	 3
  00248	05		 DB	 5
  00249	05		 DB	 5
  0024a	05		 DB	 5
  0024b	05		 DB	 5
  0024c	05		 DB	 5
  0024d	05		 DB	 5
  0024e	05		 DB	 5
  0024f	05		 DB	 5
  00250	05		 DB	 5
  00251	04		 DB	 4
?voice_action@@YAXH@Z ENDP				; voice_action
_TEXT	ENDS
; Function compile flags: /Ogtp
; File C:\Users\gg862\OneDrive\¹ÙÅÁ È­¸é\¸¾Äí¿Ï·á\Client Source Code1.31ÀÏº»\system\t_music.cpp
;	COMDAT ?voice_lfo@@YAXH@Z
_TEXT	SEGMENT
tv413 = 8						; size = 4
_a0$ = 8						; size = 4
?voice_lfo@@YAXH@Z PROC					; voice_lfo, COMDAT

; 1927 : {

  00000	55		 push	 ebp
  00001	8b ec		 mov	 ebp, esp
  00003	53		 push	 ebx
  00004	56		 push	 esi
  00005	57		 push	 edi

; 1928 : 	long d0;
; 1929 : 	if (!voice[a0].lfo_m) {		//???î¡???

  00006	8b 7d 08	 mov	 edi, DWORD PTR _a0$[ebp]
  00009	8b f7		 mov	 esi, edi
  0000b	c1 e6 04	 shl	 esi, 4
  0000e	2b f7		 sub	 esi, edi
  00010	8b 1c b5 1c 00
	00 00		 mov	 ebx, DWORD PTR ?voice@@3PAUVOICE_EQU@@A[esi*4+28]
  00017	85 db		 test	 ebx, ebx
  00019	0f 84 c3 00 00
	00		 je	 $LN7@voice_lfo

; 1930 : 		return;
; 1931 : 	}
; 1932 : 	if (!voice[a0].lfo_s) {		//???î¡???

  0001f	83 3c b5 20 00
	00 00 00	 cmp	 DWORD PTR ?voice@@3PAUVOICE_EQU@@A[esi*4+32], 0
  00027	0f 84 b5 00 00
	00		 je	 $LN7@voice_lfo

; 1933 : 		return;
; 1934 : 	}
; 1935 : 	if (voice[a0].lfo_h) {			//????î¿?????

  0002d	8b 04 b5 18 00
	00 00		 mov	 eax, DWORD PTR ?voice@@3PAUVOICE_EQU@@A[esi*4+24]
  00034	85 c0		 test	 eax, eax
  00036	74 0d		 je	 SHORT $LN4@voice_lfo

; 1936 : 		voice[a0].lfo_h--;

  00038	48		 dec	 eax
  00039	5f		 pop	 edi
  0003a	89 04 b5 18 00
	00 00		 mov	 DWORD PTR ?voice@@3PAUVOICE_EQU@@A[esi*4+24], eax

; 1953 : 	}
; 1954 : }

  00041	5e		 pop	 esi
  00042	5b		 pop	 ebx
  00043	5d		 pop	 ebp
  00044	c3		 ret	 0
$LN4@voice_lfo:

; 1937 : 		return;
; 1938 : 	}
; 1939 : 
; 1940 : 	voice[a0].lfo_s_cnt += voice[a0].lfo_s_ang;		//???????

  00045	8b 04 b5 24 00
	00 00		 mov	 eax, DWORD PTR ?voice@@3PAUVOICE_EQU@@A[esi*4+36]
  0004c	03 04 b5 28 00
	00 00		 add	 eax, DWORD PTR ?voice@@3PAUVOICE_EQU@@A[esi*4+40]
  00053	89 45 08	 mov	 DWORD PTR tv413[ebp], eax
  00056	89 04 b5 24 00
	00 00		 mov	 DWORD PTR ?voice@@3PAUVOICE_EQU@@A[esi*4+36], eax

; 1941 : 
; 1942 : //	if(voice[ a0 ].lfo_s_ang >= 0){		//îµ???????
; 1943 : 	if (voice[a0].lfo_s_cnt >= 0) {		//îµ???????

  0005d	8b 04 b5 20 00
	00 00		 mov	 eax, DWORD PTR ?voice@@3PAUVOICE_EQU@@A[esi*4+32]
  00064	99		 cdq
  00065	8b c8		 mov	 ecx, eax
  00067	8b 04 b5 0c 00
	00 00		 mov	 eax, DWORD PTR ?voice@@3PAUVOICE_EQU@@A[esi*4+12]
  0006e	33 ca		 xor	 ecx, edx
  00070	2b ca		 sub	 ecx, edx
  00072	83 7d 08 00	 cmp	 DWORD PTR tv413[ebp], 0
  00076	7c 09		 jl	 SHORT $LN5@voice_lfo

; 1944 : 		d0 = detune_tbl[voice[a0].note_no] * voice[a0].lfo_m / 128 * voice[a0].lfo_s_cnt / abs(voice[a0].lfo_s);

  00078	8b 04 85 00 00
	00 00		 mov	 eax, DWORD PTR ?detune_tbl@@3PAHA[eax*4]

; 1945 : 	}

  0007f	eb 07		 jmp	 SHORT $LN9@voice_lfo
$LN5@voice_lfo:

; 1946 : 	else {
; 1947 : 		d0 = detune_tbl[voice[a0].note_no - 1] * voice[a0].lfo_m / 128 * voice[a0].lfo_s_cnt / abs(voice[a0].lfo_s);

  00081	8b 04 85 fc ff
	ff ff		 mov	 eax, DWORD PTR ?detune_tbl@@3PAHA[eax*4-4]
$LN9@voice_lfo:

; 1948 : 	}
; 1949 : 	pDSData[a0]->SetFrequency((DWORD)(voice[a0].freq + d0));			// î«î¦????

  00088	0f af c3	 imul	 eax, ebx
  0008b	99		 cdq
  0008c	83 e2 7f	 and	 edx, 127		; 0000007fH
  0008f	03 c2		 add	 eax, edx
  00091	c1 f8 07	 sar	 eax, 7
  00094	0f af 45 08	 imul	 eax, DWORD PTR tv413[ebp]
  00098	99		 cdq
  00099	f7 f9		 idiv	 ecx
  0009b	8b 0c bd 00 00
	00 00		 mov	 ecx, DWORD PTR ?pDSData@@3PAPAUIDirectSoundBuffer@@A[edi*4]
  000a2	8b d8		 mov	 ebx, eax
  000a4	8b 04 b5 38 00
	00 00		 mov	 eax, DWORD PTR ?voice@@3PAUVOICE_EQU@@A[esi*4+56]
  000ab	03 c3		 add	 eax, ebx
  000ad	50		 push	 eax
  000ae	8b 11		 mov	 edx, DWORD PTR [ecx]
  000b0	51		 push	 ecx
  000b1	ff 52 44	 call	 DWORD PTR [edx+68]

; 1950 : 
; 1951 : 	if (abs(voice[a0].lfo_s_cnt) == abs(voice[a0].lfo_s)) {		//î?î???

  000b4	8b 04 b5 24 00
	00 00		 mov	 eax, DWORD PTR ?voice@@3PAUVOICE_EQU@@A[esi*4+36]
  000bb	99		 cdq
  000bc	8b c8		 mov	 ecx, eax
  000be	8b 04 b5 20 00
	00 00		 mov	 eax, DWORD PTR ?voice@@3PAUVOICE_EQU@@A[esi*4+32]
  000c5	33 ca		 xor	 ecx, edx
  000c7	2b ca		 sub	 ecx, edx
  000c9	99		 cdq
  000ca	33 c2		 xor	 eax, edx
  000cc	2b c2		 sub	 eax, edx
  000ce	3b c8		 cmp	 ecx, eax
  000d0	75 10		 jne	 SHORT $LN7@voice_lfo

; 1952 : 		voice[a0].lfo_s_ang *= -1;

  000d2	8b 04 b5 28 00
	00 00		 mov	 eax, DWORD PTR ?voice@@3PAUVOICE_EQU@@A[esi*4+40]
  000d9	f7 d8		 neg	 eax
  000db	89 04 b5 28 00
	00 00		 mov	 DWORD PTR ?voice@@3PAUVOICE_EQU@@A[esi*4+40], eax
$LN7@voice_lfo:

; 1953 : 	}
; 1954 : }

  000e2	5f		 pop	 edi
  000e3	5e		 pop	 esi
  000e4	5b		 pop	 ebx
  000e5	5d		 pop	 ebp
  000e6	c3		 ret	 0
?voice_lfo@@YAXH@Z ENDP					; voice_lfo
_TEXT	ENDS
; Function compile flags: /Ogtp
; File C:\Users\gg862\OneDrive\¹ÙÅÁ È­¸é\¸¾Äí¿Ï·á\Client Source Code1.31ÀÏº»\system\t_music.cpp
;	COMDAT ?play_start@@YAXXZ
_TEXT	SEGMENT
?play_start@@YAXXZ PROC					; play_start, COMDAT

; 1916 : {

  00000	56		 push	 esi

; 1917 : 	int d7;
; 1918 : 	for (d7 = 0; d7 < VOICE_MAX; d7++) {

  00001	be 00 00 00 00	 mov	 esi, OFFSET ?pDSData@@3PAPAUIDirectSoundBuffer@@A ; pDSData
$LL4@play_start:

; 1919 : 		pDSData[d7]->Stop();

  00006	8b 06		 mov	 eax, DWORD PTR [esi]
  00008	50		 push	 eax
  00009	8b 08		 mov	 ecx, DWORD PTR [eax]
  0000b	ff 51 48	 call	 DWORD PTR [ecx+72]

; 1920 : 		pDSData[d7]->SetCurrentPosition(0);

  0000e	8b 06		 mov	 eax, DWORD PTR [esi]
  00010	6a 00		 push	 0
  00012	50		 push	 eax
  00013	8b 08		 mov	 ecx, DWORD PTR [eax]
  00015	ff 51 34	 call	 DWORD PTR [ecx+52]
  00018	83 c6 04	 add	 esi, 4
  0001b	81 fe 00 01 00
	00		 cmp	 esi, OFFSET ?pDSData@@3PAPAUIDirectSoundBuffer@@A+256
  00021	7c e3		 jl	 SHORT $LL4@play_start

; 1921 : 	}
; 1922 : 	music_init();		//????????		

  00023	5e		 pop	 esi
  00024	e9 00 00 00 00	 jmp	 ?music_init@@YAXXZ	; music_init
?play_start@@YAXXZ ENDP					; play_start
_TEXT	ENDS
; Function compile flags: /Ogtp
; File C:\Users\gg862\OneDrive\¹ÙÅÁ È­¸é\¸¾Äí¿Ï·á\Client Source Code1.31ÀÏº»\system\t_music.cpp
;	COMDAT ?play_stop@@YAXXZ
_TEXT	SEGMENT
?play_stop@@YAXXZ PROC					; play_stop, COMDAT

; 1902 : {

  00000	56		 push	 esi

; 1903 : 	int d7;
; 1904 : 	for (d7 = 0; d7 < VOICE_MAX; d7++) {

  00001	be 00 00 00 00	 mov	 esi, OFFSET ?pDSData@@3PAPAUIDirectSoundBuffer@@A ; pDSData
$LL4@play_stop:

; 1905 : 		pDSData[d7]->Stop();

  00006	8b 06		 mov	 eax, DWORD PTR [esi]
  00008	50		 push	 eax
  00009	8b 08		 mov	 ecx, DWORD PTR [eax]
  0000b	ff 51 48	 call	 DWORD PTR [ecx+72]

; 1906 : 		pDSData[d7]->SetCurrentPosition(0);

  0000e	8b 06		 mov	 eax, DWORD PTR [esi]
  00010	6a 00		 push	 0
  00012	50		 push	 eax
  00013	8b 08		 mov	 ecx, DWORD PTR [eax]
  00015	ff 51 34	 call	 DWORD PTR [ecx+52]
  00018	83 c6 04	 add	 esi, 4
  0001b	81 fe 00 01 00
	00		 cmp	 esi, OFFSET ?pDSData@@3PAPAUIDirectSoundBuffer@@A+256
  00021	7c e3		 jl	 SHORT $LL4@play_stop

; 1907 : 		//		play_flg[ d7 ] = 0;
; 1908 : 	}
; 1909 : 	pause_flg = 1;

  00023	c7 05 00 00 00
	00 01 00 00 00	 mov	 DWORD PTR ?pause_flg@@3HA, 1
  0002d	5e		 pop	 esi

; 1910 : }

  0002e	c3		 ret	 0
?play_stop@@YAXXZ ENDP					; play_stop
_TEXT	ENDS
; Function compile flags: /Ogtp
; File C:\Users\gg862\OneDrive\¹ÙÅÁ È­¸é\¸¾Äí¿Ï·á\Client Source Code1.31ÀÏº»\system\t_music.cpp
;	COMDAT ?music_init@@YAXXZ
_TEXT	SEGMENT
_d6$3$ = -24						; size = 8
tv1444 = -16						; size = 8
tv1443 = -16						; size = 8
tv1442 = -16						; size = 8
_d6$2$ = -8						; size = 8
_d6$1$ = -8						; size = 8
?music_init@@YAXXZ PROC					; music_init, COMDAT

; 1825 : {

  00000	55		 push	 ebp
  00001	8b ec		 mov	 ebp, esp
  00003	83 ec 18	 sub	 esp, 24			; 00000018H

; 1826 : 	int d7, d5;
; 1827 : 	for (d7 = 0; d7 < VOICE_MAX; d7++) {

  00006	b8 04 00 00 00	 mov	 eax, OFFSET ?voice@@3PAUVOICE_EQU@@A+4
  0000b	0f 1f 44 00 00	 npad	 5
$LL4@music_init:

; 1828 : 		voice[d7].name = 0;

  00010	c7 40 fc 00 00
	00 00		 mov	 DWORD PTR [eax-4], 0

; 1829 : 		voice[d7].tone_no = -1;		//???????????îî±?

  00017	c7 00 ff ff ff
	ff		 mov	 DWORD PTR [eax], -1

; 1830 : 		voice[d7].loop_flg = 0;

  0001d	c7 40 2c 00 00
	00 00		 mov	 DWORD PTR [eax+44], 0
  00024	83 c0 3c	 add	 eax, 60			; 0000003cH
  00027	3d 04 0f 00 00	 cmp	 eax, OFFSET ?voice@@3PAUVOICE_EQU@@A+3844
  0002c	7c e2		 jl	 SHORT $LL4@music_init

; 1831 : 	}
; 1832 : 	for (d7 = 0; d7 < TRACK_MAX; d7++) {

  0002e	0f 57 c0	 xorps	 xmm0, xmm0
  00031	b9 00 01 00 00	 mov	 ecx, 256		; 00000100H
  00036	53		 push	 ebx
  00037	56		 push	 esi
  00038	57		 push	 edi
  00039	83 c8 ff	 or	 eax, -1
  0003c	bf 00 00 00 00	 mov	 edi, OFFSET ?play_use_task@@3PAY07HA
  00041	0f 11 05 00 00
	00 00		 movups	 XMMWORD PTR ?play_lfo_s@@3PAHA, xmm0
  00048	0f 11 05 10 00
	00 00		 movups	 XMMWORD PTR ?play_lfo_s@@3PAHA+16, xmm0
  0004f	0f 11 05 20 00
	00 00		 movups	 XMMWORD PTR ?play_lfo_s@@3PAHA+32, xmm0
  00056	0f 11 05 30 00
	00 00		 movups	 XMMWORD PTR ?play_lfo_s@@3PAHA+48, xmm0
  0005d	0f 11 05 40 00
	00 00		 movups	 XMMWORD PTR ?play_lfo_s@@3PAHA+64, xmm0
  00064	0f 11 05 50 00
	00 00		 movups	 XMMWORD PTR ?play_lfo_s@@3PAHA+80, xmm0
  0006b	0f 11 05 60 00
	00 00		 movups	 XMMWORD PTR ?play_lfo_s@@3PAHA+96, xmm0
  00072	0f 11 05 70 00
	00 00		 movups	 XMMWORD PTR ?play_lfo_s@@3PAHA+112, xmm0
  00079	0f 11 05 00 00
	00 00		 movups	 XMMWORD PTR ?play_lfo_m@@3PAHA, xmm0
  00080	0f 11 05 10 00
	00 00		 movups	 XMMWORD PTR ?play_lfo_m@@3PAHA+16, xmm0
  00087	0f 11 05 20 00
	00 00		 movups	 XMMWORD PTR ?play_lfo_m@@3PAHA+32, xmm0
  0008e	0f 11 05 30 00
	00 00		 movups	 XMMWORD PTR ?play_lfo_m@@3PAHA+48, xmm0
  00095	0f 11 05 40 00
	00 00		 movups	 XMMWORD PTR ?play_lfo_m@@3PAHA+64, xmm0
  0009c	0f 11 05 50 00
	00 00		 movups	 XMMWORD PTR ?play_lfo_m@@3PAHA+80, xmm0
  000a3	0f 11 05 60 00
	00 00		 movups	 XMMWORD PTR ?play_lfo_m@@3PAHA+96, xmm0
  000aa	0f 11 05 70 00
	00 00		 movups	 XMMWORD PTR ?play_lfo_m@@3PAHA+112, xmm0
  000b1	0f 11 05 00 00
	00 00		 movups	 XMMWORD PTR ?play_lfo_h@@3PAHA, xmm0
  000b8	0f 11 05 10 00
	00 00		 movups	 XMMWORD PTR ?play_lfo_h@@3PAHA+16, xmm0
  000bf	0f 11 05 20 00
	00 00		 movups	 XMMWORD PTR ?play_lfo_h@@3PAHA+32, xmm0
  000c6	0f 11 05 30 00
	00 00		 movups	 XMMWORD PTR ?play_lfo_h@@3PAHA+48, xmm0
  000cd	0f 11 05 40 00
	00 00		 movups	 XMMWORD PTR ?play_lfo_h@@3PAHA+64, xmm0
  000d4	0f 11 05 50 00
	00 00		 movups	 XMMWORD PTR ?play_lfo_h@@3PAHA+80, xmm0
  000db	0f 11 05 60 00
	00 00		 movups	 XMMWORD PTR ?play_lfo_h@@3PAHA+96, xmm0
  000e2	0f 11 05 70 00
	00 00		 movups	 XMMWORD PTR ?play_lfo_h@@3PAHA+112, xmm0
  000e9	0f 11 05 00 00
	00 00		 movups	 XMMWORD PTR ?play_detune@@3PAHA, xmm0
  000f0	0f 11 05 10 00
	00 00		 movups	 XMMWORD PTR ?play_detune@@3PAHA+16, xmm0
  000f7	0f 11 05 20 00
	00 00		 movups	 XMMWORD PTR ?play_detune@@3PAHA+32, xmm0
  000fe	0f 11 05 30 00
	00 00		 movups	 XMMWORD PTR ?play_detune@@3PAHA+48, xmm0
  00105	0f 11 05 40 00
	00 00		 movups	 XMMWORD PTR ?play_detune@@3PAHA+64, xmm0
  0010c	0f 11 05 50 00
	00 00		 movups	 XMMWORD PTR ?play_detune@@3PAHA+80, xmm0
  00113	0f 11 05 60 00
	00 00		 movups	 XMMWORD PTR ?play_detune@@3PAHA+96, xmm0
  0011a	0f 11 05 70 00
	00 00		 movups	 XMMWORD PTR ?play_detune@@3PAHA+112, xmm0
  00121	0f 11 05 00 00
	00 00		 movups	 XMMWORD PTR ?play_use_task_cnt@@3PAHA, xmm0
  00128	0f 11 05 10 00
	00 00		 movups	 XMMWORD PTR ?play_use_task_cnt@@3PAHA+16, xmm0
  0012f	0f 11 05 20 00
	00 00		 movups	 XMMWORD PTR ?play_use_task_cnt@@3PAHA+32, xmm0
  00136	0f 11 05 30 00
	00 00		 movups	 XMMWORD PTR ?play_use_task_cnt@@3PAHA+48, xmm0
  0013d	0f 11 05 40 00
	00 00		 movups	 XMMWORD PTR ?play_use_task_cnt@@3PAHA+64, xmm0
  00144	0f 11 05 50 00
	00 00		 movups	 XMMWORD PTR ?play_use_task_cnt@@3PAHA+80, xmm0
  0014b	0f 11 05 60 00
	00 00		 movups	 XMMWORD PTR ?play_use_task_cnt@@3PAHA+96, xmm0
  00152	0f 11 05 70 00
	00 00		 movups	 XMMWORD PTR ?play_use_task_cnt@@3PAHA+112, xmm0
  00159	f3 ab		 rep stosd
  0015b	0f 11 05 00 00
	00 00		 movups	 XMMWORD PTR ?tie_flg@@3PAHA, xmm0
  00162	0f 11 05 10 00
	00 00		 movups	 XMMWORD PTR ?tie_flg@@3PAHA+16, xmm0
  00169	0f 11 05 20 00
	00 00		 movups	 XMMWORD PTR ?tie_flg@@3PAHA+32, xmm0
  00170	0f 11 05 30 00
	00 00		 movups	 XMMWORD PTR ?tie_flg@@3PAHA+48, xmm0
  00177	0f 11 05 40 00
	00 00		 movups	 XMMWORD PTR ?tie_flg@@3PAHA+64, xmm0
  0017e	0f 11 05 50 00
	00 00		 movups	 XMMWORD PTR ?tie_flg@@3PAHA+80, xmm0
  00185	0f 11 05 60 00
	00 00		 movups	 XMMWORD PTR ?tie_flg@@3PAHA+96, xmm0
  0018c	0f 11 05 70 00
	00 00		 movups	 XMMWORD PTR ?tie_flg@@3PAHA+112, xmm0
  00193	0f 11 05 00 00
	00 00		 movups	 XMMWORD PTR ?dataFrequency@@3PAJA, xmm0
  0019a	0f 11 05 10 00
	00 00		 movups	 XMMWORD PTR ?dataFrequency@@3PAJA+16, xmm0
  001a1	0f 11 05 20 00
	00 00		 movups	 XMMWORD PTR ?dataFrequency@@3PAJA+32, xmm0
  001a8	0f 11 05 30 00
	00 00		 movups	 XMMWORD PTR ?dataFrequency@@3PAJA+48, xmm0
  001af	0f 11 05 40 00
	00 00		 movups	 XMMWORD PTR ?dataFrequency@@3PAJA+64, xmm0
  001b6	0f 11 05 50 00
	00 00		 movups	 XMMWORD PTR ?dataFrequency@@3PAJA+80, xmm0
  001bd	0f 11 05 60 00
	00 00		 movups	 XMMWORD PTR ?dataFrequency@@3PAJA+96, xmm0
  001c4	0f 11 05 70 00
	00 00		 movups	 XMMWORD PTR ?dataFrequency@@3PAJA+112, xmm0
  001cb	0f 11 05 00 00
	00 00		 movups	 XMMWORD PTR ?dataPan@@3PAHA, xmm0
  001d2	0f 11 05 10 00
	00 00		 movups	 XMMWORD PTR ?dataPan@@3PAHA+16, xmm0
  001d9	0f 11 05 20 00
	00 00		 movups	 XMMWORD PTR ?dataPan@@3PAHA+32, xmm0
  001e0	0f 11 05 30 00
	00 00		 movups	 XMMWORD PTR ?dataPan@@3PAHA+48, xmm0
  001e7	0f 11 05 40 00
	00 00		 movups	 XMMWORD PTR ?dataPan@@3PAHA+64, xmm0
  001ee	0f 11 05 50 00
	00 00		 movups	 XMMWORD PTR ?dataPan@@3PAHA+80, xmm0
  001f5	0f 11 05 60 00
	00 00		 movups	 XMMWORD PTR ?dataPan@@3PAHA+96, xmm0
  001fc	0f 11 05 70 00
	00 00		 movups	 XMMWORD PTR ?dataPan@@3PAHA+112, xmm0
  00203	0f 11 05 00 00
	00 00		 movups	 XMMWORD PTR ?dataVolume@@3PAHA, xmm0
  0020a	0f 11 05 10 00
	00 00		 movups	 XMMWORD PTR ?dataVolume@@3PAHA+16, xmm0
  00211	0f 11 05 20 00
	00 00		 movups	 XMMWORD PTR ?dataVolume@@3PAHA+32, xmm0
  00218	0f 11 05 30 00
	00 00		 movups	 XMMWORD PTR ?dataVolume@@3PAHA+48, xmm0
  0021f	0f 11 05 40 00
	00 00		 movups	 XMMWORD PTR ?dataVolume@@3PAHA+64, xmm0
  00226	0f 11 05 50 00
	00 00		 movups	 XMMWORD PTR ?dataVolume@@3PAHA+80, xmm0
  0022d	0f 11 05 60 00
	00 00		 movups	 XMMWORD PTR ?dataVolume@@3PAHA+96, xmm0
  00234	0f 11 05 70 00
	00 00		 movups	 XMMWORD PTR ?dataVolume@@3PAHA+112, xmm0
  0023b	0f 11 05 00 00
	00 00		 movups	 XMMWORD PTR ?dataToneNo@@3PAHA, xmm0
  00242	0f 11 05 10 00
	00 00		 movups	 XMMWORD PTR ?dataToneNo@@3PAHA+16, xmm0

; 1833 : 		step_time[d7] = 0;
; 1834 : 		gate_time[d7] = 0;
; 1835 : 		step_point[d7] = 0;
; 1836 : 		play_flg[d7] = 1;
; 1837 : 		play_kuri_lv[d7] = -1;
; 1838 : 		dataToneNo[d7] = 0;		//????????????îî±?
; 1839 : 		dataVolume[d7] = 0;
; 1840 : 		dataPan[d7] = 0;
; 1841 : 		dataFrequency[d7] = 0;
; 1842 : 		tie_flg[d7] = 0;
; 1843 : 		for (d5 = 0; d5 < 8; d5++)
; 1844 : 			play_use_task[d7][d5] = -1;		//î¸????î±????
; 1845 : 		play_use_task_cnt[d7] = 0;
; 1846 : 		play_detune[d7] = 0;
; 1847 : 		play_lfo_h[d7] = 0;
; 1848 : 		play_lfo_m[d7] = 0;
; 1849 : 		play_lfo_s[d7] = 0;
; 1850 : 	}
; 1851 : 	//??????
; 1852 : 	for (d7 = 0; d7 < MAX_ENV; d7++) {

  00249	b8 08 00 00 00	 mov	 eax, OFFSET ?env_tbl@@3PAUENVIRONMENT_EQU@@A+8
  0024e	0f 11 05 20 00
	00 00		 movups	 XMMWORD PTR ?dataToneNo@@3PAHA+32, xmm0
  00255	0f 11 05 30 00
	00 00		 movups	 XMMWORD PTR ?dataToneNo@@3PAHA+48, xmm0
  0025c	0f 11 05 40 00
	00 00		 movups	 XMMWORD PTR ?dataToneNo@@3PAHA+64, xmm0
  00263	0f 11 05 50 00
	00 00		 movups	 XMMWORD PTR ?dataToneNo@@3PAHA+80, xmm0
  0026a	0f 11 05 60 00
	00 00		 movups	 XMMWORD PTR ?dataToneNo@@3PAHA+96, xmm0
  00271	0f 11 05 70 00
	00 00		 movups	 XMMWORD PTR ?dataToneNo@@3PAHA+112, xmm0
  00278	0f 28 05 00 00
	00 00		 movaps	 xmm0, XMMWORD PTR __xmm@ffffffffffffffffffffffffffffffff
  0027f	0f 11 05 00 00
	00 00		 movups	 XMMWORD PTR ?play_kuri_lv@@3PAHA, xmm0
  00286	0f 11 05 10 00
	00 00		 movups	 XMMWORD PTR ?play_kuri_lv@@3PAHA+16, xmm0
  0028d	0f 11 05 20 00
	00 00		 movups	 XMMWORD PTR ?play_kuri_lv@@3PAHA+32, xmm0
  00294	0f 11 05 30 00
	00 00		 movups	 XMMWORD PTR ?play_kuri_lv@@3PAHA+48, xmm0
  0029b	0f 11 05 40 00
	00 00		 movups	 XMMWORD PTR ?play_kuri_lv@@3PAHA+64, xmm0
  002a2	0f 11 05 50 00
	00 00		 movups	 XMMWORD PTR ?play_kuri_lv@@3PAHA+80, xmm0
  002a9	0f 11 05 60 00
	00 00		 movups	 XMMWORD PTR ?play_kuri_lv@@3PAHA+96, xmm0
  002b0	0f 11 05 70 00
	00 00		 movups	 XMMWORD PTR ?play_kuri_lv@@3PAHA+112, xmm0
  002b7	0f 28 05 00 00
	00 00		 movaps	 xmm0, XMMWORD PTR __xmm@00000001000000010000000100000001
  002be	0f 11 05 00 00
	00 00		 movups	 XMMWORD PTR ?play_flg@@3PAHA, xmm0
  002c5	0f 11 05 10 00
	00 00		 movups	 XMMWORD PTR ?play_flg@@3PAHA+16, xmm0
  002cc	0f 11 05 20 00
	00 00		 movups	 XMMWORD PTR ?play_flg@@3PAHA+32, xmm0
  002d3	0f 11 05 30 00
	00 00		 movups	 XMMWORD PTR ?play_flg@@3PAHA+48, xmm0
  002da	0f 11 05 40 00
	00 00		 movups	 XMMWORD PTR ?play_flg@@3PAHA+64, xmm0
  002e1	0f 11 05 50 00
	00 00		 movups	 XMMWORD PTR ?play_flg@@3PAHA+80, xmm0
  002e8	0f 11 05 60 00
	00 00		 movups	 XMMWORD PTR ?play_flg@@3PAHA+96, xmm0
  002ef	0f 11 05 70 00
	00 00		 movups	 XMMWORD PTR ?play_flg@@3PAHA+112, xmm0
  002f6	0f 57 c0	 xorps	 xmm0, xmm0
  002f9	0f 11 05 00 00
	00 00		 movups	 XMMWORD PTR ?step_point@@3PAHA, xmm0
  00300	0f 11 05 10 00
	00 00		 movups	 XMMWORD PTR ?step_point@@3PAHA+16, xmm0
  00307	0f 11 05 20 00
	00 00		 movups	 XMMWORD PTR ?step_point@@3PAHA+32, xmm0
  0030e	0f 11 05 30 00
	00 00		 movups	 XMMWORD PTR ?step_point@@3PAHA+48, xmm0
  00315	0f 11 05 40 00
	00 00		 movups	 XMMWORD PTR ?step_point@@3PAHA+64, xmm0
  0031c	0f 11 05 50 00
	00 00		 movups	 XMMWORD PTR ?step_point@@3PAHA+80, xmm0
  00323	0f 11 05 60 00
	00 00		 movups	 XMMWORD PTR ?step_point@@3PAHA+96, xmm0
  0032a	0f 11 05 70 00
	00 00		 movups	 XMMWORD PTR ?step_point@@3PAHA+112, xmm0
  00331	0f 11 05 00 00
	00 00		 movups	 XMMWORD PTR ?gate_time@@3PAHA, xmm0
  00338	0f 11 05 10 00
	00 00		 movups	 XMMWORD PTR ?gate_time@@3PAHA+16, xmm0
  0033f	0f 11 05 20 00
	00 00		 movups	 XMMWORD PTR ?gate_time@@3PAHA+32, xmm0
  00346	0f 11 05 30 00
	00 00		 movups	 XMMWORD PTR ?gate_time@@3PAHA+48, xmm0
  0034d	0f 11 05 40 00
	00 00		 movups	 XMMWORD PTR ?gate_time@@3PAHA+64, xmm0
  00354	0f 11 05 50 00
	00 00		 movups	 XMMWORD PTR ?gate_time@@3PAHA+80, xmm0
  0035b	0f 11 05 60 00
	00 00		 movups	 XMMWORD PTR ?gate_time@@3PAHA+96, xmm0
  00362	0f 11 05 70 00
	00 00		 movups	 XMMWORD PTR ?gate_time@@3PAHA+112, xmm0
  00369	0f 11 05 00 00
	00 00		 movups	 XMMWORD PTR ?step_time@@3PAHA, xmm0
  00370	0f 11 05 10 00
	00 00		 movups	 XMMWORD PTR ?step_time@@3PAHA+16, xmm0
  00377	0f 11 05 20 00
	00 00		 movups	 XMMWORD PTR ?step_time@@3PAHA+32, xmm0
  0037e	0f 11 05 30 00
	00 00		 movups	 XMMWORD PTR ?step_time@@3PAHA+48, xmm0
  00385	0f 11 05 40 00
	00 00		 movups	 XMMWORD PTR ?step_time@@3PAHA+64, xmm0
  0038c	0f 11 05 50 00
	00 00		 movups	 XMMWORD PTR ?step_time@@3PAHA+80, xmm0
  00393	0f 11 05 60 00
	00 00		 movups	 XMMWORD PTR ?step_time@@3PAHA+96, xmm0
  0039a	0f 11 05 70 00
	00 00		 movups	 XMMWORD PTR ?step_time@@3PAHA+112, xmm0
  003a1	0f 1f 40 00 66
	66 66 0f 1f 84
	00 00 00 00 00	 npad	 15
$LL13@music_init:

; 1853 : 		env_tbl[d7].voice_address = -1;

  003b0	c7 40 f8 ff ff
	ff ff		 mov	 DWORD PTR [eax-8], -1

; 1854 : 		env_tbl[d7].count = 0;

  003b7	c7 00 00 00 00
	00		 mov	 DWORD PTR [eax], 0
  003bd	83 c0 24	 add	 eax, 36			; 00000024H
  003c0	3d d8 02 00 00	 cmp	 eax, OFFSET ?env_tbl@@3PAUENVIRONMENT_EQU@@A+728
  003c5	7c e9		 jl	 SHORT $LL13@music_init

; 1855 : 	}
; 1856 : #define PAN_POINT	5000
; 1857 : 	//???????î
; 1858 : 	int y;
; 1859 : 	double d6;		//?
; 1860 : 	for (d7 = 64, d6 = 127; d6 >= 0; d6--) {

  003c7	f2 0f 10 0d 00
	00 00 00	 movsd	 xmm1, QWORD PTR __real@405fc00000000000
  003cf	bf 00 01 00 00	 mov	 edi, OFFSET ?panpot_tbl@@3PAJA+256
  003d4	f2 0f 10 1d 00
	00 00 00	 movsd	 xmm3, QWORD PTR __real@4059000000000000
  003dc	0f 28 c1	 movaps	 xmm0, xmm1
  003df	f2 0f 11 4d e8	 movsd	 QWORD PTR _d6$3$[ebp], xmm1
  003e4	bb 10 27 00 00	 mov	 ebx, 10000		; 00002710H
  003e9	f2 0f 10 0d 00
	00 00 00	 movsd	 xmm1, QWORD PTR __real@3ff0000000000000
  003f1	0f 57 d2	 xorps	 xmm2, xmm2
  003f4	f2 0f 11 45 f8	 movsd	 QWORD PTR _d6$1$[ebp], xmm0
  003f9	0f 1f 80 00 00
	00 00		 npad	 7
$LL16@music_init:

; 1861 : 		if (!((int)d6 & 1))

  00400	f2 0f 2c c0	 cvttsd2si eax, xmm0
  00404	a8 01		 test	 al, 1
  00406	74 74		 je	 SHORT $LN14@music_init

; 1862 : 			continue;
; 1863 : 		y = (int)(LOG(100, 127) * PAN_POINT) - (int)(LOG(100, d6) * PAN_POINT);

  00408	0f 28 c3	 movaps	 xmm0, xmm3
  0040b	e8 00 00 00 00	 call	 __libm_sse2_log_precise
  00410	f2 0f 11 45 f0	 movsd	 QWORD PTR tv1444[ebp], xmm0
  00415	f2 0f 10 45 f8	 movsd	 xmm0, QWORD PTR _d6$1$[ebp]
  0041a	66 0f 5a c0	 cvtpd2ps xmm0, xmm0
  0041e	0f 5a c0	 cvtps2pd xmm0, xmm0
  00421	e8 00 00 00 00	 call	 __libm_sse2_log_precise
  00426	f2 0f 5e 45 f0	 divsd	 xmm0, QWORD PTR tv1444[ebp]
  0042b	f2 0f 59 05 00
	00 00 00	 mulsd	 xmm0, QWORD PTR __real@40b3880000000000
  00433	f2 0f 2c f0	 cvttsd2si esi, xmm0
  00437	f2 0f 10 05 00
	00 00 00	 movsd	 xmm0, QWORD PTR __real@405fc00000000000
  0043f	e8 00 00 00 00	 call	 __libm_sse2_log_precise
  00444	f2 0f 5e 45 f0	 divsd	 xmm0, QWORD PTR tv1444[ebp]

; 1864 : 		if (y > PAN_POINT)
; 1865 : 			y = 10000;
; 1866 : 		panpot_tbl[d7++] = y;

  00449	f2 0f 10 0d 00
	00 00 00	 movsd	 xmm1, QWORD PTR __real@3ff0000000000000
  00451	0f 57 d2	 xorps	 xmm2, xmm2
  00454	f2 0f 59 05 00
	00 00 00	 mulsd	 xmm0, QWORD PTR __real@40b3880000000000
  0045c	f2 0f 10 1d 00
	00 00 00	 movsd	 xmm3, QWORD PTR __real@4059000000000000
  00464	f2 0f 2c c0	 cvttsd2si eax, xmm0
  00468	f2 0f 10 45 f8	 movsd	 xmm0, QWORD PTR _d6$1$[ebp]
  0046d	2b c6		 sub	 eax, esi
  0046f	3d 88 13 00 00	 cmp	 eax, 5000		; 00001388H
  00474	0f 4f c3	 cmovg	 eax, ebx
  00477	89 07		 mov	 DWORD PTR [edi], eax
  00479	83 c7 04	 add	 edi, 4
$LN14@music_init:

; 1855 : 	}
; 1856 : #define PAN_POINT	5000
; 1857 : 	//???????î
; 1858 : 	int y;
; 1859 : 	double d6;		//?
; 1860 : 	for (d7 = 64, d6 = 127; d6 >= 0; d6--) {

  0047c	f2 0f 5c c1	 subsd	 xmm0, xmm1
  00480	66 0f 2f c2	 comisd	 xmm0, xmm2
  00484	f2 0f 11 45 f8	 movsd	 QWORD PTR _d6$1$[ebp], xmm0
  00489	0f 83 71 ff ff
	ff		 jae	 $LL16@music_init

; 1867 : 	}
; 1868 : 	for (d7 = 64, d6 = 127; d6 >= 0; d6--) {

  0048f	f2 0f 10 05 00
	00 00 00	 movsd	 xmm0, QWORD PTR __real@405fc00000000000
  00497	bf 00 01 00 00	 mov	 edi, OFFSET ?panpot_tbl@@3PAJA+256
  0049c	f2 0f 11 45 f8	 movsd	 QWORD PTR _d6$2$[ebp], xmm0
$LL19@music_init:

; 1869 : 		if (!((int)d6 & 1))

  004a1	f2 0f 2c c0	 cvttsd2si eax, xmm0
  004a5	a8 01		 test	 al, 1
  004a7	74 6e		 je	 SHORT $LN17@music_init

; 1870 : 			continue;
; 1871 : 		y = (int)(LOG(100, 127) * PAN_POINT) - (int)(LOG(100, d6) * PAN_POINT);

  004a9	0f 28 c3	 movaps	 xmm0, xmm3
  004ac	e8 00 00 00 00	 call	 __libm_sse2_log_precise
  004b1	f2 0f 11 45 f0	 movsd	 QWORD PTR tv1443[ebp], xmm0
  004b6	f2 0f 10 45 f8	 movsd	 xmm0, QWORD PTR _d6$2$[ebp]
  004bb	66 0f 5a c0	 cvtpd2ps xmm0, xmm0
  004bf	0f 5a c0	 cvtps2pd xmm0, xmm0
  004c2	e8 00 00 00 00	 call	 __libm_sse2_log_precise
  004c7	f2 0f 5e 45 f0	 divsd	 xmm0, QWORD PTR tv1443[ebp]
  004cc	f2 0f 59 05 00
	00 00 00	 mulsd	 xmm0, QWORD PTR __real@40b3880000000000
  004d4	f2 0f 2c f0	 cvttsd2si esi, xmm0
  004d8	f2 0f 10 05 00
	00 00 00	 movsd	 xmm0, QWORD PTR __real@405fc00000000000
  004e0	e8 00 00 00 00	 call	 __libm_sse2_log_precise
  004e5	f2 0f 5e 45 f0	 divsd	 xmm0, QWORD PTR tv1443[ebp]

; 1872 : 		if (y > PAN_POINT)
; 1873 : 			y = 10000;
; 1874 : 		panpot_tbl[d7--] = -y;

  004ea	f2 0f 10 0d 00
	00 00 00	 movsd	 xmm1, QWORD PTR __real@3ff0000000000000
  004f2	0f 57 d2	 xorps	 xmm2, xmm2
  004f5	f2 0f 59 05 00
	00 00 00	 mulsd	 xmm0, QWORD PTR __real@40b3880000000000
  004fd	f2 0f 2c c0	 cvttsd2si eax, xmm0
  00501	f2 0f 10 45 f8	 movsd	 xmm0, QWORD PTR _d6$2$[ebp]
  00506	2b c6		 sub	 eax, esi
  00508	3d 88 13 00 00	 cmp	 eax, 5000		; 00001388H
  0050d	0f 4f c3	 cmovg	 eax, ebx
  00510	f7 d8		 neg	 eax
  00512	89 07		 mov	 DWORD PTR [edi], eax
  00514	83 ef 04	 sub	 edi, 4
$LN17@music_init:

; 1867 : 	}
; 1868 : 	for (d7 = 64, d6 = 127; d6 >= 0; d6--) {

  00517	f2 0f 10 1d 00
	00 00 00	 movsd	 xmm3, QWORD PTR __real@4059000000000000
  0051f	f2 0f 5c c1	 subsd	 xmm0, xmm1
  00523	66 0f 2f c2	 comisd	 xmm0, xmm2
  00527	f2 0f 11 45 f8	 movsd	 QWORD PTR _d6$2$[ebp], xmm0
  0052c	0f 83 6f ff ff
	ff		 jae	 $LL19@music_init

; 1875 : 	}
; 1876 : 	d6 = panpot_tbl[0] = -10000;
; 1877 : 	d6 = panpot_tbl[127] = 10000;
; 1878 : 	//??????????î
; 1879 : 	for (d6 = 127; d6 >= 0; d6--) {
; 1880 : 		y = (int)(LOG(100, 127) * 10000) - (int)(LOG(100, d6) * 10000);

  00532	0f 28 c3	 movaps	 xmm0, xmm3
  00535	c7 05 00 00 00
	00 f0 d8 ff ff	 mov	 DWORD PTR ?panpot_tbl@@3PAJA, -10000 ; ffffd8f0H
  0053f	89 1d fc 01 00
	00		 mov	 DWORD PTR ?panpot_tbl@@3PAJA+508, ebx
  00545	e8 00 00 00 00	 call	 __libm_sse2_log_precise
  0054a	f2 0f 11 45 f0	 movsd	 QWORD PTR tv1442[ebp], xmm0
  0054f	f2 0f 10 05 00
	00 00 00	 movsd	 xmm0, QWORD PTR __real@405fc00000000000
  00557	e8 00 00 00 00	 call	 __libm_sse2_log_precise
  0055c	f2 0f 5e 45 f0	 divsd	 xmm0, QWORD PTR tv1442[ebp]
  00561	f2 0f 59 05 00
	00 00 00	 mulsd	 xmm0, QWORD PTR __real@40c3880000000000
  00569	f2 0f 2c f0	 cvttsd2si esi, xmm0
  0056d	f2 0f 10 05 00
	00 00 00	 movsd	 xmm0, QWORD PTR __real@405fc00000000000
  00575	66 66 66 0f 1f
	84 00 00 00 00
	00		 npad	 11
$LL22@music_init:
  00580	66 0f 5a c0	 cvtpd2ps xmm0, xmm0
  00584	0f 5a c0	 cvtps2pd xmm0, xmm0
  00587	e8 00 00 00 00	 call	 __libm_sse2_log_precise
  0058c	f2 0f 5e 45 f0	 divsd	 xmm0, QWORD PTR tv1442[ebp]
  00591	8b ce		 mov	 ecx, esi
  00593	0f 57 c9	 xorps	 xmm1, xmm1
  00596	f2 0f 59 05 00
	00 00 00	 mulsd	 xmm0, QWORD PTR __real@40c3880000000000
  0059e	f2 0f 2c c0	 cvttsd2si eax, xmm0

; 1881 : 		if (y > 10000)
; 1882 : 			y = 10000;
; 1883 : 		volume_tbl[(int)d6] = -y;

  005a2	f2 0f 10 45 e8	 movsd	 xmm0, QWORD PTR _d6$3$[ebp]
  005a7	2b c8		 sub	 ecx, eax
  005a9	f2 0f 2c c0	 cvttsd2si eax, xmm0
  005ad	3b cb		 cmp	 ecx, ebx
  005af	0f 4f cb	 cmovg	 ecx, ebx
  005b2	f7 d9		 neg	 ecx
  005b4	f2 0f 5c 05 00
	00 00 00	 subsd	 xmm0, QWORD PTR __real@3ff0000000000000
  005bc	89 0c 85 00 00
	00 00		 mov	 DWORD PTR ?volume_tbl@@3PAJA[eax*4], ecx
  005c3	66 0f 2f c1	 comisd	 xmm0, xmm1
  005c7	f2 0f 11 45 e8	 movsd	 QWORD PTR _d6$3$[ebp], xmm0
  005cc	73 b2		 jae	 SHORT $LL22@music_init

; 1884 : 	}
; 1885 : 	//CCFIX
; 1886 : 	//volume_tbl[0]çå¼æé®é¢
; 1887 : 	//æå·¥ä¿®å°-10000
; 1888 : 	volume_tbl[0] = -10000;

  005ce	5f		 pop	 edi
  005cf	5e		 pop	 esi
  005d0	c7 05 00 00 00
	00 f0 d8 ff ff	 mov	 DWORD PTR ?volume_tbl@@3PAJA, -10000 ; ffffd8f0H
  005da	33 c0		 xor	 eax, eax
  005dc	5b		 pop	 ebx
  005dd	0f 1f 00	 npad	 3
$LL25@music_init:

; 1892 : 		detune_tbl[d7] = freq_tbl[d7 + 1] - freq_tbl[d7];

  005e0	0f 10 04 85 00
	00 00 00	 movups	 xmm0, XMMWORD PTR ?freq_tbl@@3PAHA[eax*4]
  005e8	0f 10 0c 85 04
	00 00 00	 movups	 xmm1, XMMWORD PTR ?freq_tbl@@3PAHA[eax*4+4]
  005f0	66 0f fa c8	 psubd	 xmm1, xmm0
  005f4	0f 10 04 85 10
	00 00 00	 movups	 xmm0, XMMWORD PTR ?freq_tbl@@3PAHA[eax*4+16]
  005fc	0f 11 0c 85 00
	00 00 00	 movups	 XMMWORD PTR ?detune_tbl@@3PAHA[eax*4], xmm1
  00604	0f 10 0c 85 14
	00 00 00	 movups	 xmm1, XMMWORD PTR ?freq_tbl@@3PAHA[eax*4+20]
  0060c	66 0f fa c8	 psubd	 xmm1, xmm0
  00610	0f 10 04 85 20
	00 00 00	 movups	 xmm0, XMMWORD PTR ?freq_tbl@@3PAHA[eax*4+32]
  00618	0f 11 0c 85 10
	00 00 00	 movups	 XMMWORD PTR ?detune_tbl@@3PAHA[eax*4+16], xmm1
  00620	0f 10 0c 85 24
	00 00 00	 movups	 xmm1, XMMWORD PTR ?freq_tbl@@3PAHA[eax*4+36]
  00628	66 0f fa c8	 psubd	 xmm1, xmm0
  0062c	0f 10 04 85 30
	00 00 00	 movups	 xmm0, XMMWORD PTR ?freq_tbl@@3PAHA[eax*4+48]
  00634	0f 11 0c 85 20
	00 00 00	 movups	 XMMWORD PTR ?detune_tbl@@3PAHA[eax*4+32], xmm1
  0063c	0f 10 0c 85 34
	00 00 00	 movups	 xmm1, XMMWORD PTR ?freq_tbl@@3PAHA[eax*4+52]
  00644	66 0f fa c8	 psubd	 xmm1, xmm0
  00648	0f 11 0c 85 30
	00 00 00	 movups	 XMMWORD PTR ?detune_tbl@@3PAHA[eax*4+48], xmm1
  00650	83 c0 10	 add	 eax, 16			; 00000010H
  00653	83 f8 40	 cmp	 eax, 64			; 00000040H
  00656	7c 88		 jl	 SHORT $LL25@music_init

; 1889 : 
; 1890 : 	//??????????î
; 1891 : 	for (d7 = 0; d7 < 12 * 5 + 5; d7++)

  00658	83 f8 41	 cmp	 eax, 65			; 00000041H
  0065b	7d 24		 jge	 SHORT $LN24@music_init
  0065d	8d 0c 85 00 00
	00 00		 lea	 ecx, DWORD PTR [eax*4]
$LL50@music_init:

; 1892 : 		detune_tbl[d7] = freq_tbl[d7 + 1] - freq_tbl[d7];

  00664	8b 81 04 00 00
	00		 mov	 eax, DWORD PTR ?freq_tbl@@3PAHA[ecx+4]
  0066a	2b 81 00 00 00
	00		 sub	 eax, DWORD PTR ?freq_tbl@@3PAHA[ecx]
  00670	89 81 00 00 00
	00		 mov	 DWORD PTR ?detune_tbl@@3PAHA[ecx], eax
  00676	83 c1 04	 add	 ecx, 4
  00679	81 f9 04 01 00
	00		 cmp	 ecx, 260		; 00000104H
  0067f	7c e3		 jl	 SHORT $LL50@music_init
$LN24@music_init:

; 1893 : 
; 1894 : 	//	play_bgm( 2);
; 1895 : 
; 1896 : }

  00681	8b e5		 mov	 esp, ebp
  00683	5d		 pop	 ebp
  00684	c3		 ret	 0
?music_init@@YAXXZ ENDP					; music_init
_TEXT	ENDS
; Function compile flags: /Ogtp
; File C:\Users\gg862\OneDrive\¹ÙÅÁ È­¸é\¸¾Äí¿Ï·á\Client Source Code1.31ÀÏº»\system\t_music.cpp
;	COMDAT ?music_read@@YAHXZ
_TEXT	SEGMENT
__real@c003880000000000$1$ = -3176			; size = 8
_o_tempo$1$ = -3164					; size = 4
_err_line$1$ = -3160					; size = 4
_ch$1$ = -3156						; size = 4
tv2929 = -3152						; size = 4
tv2866 = -3152						; size = 4
$T1 = -3148						; size = 4
_d0$15$ = -3148						; size = 4
tv2835 = -3148						; size = 4
$T2 = -3144						; size = 4
_octave$1$ = -3144					; size = 4
_d0$23$ = -3144						; size = 4
tv2988 = -3144						; size = 4
tv2986 = -3144						; size = 4
$T3 = -3140						; size = 4
_d0$37$ = -3136						; size = 4
_d0$35$ = -3136						; size = 4
_d0$32$ = -3136						; size = 4
_d0$30$ = -3136						; size = 4
_d0$19$ = -3136						; size = 4
tv2994 = -3136						; size = 4
tv2980 = -3136						; size = 4
tv2976 = -3136						; size = 4
tv2879 = -3136						; size = 4
tv2757 = -3136						; size = 4
tv1343 = -3136						; size = 4
_d1$2$ = -3132						; size = 4
_waon_cnt$1$ = -3132					; size = 4
tv2993 = -3132						; size = 4
tv2983 = -3132						; size = 4
tv2973 = -3132						; size = 4
tv2972 = -3132						; size = 4
tv2971 = -3132						; size = 4
tv2892 = -3132						; size = 4
tv2736 = -3132						; size = 4
_ch_ret$ = -3128					; size = 1024
_ch_skip$ = -2104					; size = 1024
_waon_note$4 = -1076					; size = 36
_do_p$ = -1040						; size = 128
_waon_delay$ = -912					; size = 128
_q_com$ = -784						; size = 128
_ch_kuri_lv$ = -656					; size = 128
_ch_oct$ = -528						; size = 128
_ch_p$ = -400						; size = 128
_moji$ = -264						; size = 256
__$ArrayPad$ = -4					; size = 4
?music_read@@YAHXZ PROC					; music_read, COMDAT

; 1091 : {

  00000	53		 push	 ebx
  00001	8b dc		 mov	 ebx, esp
  00003	83 ec 08	 sub	 esp, 8
  00006	83 e4 f0	 and	 esp, -16		; fffffff0H
  00009	83 c4 04	 add	 esp, 4
  0000c	55		 push	 ebp
  0000d	8b 6b 04	 mov	 ebp, DWORD PTR [ebx+4]
  00010	89 6c 24 04	 mov	 DWORD PTR [esp+4], ebp
  00014	8b ec		 mov	 ebp, esp
  00016	81 ec 68 0c 00
	00		 sub	 esp, 3176		; 00000c68H
  0001c	a1 00 00 00 00	 mov	 eax, DWORD PTR ___security_cookie
  00021	33 c5		 xor	 eax, ebp
  00023	89 45 fc	 mov	 DWORD PTR __$ArrayPad$[ebp], eax
  00026	56		 push	 esi
  00027	57		 push	 edi

; 1092 : 	int d0, d1, d7, ch, ch_p[TRACK_MAX], do_p[TRACK_MAX], ch_oct[TRACK_MAX], err_flg = -1, err_line = 0;
; 1093 : 	int ch_ret[8][TRACK_MAX], ch_skip[8][TRACK_MAX], ch_kuri_lv[TRACK_MAX], waon_delay[TRACK_MAX];
; 1094 : 	int o_tempo, q_com[TRACK_MAX];
; 1095 : 	long d6;
; 1096 : 	char moji[256];
; 1097 : 	FILE* fp;
; 1098 : 	fp = fopen("oft.mml", "r");

  00028	68 00 00 00 00	 push	 OFFSET ??_C@_01KDCPPGHE@r@
  0002d	68 00 00 00 00	 push	 OFFSET ??_C@_07NFDJGGOK@oft?4mml@
  00032	e8 00 00 00 00	 call	 _fopen
  00037	8b f0		 mov	 esi, eax
  00039	83 c4 08	 add	 esp, 8
  0003c	89 b5 bc f3 ff
	ff		 mov	 DWORD PTR $T3[ebp], esi

; 1099 : 	if (fp == NULL) {

  00042	85 f6		 test	 esi, esi
  00044	75 30		 jne	 SHORT $LN40@music_read

; 1100 : 		sprintf(moji, "%s", err_msg[0]);

  00046	ff 35 00 00 00
	00		 push	 DWORD PTR ?err_msg@@3PAPADA
  0004c	8d 85 f8 fe ff
	ff		 lea	 eax, DWORD PTR _moji$[ebp]
  00052	68 00 00 00 00	 push	 OFFSET ??_C@_02DKCKIIND@?$CFs@
  00057	50		 push	 eax
  00058	e8 00 00 00 00	 call	 _sprintf
  0005d	83 c4 0c	 add	 esp, 12			; 0000000cH

; 1101 : #ifdef  _STONDEBUG_
; 1102 : 		MessageBox(hWnd, moji, "Error", MB_OK);
; 1103 : #endif
; 1104 : 		return err_flg;

  00060	83 c8 ff	 or	 eax, -1

; 1812 : #ifdef  _STONDEBUG_
; 1813 : 				MessageBox(hWnd, moji, "Error", MB_OK);
; 1814 : #endif
; 1815 : 				break;
; 1816 : 			}
; 1817 : 		}
; 1818 : 	}
; 1819 : 	return err_flg;
; 1820 : }

  00063	5f		 pop	 edi
  00064	5e		 pop	 esi
  00065	8b 4d fc	 mov	 ecx, DWORD PTR __$ArrayPad$[ebp]
  00068	33 cd		 xor	 ecx, ebp
  0006a	e8 00 00 00 00	 call	 @__security_check_cookie@4
  0006f	8b e5		 mov	 esp, ebp
  00071	5d		 pop	 ebp
  00072	8b e3		 mov	 esp, ebx
  00074	5b		 pop	 ebx
  00075	c3		 ret	 0
$LN40@music_read:
  00076	0f 57 c0	 xorps	 xmm0, xmm0

; 1105 : 	}
; 1106 : 
; 1107 : 	for (d7 = 0; d7 < TRACK_MAX; d7++) {

  00079	33 c0		 xor	 eax, eax
  0007b	0f 29 85 70 fc
	ff ff		 movaps	 XMMWORD PTR _waon_delay$[ebp], xmm0
  00082	0f 29 85 80 fc
	ff ff		 movaps	 XMMWORD PTR _waon_delay$[ebp+16], xmm0
  00089	0f 29 85 90 fc
	ff ff		 movaps	 XMMWORD PTR _waon_delay$[ebp+32], xmm0
  00090	0f 29 85 a0 fc
	ff ff		 movaps	 XMMWORD PTR _waon_delay$[ebp+48], xmm0
  00097	0f 29 85 b0 fc
	ff ff		 movaps	 XMMWORD PTR _waon_delay$[ebp+64], xmm0
  0009e	0f 29 85 c0 fc
	ff ff		 movaps	 XMMWORD PTR _waon_delay$[ebp+80], xmm0
  000a5	0f 29 85 d0 fc
	ff ff		 movaps	 XMMWORD PTR _waon_delay$[ebp+96], xmm0
  000ac	0f 29 85 e0 fc
	ff ff		 movaps	 XMMWORD PTR _waon_delay$[ebp+112], xmm0
  000b3	0f 28 05 00 00
	00 00		 movaps	 xmm0, XMMWORD PTR __xmm@00000008000000080000000800000008
  000ba	0f 29 85 f0 fc
	ff ff		 movaps	 XMMWORD PTR _q_com$[ebp], xmm0
  000c1	0f 29 85 00 fd
	ff ff		 movaps	 XMMWORD PTR _q_com$[ebp+16], xmm0
  000c8	0f 29 85 10 fd
	ff ff		 movaps	 XMMWORD PTR _q_com$[ebp+32], xmm0
  000cf	0f 29 85 20 fd
	ff ff		 movaps	 XMMWORD PTR _q_com$[ebp+48], xmm0
  000d6	0f 29 85 30 fd
	ff ff		 movaps	 XMMWORD PTR _q_com$[ebp+64], xmm0
  000dd	0f 29 85 40 fd
	ff ff		 movaps	 XMMWORD PTR _q_com$[ebp+80], xmm0
  000e4	0f 29 85 50 fd
	ff ff		 movaps	 XMMWORD PTR _q_com$[ebp+96], xmm0
  000eb	0f 29 85 60 fd
	ff ff		 movaps	 XMMWORD PTR _q_com$[ebp+112], xmm0
  000f2	0f 28 05 00 00
	00 00		 movaps	 xmm0, XMMWORD PTR __xmm@ffffffffffffffffffffffffffffffff
  000f9	0f 29 85 70 fd
	ff ff		 movaps	 XMMWORD PTR _ch_kuri_lv$[ebp], xmm0
  00100	0f 29 85 80 fd
	ff ff		 movaps	 XMMWORD PTR _ch_kuri_lv$[ebp+16], xmm0
  00107	0f 29 85 90 fd
	ff ff		 movaps	 XMMWORD PTR _ch_kuri_lv$[ebp+32], xmm0
  0010e	0f 29 85 a0 fd
	ff ff		 movaps	 XMMWORD PTR _ch_kuri_lv$[ebp+48], xmm0
  00115	0f 29 85 b0 fd
	ff ff		 movaps	 XMMWORD PTR _ch_kuri_lv$[ebp+64], xmm0
  0011c	0f 29 85 c0 fd
	ff ff		 movaps	 XMMWORD PTR _ch_kuri_lv$[ebp+80], xmm0
  00123	0f 29 85 d0 fd
	ff ff		 movaps	 XMMWORD PTR _ch_kuri_lv$[ebp+96], xmm0
  0012a	0f 29 85 e0 fd
	ff ff		 movaps	 XMMWORD PTR _ch_kuri_lv$[ebp+112], xmm0
  00131	0f 57 c0	 xorps	 xmm0, xmm0
  00134	0f 11 05 00 00
	00 00		 movups	 XMMWORD PTR ?play_track_flg@@3PAHA, xmm0
  0013b	0f 11 05 10 00
	00 00		 movups	 XMMWORD PTR ?play_track_flg@@3PAHA+16, xmm0
  00142	0f 11 05 20 00
	00 00		 movups	 XMMWORD PTR ?play_track_flg@@3PAHA+32, xmm0
  00149	0f 11 05 30 00
	00 00		 movups	 XMMWORD PTR ?play_track_flg@@3PAHA+48, xmm0
  00150	0f 11 05 40 00
	00 00		 movups	 XMMWORD PTR ?play_track_flg@@3PAHA+64, xmm0
  00157	0f 11 05 50 00
	00 00		 movups	 XMMWORD PTR ?play_track_flg@@3PAHA+80, xmm0
  0015e	0f 11 05 60 00
	00 00		 movups	 XMMWORD PTR ?play_track_flg@@3PAHA+96, xmm0
  00165	0f 11 05 70 00
	00 00		 movups	 XMMWORD PTR ?play_track_flg@@3PAHA+112, xmm0
  0016c	0f 28 05 00 00
	00 00		 movaps	 xmm0, XMMWORD PTR __xmm@00000030000000300000003000000030
  00173	0f 11 05 00 00
	00 00		 movups	 XMMWORD PTR ?step_def@@3PAHA, xmm0
  0017a	0f 11 05 10 00
	00 00		 movups	 XMMWORD PTR ?step_def@@3PAHA+16, xmm0
  00181	0f 11 05 20 00
	00 00		 movups	 XMMWORD PTR ?step_def@@3PAHA+32, xmm0
  00188	0f 11 05 30 00
	00 00		 movups	 XMMWORD PTR ?step_def@@3PAHA+48, xmm0
  0018f	0f 11 05 40 00
	00 00		 movups	 XMMWORD PTR ?step_def@@3PAHA+64, xmm0
  00196	0f 11 05 50 00
	00 00		 movups	 XMMWORD PTR ?step_def@@3PAHA+80, xmm0
  0019d	0f 11 05 60 00
	00 00		 movups	 XMMWORD PTR ?step_def@@3PAHA+96, xmm0
  001a4	0f 11 05 70 00
	00 00		 movups	 XMMWORD PTR ?step_def@@3PAHA+112, xmm0
  001ab	0f 28 05 00 00
	00 00		 movaps	 xmm0, XMMWORD PTR __xmm@00000004000000040000000400000004
  001b2	0f 29 85 f0 fd
	ff ff		 movaps	 XMMWORD PTR _ch_oct$[ebp], xmm0
  001b9	0f 29 85 00 fe
	ff ff		 movaps	 XMMWORD PTR _ch_oct$[ebp+16], xmm0
  001c0	0f 29 85 10 fe
	ff ff		 movaps	 XMMWORD PTR _ch_oct$[ebp+32], xmm0
  001c7	0f 29 85 20 fe
	ff ff		 movaps	 XMMWORD PTR _ch_oct$[ebp+48], xmm0
  001ce	0f 29 85 30 fe
	ff ff		 movaps	 XMMWORD PTR _ch_oct$[ebp+64], xmm0
  001d5	0f 29 85 40 fe
	ff ff		 movaps	 XMMWORD PTR _ch_oct$[ebp+80], xmm0
  001dc	0f 29 85 50 fe
	ff ff		 movaps	 XMMWORD PTR _ch_oct$[ebp+96], xmm0
  001e3	0f 29 85 60 fe
	ff ff		 movaps	 XMMWORD PTR _ch_oct$[ebp+112], xmm0
  001ea	0f 57 c0	 xorps	 xmm0, xmm0
  001ed	0f 29 85 f0 fb
	ff ff		 movaps	 XMMWORD PTR _do_p$[ebp], xmm0
  001f4	0f 29 85 00 fc
	ff ff		 movaps	 XMMWORD PTR _do_p$[ebp+16], xmm0
  001fb	0f 29 85 10 fc
	ff ff		 movaps	 XMMWORD PTR _do_p$[ebp+32], xmm0
  00202	0f 29 85 20 fc
	ff ff		 movaps	 XMMWORD PTR _do_p$[ebp+48], xmm0
  00209	0f 29 85 30 fc
	ff ff		 movaps	 XMMWORD PTR _do_p$[ebp+64], xmm0
  00210	0f 29 85 40 fc
	ff ff		 movaps	 XMMWORD PTR _do_p$[ebp+80], xmm0
  00217	0f 29 85 50 fc
	ff ff		 movaps	 XMMWORD PTR _do_p$[ebp+96], xmm0
  0021e	0f 29 85 60 fc
	ff ff		 movaps	 XMMWORD PTR _do_p$[ebp+112], xmm0
  00225	0f 29 85 70 fe
	ff ff		 movaps	 XMMWORD PTR _ch_p$[ebp], xmm0
  0022c	0f 29 85 80 fe
	ff ff		 movaps	 XMMWORD PTR _ch_p$[ebp+16], xmm0
  00233	0f 29 85 90 fe
	ff ff		 movaps	 XMMWORD PTR _ch_p$[ebp+32], xmm0
  0023a	0f 29 85 a0 fe
	ff ff		 movaps	 XMMWORD PTR _ch_p$[ebp+48], xmm0
  00241	0f 29 85 b0 fe
	ff ff		 movaps	 XMMWORD PTR _ch_p$[ebp+64], xmm0
  00248	0f 29 85 c0 fe
	ff ff		 movaps	 XMMWORD PTR _ch_p$[ebp+80], xmm0
  0024f	0f 29 85 d0 fe
	ff ff		 movaps	 XMMWORD PTR _ch_p$[ebp+96], xmm0
  00256	0f 29 85 e0 fe
	ff ff		 movaps	 XMMWORD PTR _ch_p$[ebp+112], xmm0
  0025d	0f 1f 00	 npad	 3
$LL4@music_read:

; 1108 : 		ch_p[d7] = 0;
; 1109 : 		do_p[d7] = 0;
; 1110 : 		ch_oct[d7] = 4;
; 1111 : 		step_def[d7] = 48;
; 1112 : 		play_track_flg[d7] = 0;
; 1113 : 		ch_kuri_lv[d7] = -1;
; 1114 : 		for (d6 = 0; d6 < 8; d6++)
; 1115 : 			ch_skip[d6][d7] = -1;

  00260	c7 84 05 c8 f7
	ff ff ff ff ff
	ff		 mov	 DWORD PTR _ch_skip$[ebp+eax], -1
  0026b	c7 84 05 48 f8
	ff ff ff ff ff
	ff		 mov	 DWORD PTR _ch_skip$[ebp+eax+128], -1
  00276	c7 84 05 c8 f8
	ff ff ff ff ff
	ff		 mov	 DWORD PTR _ch_skip$[ebp+eax+256], -1
  00281	c7 84 05 48 f9
	ff ff ff ff ff
	ff		 mov	 DWORD PTR _ch_skip$[ebp+eax+384], -1
  0028c	c7 84 05 c8 f9
	ff ff ff ff ff
	ff		 mov	 DWORD PTR _ch_skip$[ebp+eax+512], -1
  00297	c7 84 05 48 fa
	ff ff ff ff ff
	ff		 mov	 DWORD PTR _ch_skip$[ebp+eax+640], -1
  002a2	c7 84 05 c8 fa
	ff ff ff ff ff
	ff		 mov	 DWORD PTR _ch_skip$[ebp+eax+768], -1
  002ad	c7 84 05 48 fb
	ff ff ff ff ff
	ff		 mov	 DWORD PTR _ch_skip$[ebp+eax+896], -1
  002b8	83 c0 04	 add	 eax, 4
  002bb	3d 80 00 00 00	 cmp	 eax, 128		; 00000080H
  002c0	7c 9e		 jl	 SHORT $LL4@music_read

; 1116 : 		q_com[d7] = 8;
; 1117 : 		waon_delay[d7] = 0;
; 1118 : 	}
; 1119 : 	o_tempo = 0;

  002c2	33 c0		 xor	 eax, eax

; 1120 : 
; 1121 : 	//??????????  ?î¶?î¿  ??????????
; 1122 : 
; 1123 : 	while (1) {
; 1124 : 
; 1125 : 		//??????????  ????î±?îî  ??????????
; 1126 : 
; 1127 : 		err_line++;

  002c4	bf 01 00 00 00	 mov	 edi, 1

; 1128 : 
; 1129 : 		if ((d0 = f_get(fp)) == EOF)		//????î±?î?î?

  002c9	56		 push	 esi
  002ca	89 85 a4 f3 ff
	ff		 mov	 DWORD PTR _o_tempo$1$[ebp], eax
  002d0	89 bd a8 f3 ff
	ff		 mov	 DWORD PTR _err_line$1$[ebp], edi
  002d6	e8 00 00 00 00	 call	 ?f_get@@YAHPAU_iobuf@@@Z ; f_get
  002db	83 c4 04	 add	 esp, 4
  002de	83 f8 ff	 cmp	 eax, -1
  002e1	0f 84 5c 10 00
	00		 je	 $LN459@music_read
  002e7	f2 0f 10 05 00
	00 00 00	 movsd	 xmm0, QWORD PTR __real@c003880000000000
  002ef	f2 0f 11 85 98
	f3 ff ff	 movsd	 QWORD PTR __real@c003880000000000$1$[ebp], xmm0
$LL8@music_read:

; 1130 : 			break;		//?????î·î ?
; 1131 : 		if (d0 == '\n')		//???

  002f7	83 f8 0a	 cmp	 eax, 10			; 0000000aH
  002fa	0f 84 2a 10 00
	00		 je	 $LN361@music_read

; 1132 : 			continue;			//??????î?
; 1133 : 		if (d0 == '/') {		//?????

  00300	83 f8 2f	 cmp	 eax, 47			; 0000002fH
  00303	75 2e		 jne	 SHORT $LN43@music_read

; 1134 : 			while (1) {			//????????
; 1135 : 				d0 = f_get(fp);

  00305	56		 push	 esi
  00306	e8 00 00 00 00	 call	 ?f_get@@YAHPAU_iobuf@@@Z ; f_get
  0030b	83 c4 04	 add	 esp, 4

; 1136 : 				if (d0 == '\n' || d0 == EOF)

  0030e	83 f8 0a	 cmp	 eax, 10			; 0000000aH
  00311	0f 84 13 10 00
	00		 je	 $LN361@music_read
$LL10@music_read:
  00317	83 f8 ff	 cmp	 eax, -1
  0031a	0f 84 0a 10 00
	00		 je	 $LN361@music_read

; 1134 : 			while (1) {			//????????
; 1135 : 				d0 = f_get(fp);

  00320	56		 push	 esi
  00321	e8 00 00 00 00	 call	 ?f_get@@YAHPAU_iobuf@@@Z ; f_get
  00326	83 c4 04	 add	 esp, 4

; 1136 : 				if (d0 == '\n' || d0 == EOF)

  00329	83 f8 0a	 cmp	 eax, 10			; 0000000aH
  0032c	75 e9		 jne	 SHORT $LL10@music_read

; 1137 : 					break;
; 1138 : 			}
; 1139 : 			continue;			//??????î?

  0032e	e9 f7 0f 00 00	 jmp	 $LN361@music_read
$LN43@music_read:

; 1140 : 		}
; 1141 : 		if (d0 != '(') {		//?????î¿?

  00333	83 f8 28	 cmp	 eax, 40			; 00000028H
  00336	0f 85 f6 10 00
	00		 jne	 $LN363@music_read

; 1142 : 			err_flg = M_TRACK_ERR;
; 1143 : 			goto music_read_999;
; 1144 : 		}
; 1145 : 		if ((d0 = f_get(fp)) == EOF)		//????î±?î?î?

  0033c	56		 push	 esi
  0033d	e8 00 00 00 00	 call	 ?f_get@@YAHPAU_iobuf@@@Z ; f_get
  00342	83 c4 04	 add	 esp, 4
  00345	83 f8 ff	 cmp	 eax, -1
  00348	0f 84 f5 0f 00
	00		 je	 $LN459@music_read

; 1146 : 			break;		//?????î·î ?
; 1147 : 		if (d0 == 'p') {		//?î????îî?

  0034e	83 f8 70	 cmp	 eax, 112		; 00000070H
  00351	0f 85 b6 00 00
	00		 jne	 $LN49@music_read

; 1148 : 			if ((d0 = f_get(fp)) == EOF) {		//î»?????î?

  00357	56		 push	 esi
  00358	e8 00 00 00 00	 call	 ?f_get@@YAHPAU_iobuf@@@Z ; f_get
  0035d	83 c4 04	 add	 esp, 4
  00360	83 f8 ff	 cmp	 eax, -1
  00363	0f 84 34 10 00
	00		 je	 $LN365@music_read

; 1149 : 				err_flg = M_PLAY_ERR;
; 1150 : 				goto music_read_999;
; 1151 : 
; 1152 : 			}
; 1153 : 			if (d0 == ')') {		//??

  00369	83 f8 29	 cmp	 eax, 41			; 00000029H
  0036c	75 06		 jne	 SHORT $LN52@music_read
$LN312@music_read:

; 1120 : 
; 1121 : 	//??????????  ?î¶?î¿  ??????????
; 1122 : 
; 1123 : 	while (1) {
; 1124 : 
; 1125 : 		//??????????  ????î±?îî  ??????????
; 1126 : 
; 1127 : 		err_line++;

  0036e	4f		 dec	 edi
  0036f	e9 b6 0f 00 00	 jmp	 $LN361@music_read
$LN52@music_read:

; 1154 : 				err_line--;		//??î·??????????
; 1155 : 				continue;
; 1156 : 			}
; 1157 : 
; 1158 : 			fseek(fp, -1, SEEK_CUR);		//??????

  00374	6a 01		 push	 1
  00376	6a ff		 push	 -1
  00378	56		 push	 esi
  00379	e8 00 00 00 00	 call	 _fseek
  0037e	0f 57 c0	 xorps	 xmm0, xmm0
  00381	83 c4 0c	 add	 esp, 12			; 0000000cH
  00384	0f 11 05 00 00
	00 00		 movups	 XMMWORD PTR ?play_track_flg@@3PAHA, xmm0
  0038b	0f 11 05 10 00
	00 00		 movups	 XMMWORD PTR ?play_track_flg@@3PAHA+16, xmm0
  00392	0f 11 05 20 00
	00 00		 movups	 XMMWORD PTR ?play_track_flg@@3PAHA+32, xmm0
  00399	0f 11 05 30 00
	00 00		 movups	 XMMWORD PTR ?play_track_flg@@3PAHA+48, xmm0
  003a0	0f 11 05 40 00
	00 00		 movups	 XMMWORD PTR ?play_track_flg@@3PAHA+64, xmm0
  003a7	0f 11 05 50 00
	00 00		 movups	 XMMWORD PTR ?play_track_flg@@3PAHA+80, xmm0
  003ae	0f 11 05 60 00
	00 00		 movups	 XMMWORD PTR ?play_track_flg@@3PAHA+96, xmm0
  003b5	0f 11 05 70 00
	00 00		 movups	 XMMWORD PTR ?play_track_flg@@3PAHA+112, xmm0
  003bc	0f 1f 40 00	 npad	 4
$LL15@music_read:

; 1159 : 			for (d7 = 0; d7 < TRACK_MAX; d7++)		//?î???????
; 1160 : 				play_track_flg[d7] = 0;	//
; 1161 : 
; 1162 : 			while (1) {
; 1163 : 				if ((d0 = fgetc(fp)) == EOF) {		//î·??

  003c0	56		 push	 esi
  003c1	e8 00 00 00 00	 call	 _fgetc
  003c6	83 c4 04	 add	 esp, 4
  003c9	83 f8 ff	 cmp	 eax, -1
  003cc	0f 84 cb 0f 00
	00		 je	 $LN365@music_read

; 1164 : 					err_flg = M_PLAY_ERR;
; 1165 : 					goto music_read_999;
; 1166 : 				}
; 1167 : 				if (d0 == ')')			//??

  003d2	83 f8 29	 cmp	 eax, 41			; 00000029H
  003d5	74 97		 je	 SHORT $LN312@music_read

; 1168 : 					break;
; 1169 : 
; 1170 : 				if (d0 >= '0' && d0 <= '9') {		//???

  003d7	83 c0 d0	 add	 eax, -48		; ffffffd0H
  003da	83 f8 09	 cmp	 eax, 9
  003dd	77 e1		 ja	 SHORT $LL15@music_read

; 1171 : 					fseek(fp, -1, SEEK_CUR);		//??????

  003df	6a 01		 push	 1
  003e1	6a ff		 push	 -1
  003e3	56		 push	 esi
  003e4	e8 00 00 00 00	 call	 _fseek

; 1172 : 					d0 = get_num(fp);

  003e9	56		 push	 esi
  003ea	e8 00 00 00 00	 call	 ?get_num@@YAHPAU_iobuf@@@Z ; get_num
  003ef	8b c8		 mov	 ecx, eax
  003f1	83 c4 10	 add	 esp, 16			; 00000010H

; 1173 : 					if (d0 < 1 || d0 > TRACK_MAX) {

  003f4	8d 41 ff	 lea	 eax, DWORD PTR [ecx-1]
  003f7	83 f8 1f	 cmp	 eax, 31			; 0000001fH
  003fa	0f 87 9d 0f 00
	00		 ja	 $LN365@music_read

; 1174 : 						err_flg = M_PLAY_ERR;
; 1175 : 						goto music_read_999;
; 1176 : 					}
; 1177 : 					play_track_flg[d0 - 1] = 1;	//?î???????

  00400	c7 04 8d fc ff
	ff ff 01 00 00
	00		 mov	 DWORD PTR ?play_track_flg@@3PAHA[ecx*4-4], 1

; 1178 : 				}
; 1179 : 			}

  0040b	eb b3		 jmp	 SHORT $LL15@music_read
$LN49@music_read:

; 1180 : 			err_line--;		//??î·??????????
; 1181 : 			continue;
; 1182 : 		}
; 1183 : 
; 1184 : 		if (d0 == 's') {		//????????îî?

  0040d	83 f8 73	 cmp	 eax, 115		; 00000073H
  00410	75 51		 jne	 SHORT $LN60@music_read
$LL17@music_read:

; 1185 : 			while (1) {
; 1186 : 				if ((d0 = fgetc(fp)) == EOF) {		//î·??

  00412	56		 push	 esi
  00413	e8 00 00 00 00	 call	 _fgetc
  00418	83 c4 04	 add	 esp, 4
  0041b	83 f8 ff	 cmp	 eax, -1
  0041e	0f 84 83 0f 00
	00		 je	 $LN314@music_read

; 1187 : 					err_flg = M_MUTE_ERR;
; 1188 : 					goto music_read_999;
; 1189 : 				}
; 1190 : 				if (d0 == ')')			//??

  00424	83 f8 29	 cmp	 eax, 41			; 00000029H
  00427	0f 84 41 ff ff
	ff		 je	 $LN312@music_read

; 1191 : 					break;
; 1192 : 
; 1193 : 				if (d0 >= '0' && d0 <= '9') {		//???

  0042d	83 c0 d0	 add	 eax, -48		; ffffffd0H
  00430	83 f8 09	 cmp	 eax, 9
  00433	77 dd		 ja	 SHORT $LL17@music_read

; 1194 : 					fseek(fp, -1, SEEK_CUR);		//??????

  00435	6a 01		 push	 1
  00437	6a ff		 push	 -1
  00439	56		 push	 esi
  0043a	e8 00 00 00 00	 call	 _fseek

; 1195 : 					d0 = get_num(fp);

  0043f	56		 push	 esi
  00440	e8 00 00 00 00	 call	 ?get_num@@YAHPAU_iobuf@@@Z ; get_num
  00445	8b c8		 mov	 ecx, eax
  00447	83 c4 10	 add	 esp, 16			; 00000010H

; 1196 : 					if (d0 < 1 || d0 > TRACK_MAX) {

  0044a	8d 41 ff	 lea	 eax, DWORD PTR [ecx-1]
  0044d	83 f8 1f	 cmp	 eax, 31			; 0000001fH
  00450	0f 87 51 0f 00
	00		 ja	 $LN314@music_read

; 1197 : 						err_flg = M_MUTE_ERR;
; 1198 : 						goto music_read_999;
; 1199 : 					}
; 1200 : 					play_track_flg[d0 - 1] = 0;	//???????????

  00456	c7 04 8d fc ff
	ff ff 00 00 00
	00		 mov	 DWORD PTR ?play_track_flg@@3PAHA[ecx*4-4], 0

; 1201 : 				}
; 1202 : 			}

  00461	eb af		 jmp	 SHORT $LL17@music_read
$LN60@music_read:

; 1203 : 			err_line--;		//??î·??????????
; 1204 : 			continue;
; 1205 : 		}
; 1206 : 
; 1207 : 		if (d0 == 'o') {		//???îî?

  00463	83 f8 6f	 cmp	 eax, 111		; 0000006fH
  00466	75 3e		 jne	 SHORT $LN68@music_read

; 1208 : 			if (!num_check(fp)) {		//???????

  00468	56		 push	 esi
  00469	e8 00 00 00 00	 call	 ?num_check@@YAHPAU_iobuf@@@Z ; num_check
  0046e	83 c4 04	 add	 esp, 4
  00471	85 c0		 test	 eax, eax
  00473	0f 84 38 0f 00
	00		 je	 $LN366@music_read

; 1209 : 				err_flg = M_TOCOMMAND_ERR;
; 1210 : 				goto music_read_999;
; 1211 : 			}
; 1212 : 			o_tempo = get_num(fp);		//???î?î?

  00479	56		 push	 esi
  0047a	e8 00 00 00 00	 call	 ?get_num@@YAHPAU_iobuf@@@Z ; get_num

; 1213 : 			if ((d0 = fgetc(fp)) == EOF) {		//î·??

  0047f	56		 push	 esi
  00480	89 85 a4 f3 ff
	ff		 mov	 DWORD PTR _o_tempo$1$[ebp], eax
  00486	e8 00 00 00 00	 call	 _fgetc
  0048b	83 c4 08	 add	 esp, 8
  0048e	83 f8 ff	 cmp	 eax, -1
  00491	0f 84 1a 0f 00
	00		 je	 $LN366@music_read

; 1214 : 				err_flg = M_TOCOMMAND_ERR;
; 1215 : 				goto music_read_999;
; 1216 : 			}
; 1217 : 			if (d0 != ')') {

  00497	83 f8 29	 cmp	 eax, 41			; 00000029H
  0049a	0f 85 11 0f 00
	00		 jne	 $LN366@music_read

; 1218 : 				err_flg = M_TOCOMMAND_ERR;
; 1219 : 				goto music_read_999;
; 1220 : 			}
; 1221 : 			err_line--;		//??î·??????????

  004a0	4f		 dec	 edi

; 1222 : 			continue;

  004a1	e9 84 0e 00 00	 jmp	 $LN361@music_read
$LN68@music_read:

; 1223 : 		}
; 1224 : 
; 1225 : 		if (d0 != 't') {		//?????î¿

  004a6	83 f8 74	 cmp	 eax, 116		; 00000074H
  004a9	0f 85 83 0f 00
	00		 jne	 $LN363@music_read

; 1226 : 			err_flg = M_TRACK_ERR;
; 1227 : 			goto music_read_999;
; 1228 : 		}
; 1229 : 		if ((d0 = f_get(fp)) == EOF)		//????î±?î?î?

  004af	56		 push	 esi
  004b0	e8 00 00 00 00	 call	 ?f_get@@YAHPAU_iobuf@@@Z ; f_get
  004b5	83 c4 04	 add	 esp, 4
  004b8	83 f8 ff	 cmp	 eax, -1
  004bb	0f 84 82 0e 00
	00		 je	 $LN459@music_read

; 1230 : 			break;		//?????î·î ?
; 1231 : 		if (d0 < '0' || d0> '9') {		//?????î¿

  004c1	83 f8 30	 cmp	 eax, 48			; 00000030H
  004c4	0f 8c 68 0f 00
	00		 jl	 $LN363@music_read
  004ca	83 f8 39	 cmp	 eax, 57			; 00000039H
  004cd	0f 8f 5f 0f 00
	00		 jg	 $LN363@music_read

; 1232 : 			err_flg = M_TRACK_ERR;
; 1233 : 			goto music_read_999;
; 1234 : 		}
; 1235 : 		fseek(fp, -1, SEEK_CUR);		//??????

  004d3	6a 01		 push	 1
  004d5	6a ff		 push	 -1
  004d7	56		 push	 esi
  004d8	e8 00 00 00 00	 call	 _fseek

; 1236 : 		ch = get_num(fp);

  004dd	56		 push	 esi
  004de	e8 00 00 00 00	 call	 ?get_num@@YAHPAU_iobuf@@@Z ; get_num

; 1237 : 		if ((d0 = f_get(fp)) == EOF)		//????î±?î?î?

  004e3	56		 push	 esi
  004e4	8b f8		 mov	 edi, eax
  004e6	e8 00 00 00 00	 call	 ?f_get@@YAHPAU_iobuf@@@Z ; f_get
  004eb	83 c4 14	 add	 esp, 20			; 00000014H
  004ee	83 f8 ff	 cmp	 eax, -1
  004f1	0f 84 4c 0e 00
	00		 je	 $LN459@music_read

; 1238 : 			break;		//?????î·î ?
; 1239 : 		if (d0 != ')') {		//?????î¿

  004f7	83 f8 29	 cmp	 eax, 41			; 00000029H
  004fa	0f 85 32 0f 00
	00		 jne	 $LN363@music_read

; 1240 : 			err_flg = M_TRACK_ERR;
; 1241 : 			goto music_read_999;
; 1242 : 		}
; 1243 : 
; 1244 : 		if (ch < 1 || ch > TRACK_MAX) {

  00500	83 ff 01	 cmp	 edi, 1
  00503	0f 8c 29 0f 00
	00		 jl	 $LN363@music_read
  00509	83 ff 20	 cmp	 edi, 32			; 00000020H
  0050c	0f 8f 20 0f 00
	00		 jg	 $LN363@music_read

; 1245 : 			err_flg = M_TRACK_ERR;
; 1246 : 			goto music_read_999;
; 1247 : 		}
; 1248 : 
; 1249 : 		ch--;		//?????î
; 1250 : 		play_track_flg[ch] = 1;	//
; 1251 : 
; 1252 : 		if (o_tempo != 0 && ch_p[ch] == 0) {		//???îî?????

  00512	8b 85 a4 f3 ff
	ff		 mov	 eax, DWORD PTR _o_tempo$1$[ebp]
  00518	4f		 dec	 edi
  00519	89 bd ac f3 ff
	ff		 mov	 DWORD PTR _ch$1$[ebp], edi
  0051f	c7 04 bd 00 00
	00 00 01 00 00
	00		 mov	 DWORD PTR ?play_track_flg@@3PAHA[edi*4], 1
  0052a	85 c0		 test	 eax, eax
  0052c	74 52		 je	 SHORT $music_read_100$496
  0052e	83 bc bd 70 fe
	ff ff 00	 cmp	 DWORD PTR _ch_p$[ebp+edi*4], 0
  00536	75 48		 jne	 SHORT $music_read_100$496

; 1253 : 			step[ch][ch_p[ch]++] = MUSIC_TEMPO;		//î»???????????
; 1254 : #if MODE98
; 1255 : 			step[ch][ch_p[ch]++] = (int)((float)120 / (float)o_tempo * (float)12600) * 2;
; 1256 : #else
; 1257 : 			step[ch][ch_p[ch]++] = (int)((float)120 / (float)o_tempo * (float)12600);

  00538	f3 0f 10 0d 00
	00 00 00	 movss	 xmm1, DWORD PTR __real@42f00000
  00540	8b cf		 mov	 ecx, edi
  00542	66 0f 6e c0	 movd	 xmm0, eax
  00546	0f 5b c0	 cvtdq2ps xmm0, xmm0
  00549	c1 e1 0e	 shl	 ecx, 14			; 0000000eH
  0054c	c7 84 bd 70 fe
	ff ff 02 00 00
	00		 mov	 DWORD PTR _ch_p$[ebp+edi*4], 2
  00557	c7 04 8d 00 00
	00 00 f9 ff ff
	ff		 mov	 DWORD PTR ?step@@3PAY0EAAA@HA[ecx*4], -7 ; fffffff9H
  00562	f3 0f 5e c8	 divss	 xmm1, xmm0
  00566	f3 0f 59 0d 00
	00 00 00	 mulss	 xmm1, DWORD PTR __real@4644e000
  0056e	f3 0f 2c c1	 cvttss2si eax, xmm1
  00572	89 04 8d 04 00
	00 00		 mov	 DWORD PTR ?step@@3PAY0EAAA@HA[ecx*4+4], eax
  00579	0f 1f 80 00 00
	00 00		 npad	 7
$music_read_100$496:

; 1258 : #endif
; 1259 : 		}
; 1260 : 
; 1261 : 		//??????????  ???????îî  ??????????
; 1262 : 
; 1263 : 	music_read_100:
; 1264 : 		if ((d0 = f_get(fp)) == EOF)		//????î?î?

  00580	56		 push	 esi
  00581	e8 00 00 00 00	 call	 ?f_get@@YAHPAU_iobuf@@@Z ; f_get
  00586	83 c4 04	 add	 esp, 4
  00589	83 f8 ff	 cmp	 eax, -1
  0058c	0f 84 b1 0d 00
	00		 je	 $LN459@music_read

; 1265 : 			break;		//?????î·î ?
; 1266 : 		switch (d0) {

  00592	8d 48 f6	 lea	 ecx, DWORD PTR [eax-10]
  00595	83 f9 72	 cmp	 ecx, 114		; 00000072H
  00598	0f 87 8d 0e 00
	00		 ja	 $LN258@music_read
  0059e	0f b6 89 00 00
	00 00		 movzx	 ecx, BYTE PTR $LN465@music_read[ecx]
  005a5	ff 24 8d 00 00
	00 00		 jmp	 DWORD PTR $LN466@music_read[ecx*4]
$LN93@music_read:

; 1273 : 					break;
; 1274 : 			}
; 1275 : 			break;
; 1276 : 		case '\'':		//????
; 1277 : 			int waon_step, waon_note[8 + 1], waon_cnt, octave, waon_delay_point;
; 1278 : 			waon_step = waon_cnt = 0;

  005ac	33 c0		 xor	 eax, eax
  005ae	89 85 c4 f3 ff
	ff		 mov	 DWORD PTR _waon_cnt$1$[ebp], eax
  005b4	89 85 b4 f3 ff
	ff		 mov	 DWORD PTR _d0$15$[ebp], eax

; 1279 : 			octave = ch_oct[ch];

  005ba	8b 84 bd f0 fd
	ff ff		 mov	 eax, DWORD PTR _ch_oct$[ebp+edi*4]
  005c1	89 85 b8 f3 ff
	ff		 mov	 DWORD PTR _octave$1$[ebp], eax
  005c7	8d 04 40	 lea	 eax, DWORD PTR [eax+eax*2]
  005ca	c1 e0 02	 shl	 eax, 2
  005cd	89 85 b0 f3 ff
	ff		 mov	 DWORD PTR tv2866[ebp], eax
$LL23@music_read:

; 1280 : 
; 1281 : 			while (1) {
; 1282 : 				d0 = f_get(fp);		//???î?î?

  005d3	56		 push	 esi
  005d4	e8 00 00 00 00	 call	 ?f_get@@YAHPAU_iobuf@@@Z ; f_get
  005d9	83 c4 04	 add	 esp, 4

; 1283 : 				if (d0 >= '0' && d0 <= '9') {		//????????

  005dc	83 f8 30	 cmp	 eax, 48			; 00000030H
  005df	7c 09		 jl	 SHORT $LN94@music_read
  005e1	83 f8 39	 cmp	 eax, 57			; 00000039H
  005e4	0f 8e f7 00 00
	00		 jle	 $LN317@music_read
$LN94@music_read:

; 1284 : 					err_flg = M_WAON_ERR;				//???
; 1285 : 					goto music_read_999;
; 1286 : 				}
; 1287 : 				if (d0 == '<') {		//?????î¯??

  005ea	83 f8 3c	 cmp	 eax, 60			; 0000003cH
  005ed	75 0f		 jne	 SHORT $LN96@music_read

; 1288 : 					octave++;

  005ef	ff 85 b8 f3 ff
	ff		 inc	 DWORD PTR _octave$1$[ebp]
  005f5	83 85 b0 f3 ff
	ff 0c		 add	 DWORD PTR tv2866[ebp], 12 ; 0000000cH

; 1289 : 					continue;

  005fc	eb d5		 jmp	 SHORT $LL23@music_read
$LN96@music_read:

; 1290 : 				}
; 1291 : 				if (d0 == '>') {		//????????

  005fe	83 f8 3e	 cmp	 eax, 62			; 0000003eH
  00601	75 22		 jne	 SHORT $LN97@music_read

; 1292 : 					octave--;

  00603	8b 85 b8 f3 ff
	ff		 mov	 eax, DWORD PTR _octave$1$[ebp]
  00609	83 ad b0 f3 ff
	ff 0c		 sub	 DWORD PTR tv2866[ebp], 12 ; 0000000cH
  00610	48		 dec	 eax
  00611	89 85 b8 f3 ff
	ff		 mov	 DWORD PTR _octave$1$[ebp], eax

; 1293 : 					if (octave < 0) {		//????????

  00617	85 c0		 test	 eax, eax
