; Listing generated by Microsoft (R) Optimizing Compiler Version 19.28.29336.0 

	TITLE	C:\Users\gg862\OneDrive\¹ÙÅÁ È­¸é\¸¾Äí¿Ï·á\Client Source Code1.31ÀÏº»\system\test.cpp
	.686P
	.XMM
	include listing.inc
	.model	flat

INCLUDELIB LIBCMT
INCLUDELIB OLDNAMES

PUBLIC	___local_stdio_printf_options
PUBLIC	_fprintf
PUBLIC	?test@@YAXPAD@Z					; test
PUBLIC	?_OptionsStorage@?1??__local_stdio_printf_options@@9@4_KA ; `__local_stdio_printf_options'::`2'::_OptionsStorage
PUBLIC	??_C@_02DPNLHKJD@a?$CL@				; `string'
PUBLIC	??_C@_08OKJMHBIC@test?4txt@			; `string'
PUBLIC	??_C@_03OFAPEBGM@?$CFs?6@			; `string'
EXTRN	_fclose:PROC
EXTRN	_fopen:PROC
EXTRN	___stdio_common_vfprintf:PROC
;	COMDAT ?_OptionsStorage@?1??__local_stdio_printf_options@@9@4_KA
_BSS	SEGMENT
?_OptionsStorage@?1??__local_stdio_printf_options@@9@4_KA DQ 01H DUP (?) ; `__local_stdio_printf_options'::`2'::_OptionsStorage
_BSS	ENDS
;	COMDAT ??_C@_03OFAPEBGM@?$CFs?6@
CONST	SEGMENT
??_C@_03OFAPEBGM@?$CFs?6@ DB '%s', 0aH, 00H		; `string'
CONST	ENDS
;	COMDAT ??_C@_08OKJMHBIC@test?4txt@
CONST	SEGMENT
??_C@_08OKJMHBIC@test?4txt@ DB 'test.txt', 00H		; `string'
CONST	ENDS
;	COMDAT ??_C@_02DPNLHKJD@a?$CL@
CONST	SEGMENT
??_C@_02DPNLHKJD@a?$CL@ DB 'a+', 00H			; `string'
CONST	ENDS
; Function compile flags: /Ogtp
; File C:\Users\gg862\OneDrive\¹ÙÅÁ È­¸é\¸¾Äí¿Ï·á\Client Source Code1.31ÀÏº»\system\test.cpp
;	COMDAT ?test@@YAXPAD@Z
_TEXT	SEGMENT
_data$ = 8						; size = 4
?test@@YAXPAD@Z PROC					; test, COMDAT

; 6    : {

  00000	55		 push	 ebp
  00001	8b ec		 mov	 ebp, esp
  00003	56		 push	 esi

; 7    : 	FILE *logfile;
; 8    : 	logfile = fopen("test.txt","a+");

  00004	68 00 00 00 00	 push	 OFFSET ??_C@_02DPNLHKJD@a?$CL@
  00009	68 00 00 00 00	 push	 OFFSET ??_C@_08OKJMHBIC@test?4txt@
  0000e	e8 00 00 00 00	 call	 _fopen
  00013	8b f0		 mov	 esi, eax
  00015	83 c4 08	 add	 esp, 8

; 9    : 	if(logfile)

  00018	85 f6		 test	 esi, esi
  0001a	74 17		 je	 SHORT $LN2@test

; 10   : 	{
; 11   : 		fprintf(logfile,"%s\n",data);

  0001c	ff 75 08	 push	 DWORD PTR _data$[ebp]
  0001f	68 00 00 00 00	 push	 OFFSET ??_C@_03OFAPEBGM@?$CFs?6@
  00024	56		 push	 esi
  00025	e8 00 00 00 00	 call	 _fprintf

; 12   : 		fclose(logfile);

  0002a	56		 push	 esi
  0002b	e8 00 00 00 00	 call	 _fclose
  00030	83 c4 10	 add	 esp, 16			; 00000010H
$LN2@test:
  00033	5e		 pop	 esi

; 13   : 	}
; 14   : }

  00034	5d		 pop	 ebp
  00035	c3		 ret	 0
?test@@YAXPAD@Z ENDP					; test
_TEXT	ENDS
; Function compile flags: /Ogtp
; File C:\Program Files (x86)\Windows Kits\10\Include\10.0.18362.0\ucrt\stdio.h
;	COMDAT _fprintf
_TEXT	SEGMENT
__Stream$ = 8						; size = 4
__Format$ = 12						; size = 4
_fprintf PROC						; COMDAT

; 835  :     {

  00000	55		 push	 ebp
  00001	8b ec		 mov	 ebp, esp

; 643  :         return __stdio_common_vfprintf(_CRT_INTERNAL_LOCAL_PRINTF_OPTIONS, _Stream, _Format, _Locale, _ArgList);

  00003	8d 45 10	 lea	 eax, DWORD PTR __Format$[ebp+4]
  00006	50		 push	 eax
  00007	6a 00		 push	 0
  00009	ff 75 0c	 push	 DWORD PTR __Format$[ebp]
  0000c	ff 75 08	 push	 DWORD PTR __Stream$[ebp]
  0000f	e8 00 00 00 00	 call	 ___local_stdio_printf_options
  00014	ff 70 04	 push	 DWORD PTR [eax+4]
  00017	ff 30		 push	 DWORD PTR [eax]
  00019	e8 00 00 00 00	 call	 ___stdio_common_vfprintf
  0001e	83 c4 18	 add	 esp, 24			; 00000018H

; 836  :         int _Result;
; 837  :         va_list _ArgList;
; 838  :         __crt_va_start(_ArgList, _Format);
; 839  :         _Result = _vfprintf_l(_Stream, _Format, NULL, _ArgList);
; 840  :         __crt_va_end(_ArgList);
; 841  :         return _Result;
; 842  :     }

  00021	5d		 pop	 ebp
  00022	c3		 ret	 0
_fprintf ENDP
_TEXT	ENDS
; Function compile flags: /Ogtp
; File C:\Program Files (x86)\Windows Kits\10\Include\10.0.18362.0\ucrt\corecrt_stdio_config.h
;	COMDAT ___local_stdio_printf_options
_TEXT	SEGMENT
___local_stdio_printf_options PROC			; COMDAT

; 87   :         static unsigned __int64 _OptionsStorage;
; 88   :         return &_OptionsStorage;

  00000	b8 00 00 00 00	 mov	 eax, OFFSET ?_OptionsStorage@?1??__local_stdio_printf_options@@9@4_KA ; `__local_stdio_printf_options'::`2'::_OptionsStorage

; 89   :     }

  00005	c3		 ret	 0
___local_stdio_printf_options ENDP
_TEXT	ENDS
END
