; Listing generated by Microsoft (R) Optimizing Compiler Version 19.29.30133.0 

	TITLE	\\VBOXSVR\_stoneage\repos\ssm-sacli\Release\Work.obj
	.686P
	.XMM
	include listing.inc
	.model	flat

INCLUDELIB LIBCMT
INCLUDELIB OLDNAMES

PUBLIC	?joy_con@@3PAKA					; joy_con
PUBLIC	?joy_trg@@3PAKA					; joy_trg
PUBLIC	?joy_pul@@3PAKA					; joy_pul
PUBLIC	?joy_buf@@3PAKA					; joy_buf
PUBLIC	?joy_auto@@3PAKA				; joy_auto
PUBLIC	?joy_timer@@3PAGA				; joy_timer
PUBLIC	?s_timer@@3GA					; s_timer
PUBLIC	?di_key@@3PAEA					; di_key
PUBLIC	?pDInputDevice@@3PAUIDirectInputDeviceA@@A	; pDInputDevice
PUBLIC	?pDInputDevice2@@3PAUIDirectInputDevice2A@@A	; pDInputDevice2
PUBLIC	?joy_flg@@3DA					; joy_flg
PUBLIC	?keyboad_flg@@3DA				; keyboad_flg
PUBLIC	?slow_flg@@3HA					; slow_flg
PUBLIC	?flash_vct_no@@3HA				; flash_vct_no
PUBLIC	?quake_flg@@3HA					; quake_flg
PUBLIC	?quake_vct_no@@3HA				; quake_vct_no
PUBLIC	?p_party@@3PAPAUaction@@A			; p_party
PUBLIC	?action_inf@@3HA				; action_inf
PUBLIC	?DInputActiveFlag@@3HA				; DInputActiveFlag
_BSS	SEGMENT
?joy_con@@3PAKA DD 02H DUP (?)				; joy_con
?joy_trg@@3PAKA DD 02H DUP (?)				; joy_trg
?joy_pul@@3PAKA DD 02H DUP (?)				; joy_pul
?joy_buf@@3PAKA DD 02H DUP (?)				; joy_buf
?joy_auto@@3PAKA DD 02H DUP (?)				; joy_auto
?joy_timer@@3PAGA DW 02H DUP (?)			; joy_timer
?s_timer@@3GA DW 01H DUP (?)				; s_timer
	ALIGN	4

?di_key@@3PAEA DB 0100H DUP (?)				; di_key
?pDInputDevice@@3PAUIDirectInputDeviceA@@A DD 01H DUP (?) ; pDInputDevice
?pDInputDevice2@@3PAUIDirectInputDevice2A@@A DD 01H DUP (?) ; pDInputDevice2
?joy_flg@@3DA DB 01H DUP (?)				; joy_flg
	ALIGN	4

?keyboad_flg@@3DA DB 01H DUP (?)			; keyboad_flg
	ALIGN	4

?slow_flg@@3HA DD 01H DUP (?)				; slow_flg
?flash_vct_no@@3HA DD 01H DUP (?)			; flash_vct_no
?quake_flg@@3HA DD 01H DUP (?)				; quake_flg
?quake_vct_no@@3HA DD 01H DUP (?)			; quake_vct_no
?p_party@@3PAPAUaction@@A DD 014H DUP (?)		; p_party
?action_inf@@3HA DD 01H DUP (?)				; action_inf
_BSS	ENDS
_DATA	SEGMENT
?DInputActiveFlag@@3HA DD 01H				; DInputActiveFlag
_DATA	ENDS
END
